In archive .\libfunctionsc.a:

calcdiag.o:     file format pe-i386


Disassembly of section .text:

00000000 <_DiagTestCircle>:
// ***************************************************************************************************
// ***************************************************************************************************
// ***************************************************************************************************

int32 DiagTestCircle(double CircleX, double CircleY, double CircleThickness)
{
   0:	53                   	push   %ebx
   1:	81 ec a8 00 00 00    	sub    $0xa8,%esp
	CircleXmin = CircleX - CircleThickness;
	CircleYmin = CircleY - CircleThickness;
	CircleXmax = CircleX + CircleThickness;
	CircleYmax = CircleY + CircleThickness;

	if ((CircleXmax < SearchMinX) || (CircleXmin > SearchMaxX) || (CircleYmax < SearchMinY)
   7:	f3 0f 5a 05 00 00 00 	cvtss2sd 0x0,%xmm0
   e:	00 
// ***************************************************************************************************
// ***************************************************************************************************
// ***************************************************************************************************

int32 DiagTestCircle(double CircleX, double CircleY, double CircleThickness)
{
   f:	dd 84 24 b0 00 00 00 	fldl   0xb0(%esp)
  16:	dd 84 24 b8 00 00 00 	fldl   0xb8(%esp)


	double xx1, yy1, xx2, yy2, xx3, yy3, xx4, yy4, CircleR, CircleMinXD, CircleMinYD, CircleMaxXD, CircleMaxYD,
	       CircleXmin, CircleXmax, CircleYmin, CircleYmax, hulpx, hulpy, hulp;

	CircleThickness = CircleThickness / 2;
  1d:	dd 05 00 00 00 00    	fldl   0x0
  23:	dc 8c 24 c0 00 00 00 	fmull  0xc0(%esp)

	CircleXmin = CircleX - CircleThickness;
	CircleYmin = CircleY - CircleThickness;
	CircleXmax = CircleX + CircleThickness;
  2a:	d9 c2                	fld    %st(2)
  2c:	d8 c1                	fadd   %st(1),%st
	CircleYmax = CircleY + CircleThickness;

	if ((CircleXmax < SearchMinX) || (CircleXmin > SearchMaxX) || (CircleYmax < SearchMinY)
  2e:	dd 5c 24 10          	fstpl  0x10(%esp)
  32:	f2 0f 10 7c 24 10    	movsd  0x10(%esp),%xmm7
  38:	66 0f 2e c7          	ucomisd %xmm7,%xmm0
  3c:	0f 87 c1 02 00 00    	ja     303 <_DiagTestCircle+0x303>
  42:	d9 ca                	fxch   %st(2)
  44:	dd 54 24 10          	fstl   0x10(%esp)
  48:	d9 ca                	fxch   %st(2)
  4a:	f2 0f 10 44 24 10    	movsd  0x10(%esp),%xmm0
  50:	dd 54 24 10          	fstl   0x10(%esp)
  54:	f2 0f 10 74 24 10    	movsd  0x10(%esp),%xmm6
  5a:	f3 0f 5a 0d 00 00 00 	cvtss2sd 0x0,%xmm1
  61:	00 
  62:	f2 0f 5c c6          	subsd  %xmm6,%xmm0
  66:	66 0f 2e c1          	ucomisd %xmm1,%xmm0
  6a:	0f 87 a0 02 00 00    	ja     310 <_DiagTestCircle+0x310>
  70:	d9 c9                	fxch   %st(1)
  72:	dd 54 24 10          	fstl   0x10(%esp)
  76:	d9 c9                	fxch   %st(1)
  78:	f2 0f 10 44 24 10    	movsd  0x10(%esp),%xmm0
  7e:	f3 0f 5a 0d 00 00 00 	cvtss2sd 0x0,%xmm1
  85:	00 
  86:	f2 0f 58 c6          	addsd  %xmm6,%xmm0
  8a:	dd 54 24 10          	fstl   0x10(%esp)
  8e:	66 0f 2e c8          	ucomisd %xmm0,%xmm1
  92:	0f 87 80 02 00 00    	ja     318 <_DiagTestCircle+0x318>
  98:	d9 c9                	fxch   %st(1)
	        || (CircleYmin > SearchMaxY))
  9a:	dd 54 24 10          	fstl   0x10(%esp)
  9e:	d9 c9                	fxch   %st(1)
  a0:	f2 0f 10 44 24 10    	movsd  0x10(%esp),%xmm0
  a6:	f3 0f 5a 0d 00 00 00 	cvtss2sd 0x0,%xmm1
  ad:	00 
  ae:	f2 0f 5c c6          	subsd  %xmm6,%xmm0
  b2:	dd 54 24 10          	fstl   0x10(%esp)
  b6:	66 0f 2e c1          	ucomisd %xmm1,%xmm0
  ba:	0f 87 60 02 00 00    	ja     320 <_DiagTestCircle+0x320>
		return 0;

	hulp = CircleThickness;
	hulp = hulp * PI * 0.5;
  c0:	dd 05 08 00 00 00    	fldl   0x8
  c6:	d8 c9                	fmul   %st(1),%st
	CircleMinXD = CircleX - CircleR;
	CircleMinYD = CircleY - CircleR;
	CircleMaxXD = CircleX + CircleR;
	CircleMaxYD = CircleY + CircleR;

	xx4 = SearchX1;
  c8:	f3 0f 10 1d 00 00 00 	movss  0x0,%xmm3
  cf:	00 
	if ((CircleXmax < SearchMinX) || (CircleXmin > SearchMaxX) || (CircleYmax < SearchMinY)
	        || (CircleYmin > SearchMaxY))
		return 0;

	hulp = CircleThickness;
	hulp = hulp * PI * 0.5;
  d0:	dc 0d 00 00 00 00    	fmull  0x0
	CircleMinXD = CircleX - CircleR;
	CircleMinYD = CircleY - CircleR;
	CircleMaxXD = CircleX + CircleR;
	CircleMaxYD = CircleY + CircleR;

	xx4 = SearchX1;
  d6:	f3 0f 11 5c 24 10    	movss  %xmm3,0x10(%esp)
	yy4 = SearchY1;
  dc:	f3 0f 10 15 00 00 00 	movss  0x0,%xmm2
  e3:	00 
	hulp = hulp * PI * 0.5;
	CircleR = hulp;

	CircleMinXD = CircleX - CircleR;
	CircleMinYD = CircleY - CircleR;
	CircleMaxXD = CircleX + CircleR;
  e4:	d9 c3                	fld    %st(3)
	CircleMaxYD = CircleY + CircleR;

	xx4 = SearchX1;
	yy4 = SearchY1;
  e6:	f3 0f 11 54 24 18    	movss  %xmm2,0x18(%esp)
	hulp = hulp * PI * 0.5;
	CircleR = hulp;

	CircleMinXD = CircleX - CircleR;
	CircleMinYD = CircleY - CircleR;
	CircleMaxXD = CircleX + CircleR;
  ec:	d8 c1                	fadd   %st(1),%st
	CircleMaxYD = CircleY + CircleR;

	xx4 = SearchX1;
	yy4 = SearchY1;

	xx2 = SearchX2;
  ee:	f3 0f 10 15 00 00 00 	movss  0x0,%xmm2
  f5:	00 
	CircleR = hulp;

	CircleMinXD = CircleX - CircleR;
	CircleMinYD = CircleY - CircleR;
	CircleMaxXD = CircleX + CircleR;
	CircleMaxYD = CircleY + CircleR;
  f6:	d9 c3                	fld    %st(3)
  f8:	d8 c2                	fadd   %st(2),%st

	xx4 = SearchX1;
	yy4 = SearchY1;

	xx2 = SearchX2;
	yy2 = SearchY2;
  fa:	f3 0f 10 0d 00 00 00 	movss  0x0,%xmm1
 101:	00 
	CircleMinXD = CircleX - CircleR;
	CircleMinYD = CircleY - CircleR;
	CircleMaxXD = CircleX + CircleR;
	CircleMaxYD = CircleY + CircleR;

	xx4 = SearchX1;
 102:	d9 44 24 10          	flds   0x10(%esp)
	yy4 = SearchY1;
 106:	d9 44 24 18          	flds   0x18(%esp)
 10a:	dd 54 24 38          	fstl   0x38(%esp)
 10e:	d9 cb                	fxch   %st(3)

	xx2 = SearchX2;
	yy2 = SearchY2;

	if (CircleMaxXD + CircleMaxYD < xx4 + yy4)
 110:	dd 54 24 20          	fstl   0x20(%esp)
 114:	d9 ca                	fxch   %st(2)
 116:	f2 0f 10 44 24 20    	movsd  0x20(%esp),%xmm0
 11c:	dd 54 24 20          	fstl   0x20(%esp)
 120:	d9 c9                	fxch   %st(1)
 122:	f2 0f 10 5c 24 20    	movsd  0x20(%esp),%xmm3
 128:	dd 54 24 28          	fstl   0x28(%esp)
 12c:	d8 c3                	fadd   %st(3),%st
 12e:	f2 0f 58 c3          	addsd  %xmm3,%xmm0
 132:	dd 54 24 20          	fstl   0x20(%esp)
 136:	f2 0f 10 6c 24 20    	movsd  0x20(%esp),%xmm5
 13c:	66 0f 2e e8          	ucomisd %xmm0,%xmm5
 140:	0f 87 e2 01 00 00    	ja     328 <_DiagTestCircle+0x328>
 146:	d9 cf                	fxch   %st(7)

	hulp = CircleThickness;
	hulp = hulp * PI * 0.5;
	CircleR = hulp;

	CircleMinXD = CircleX - CircleR;
 148:	dd 54 24 20          	fstl   0x20(%esp)
 14c:	d9 cc                	fxch   %st(4)
 14e:	f2 0f 10 5c 24 20    	movsd  0x20(%esp),%xmm3
 154:	dd 54 24 20          	fstl   0x20(%esp)
	CircleMinYD = CircleY - CircleR;
 158:	d8 ee                	fsubr  %st(6),%st

	hulp = CircleThickness;
	hulp = hulp * PI * 0.5;
	CircleR = hulp;

	CircleMinXD = CircleX - CircleR;
 15a:	f2 0f 10 6c 24 20    	movsd  0x20(%esp),%xmm5
 160:	f2 0f 5c dd          	subsd  %xmm5,%xmm3
	yy2 = SearchY2;

	if (CircleMaxXD + CircleMaxYD < xx4 + yy4)
		return 0;

	if (CircleMinXD + CircleMinYD > xx2 + yy2)
 164:	dd 54 24 30          	fstl   0x30(%esp)

	hulp = CircleThickness;
	hulp = hulp * PI * 0.5;
	CircleR = hulp;

	CircleMinXD = CircleX - CircleR;
 168:	f2 0f 11 5c 24 20    	movsd  %xmm3,0x20(%esp)
	yy2 = SearchY2;

	if (CircleMaxXD + CircleMaxYD < xx4 + yy4)
		return 0;

	if (CircleMinXD + CircleMinYD > xx2 + yy2)
 16e:	f2 0f 10 5c 24 30    	movsd  0x30(%esp),%xmm3
 174:	f2 0f 58 5c 24 20    	addsd  0x20(%esp),%xmm3
	CircleMaxYD = CircleY + CircleR;

	xx4 = SearchX1;
	yy4 = SearchY1;

	xx2 = SearchX2;
 17a:	f3 0f 5a ea          	cvtss2sd %xmm2,%xmm5
	yy2 = SearchY2;

	if (CircleMaxXD + CircleMaxYD < xx4 + yy4)
		return 0;

	if (CircleMinXD + CircleMinYD > xx2 + yy2)
 17e:	f2 0f 11 5c 24 30    	movsd  %xmm3,0x30(%esp)

	xx4 = SearchX1;
	yy4 = SearchY1;

	xx2 = SearchX2;
	yy2 = SearchY2;
 184:	f3 0f 5a e1          	cvtss2sd %xmm1,%xmm4

	if (CircleMaxXD + CircleMaxYD < xx4 + yy4)
		return 0;

	if (CircleMinXD + CircleMinYD > xx2 + yy2)
 188:	f2 0f 10 dd          	movsd  %xmm5,%xmm3
 18c:	f2 0f 10 74 24 30    	movsd  0x30(%esp),%xmm6
 192:	f2 0f 58 dc          	addsd  %xmm4,%xmm3
 196:	66 0f 2e f3          	ucomisd %xmm3,%xmm6
 19a:	0f 87 a0 01 00 00    	ja     340 <_DiagTestCircle+0x340>
		return 0;

	if (-CircleMaxXD + CircleMinYD > -xx4 + yy4)
 1a0:	de e2                	fsubp  %st,%st(2)
 1a2:	d9 ca                	fxch   %st(2)
 1a4:	dc 64 24 28          	fsubl  0x28(%esp)
 1a8:	d9 c0                	fld    %st(0)
 1aa:	d9 ca                	fxch   %st(2)
 1ac:	db e9                	fucomi %st(1),%st
 1ae:	dd d9                	fstp   %st(1)
 1b0:	0f 87 9c 01 00 00    	ja     352 <_DiagTestCircle+0x352>
 1b6:	d9 ca                	fxch   %st(2)
		return 0;

	if (-CircleMinXD + CircleMaxYD < -xx2 + yy2)
 1b8:	dc 64 24 20          	fsubl  0x20(%esp)
 1bc:	f2 0f 10 f4          	movsd  %xmm4,%xmm6
 1c0:	f2 0f 5c f5          	subsd  %xmm5,%xmm6
 1c4:	f2 0f 11 74 24 20    	movsd  %xmm6,0x20(%esp)
 1ca:	dd 44 24 20          	fldl   0x20(%esp)
 1ce:	db e9                	fucomi %st(1),%st
 1d0:	0f 87 8c 01 00 00    	ja     362 <_DiagTestCircle+0x362>
 1d6:	d9 ca                	fxch   %st(2)
		return 0;

	if ((-CircleMinXD + CircleMaxYD <= -xx4 + yy4) && (-CircleMaxXD + CircleMinYD >= -xx2 + yy2)
 1d8:	db e9                	fucomi %st(1),%st
 1da:	dd d9                	fstp   %st(1)
 1dc:	d9 ca                	fxch   %st(2)
 1de:	0f 93 c2             	setae  %dl
 1e1:	df e9                	fucomip %st(1),%st
 1e3:	dd d8                	fstp   %st(0)
 1e5:	0f 93 c0             	setae  %al
 1e8:	21 d0                	and    %edx,%eax
	        && (CircleMinXD + CircleMinYD <= xx2 + yy2) && (CircleMaxXD + CircleMaxYD >= xx4 + yy4))
 1ea:	66 0f 2e 5c 24 30    	ucomisd 0x30(%esp),%xmm3
 1f0:	0f 93 c2             	setae  %dl
 1f3:	84 d0                	test   %dl,%al
 1f5:	0f 84 81 01 00 00    	je     37c <_DiagTestCircle+0x37c>
 1fb:	f2 0f 11 44 24 20    	movsd  %xmm0,0x20(%esp)
 201:	dd 44 24 20          	fldl   0x20(%esp)
 205:	df ed                	fucomip %st(5),%st
 207:	0f 82 73 01 00 00    	jb     380 <_DiagTestCircle+0x380>
 20d:	dd d8                	fstp   %st(0)
 20f:	dd d8                	fstp   %st(0)
 211:	dd d8                	fstp   %st(0)
 213:	dd d8                	fstp   %st(0)
 215:	dd d8                	fstp   %st(0)
 217:	eb 0e                	jmp    227 <_DiagTestCircle+0x227>
 219:	dd d8                	fstp   %st(0)
 21b:	dd d8                	fstp   %st(0)
 21d:	dd d8                	fstp   %st(0)
 21f:	eb 06                	jmp    227 <_DiagTestCircle+0x227>
 221:	dd d8                	fstp   %st(0)
 223:	dd d8                	fstp   %st(0)
 225:	dd d8                	fstp   %st(0)
		return 1;
 227:	b8 01 00 00 00       	mov    $0x1,%eax
 22c:	e9 43 01 00 00       	jmp    374 <_DiagTestCircle+0x374>

	xx1 = (SearchX1 - SearchY1 + SearchX2 + SearchY2) / 2;
 231:	f3 0f 10 7c 24 18    	movss  0x18(%esp),%xmm7
	yy1 = (-SearchX1 + SearchY1 + SearchX2 + SearchY2) / 2;
 237:	f3 0f 11 54 24 40    	movss  %xmm2,0x40(%esp)

	if ((-CircleMinXD + CircleMaxYD <= -xx4 + yy4) && (-CircleMaxXD + CircleMinYD >= -xx2 + yy2)
	        && (CircleMinXD + CircleMinYD <= xx2 + yy2) && (CircleMaxXD + CircleMaxYD >= xx4 + yy4))
		return 1;

	xx1 = (SearchX1 - SearchY1 + SearchX2 + SearchY2) / 2;
 23d:	f3 0f 10 44 24 10    	movss  0x10(%esp),%xmm0
 243:	f3 0f 5c c7          	subss  %xmm7,%xmm0
 247:	f3 0f 58 c2          	addss  %xmm2,%xmm0
 24b:	f3 0f 58 c1          	addss  %xmm1,%xmm0
 24f:	f3 0f 59 05 10 00 00 	mulss  0x10,%xmm0
 256:	00 
 257:	f3 0f 11 44 24 30    	movss  %xmm0,0x30(%esp)
 25d:	d9 44 24 30          	flds   0x30(%esp)
 261:	d9 cd                	fxch   %st(5)
	xx3 = (SearchX1 + SearchY1 + SearchX2 - SearchY2) / 2;
	yy3 = (SearchX1 + SearchY1 - SearchX2 + SearchY2) / 2;

	if ((CircleX + CircleY > xx2 + yy2) && (-CircleX + CircleY > -xx4 + yy4))
	{
		hulpx = CircleX - xx1;
 263:	dd 54 24 30          	fstl   0x30(%esp)
 267:	d9 cd                	fxch   %st(5)
 269:	f2 0f 10 44 24 30    	movsd  0x30(%esp),%xmm0
 26f:	dd 5c 24 30          	fstpl  0x30(%esp)
	if ((-CircleMinXD + CircleMaxYD <= -xx4 + yy4) && (-CircleMaxXD + CircleMinYD >= -xx2 + yy2)
	        && (CircleMinXD + CircleMinYD <= xx2 + yy2) && (CircleMaxXD + CircleMaxYD >= xx4 + yy4))
		return 1;

	xx1 = (SearchX1 - SearchY1 + SearchX2 + SearchY2) / 2;
	yy1 = (-SearchX1 + SearchY1 + SearchX2 + SearchY2) / 2;
 273:	d9 44 24 10          	flds   0x10(%esp)
 277:	d8 6c 24 18          	fsubrs 0x18(%esp)
	xx3 = (SearchX1 + SearchY1 + SearchX2 - SearchY2) / 2;
	yy3 = (SearchX1 + SearchY1 - SearchX2 + SearchY2) / 2;

	if ((CircleX + CircleY > xx2 + yy2) && (-CircleX + CircleY > -xx4 + yy4))
	{
		hulpx = CircleX - xx1;
 27b:	f2 0f 10 7c 24 30    	movsd  0x30(%esp),%xmm7
	if ((-CircleMinXD + CircleMaxYD <= -xx4 + yy4) && (-CircleMaxXD + CircleMinYD >= -xx2 + yy2)
	        && (CircleMinXD + CircleMinYD <= xx2 + yy2) && (CircleMaxXD + CircleMaxYD >= xx4 + yy4))
		return 1;

	xx1 = (SearchX1 - SearchY1 + SearchX2 + SearchY2) / 2;
	yy1 = (-SearchX1 + SearchY1 + SearchX2 + SearchY2) / 2;
 281:	d9 44 24 40          	flds   0x40(%esp)
 285:	f3 0f 11 4c 24 40    	movss  %xmm1,0x40(%esp)
 28b:	de c1                	faddp  %st,%st(1)
	xx3 = (SearchX1 + SearchY1 + SearchX2 - SearchY2) / 2;
	yy3 = (SearchX1 + SearchY1 - SearchX2 + SearchY2) / 2;

	if ((CircleX + CircleY > xx2 + yy2) && (-CircleX + CircleY > -xx4 + yy4))
	{
		hulpx = CircleX - xx1;
 28d:	f2 0f 5c c7          	subsd  %xmm7,%xmm0
		hulpy = CircleY - yy1;
		hulp = sqrt(hulpx * hulpx + hulpy * hulpy);
 291:	f2 0f 10 f8          	movsd  %xmm0,%xmm7
	if ((-CircleMinXD + CircleMaxYD <= -xx4 + yy4) && (-CircleMaxXD + CircleMinYD >= -xx2 + yy2)
	        && (CircleMinXD + CircleMinYD <= xx2 + yy2) && (CircleMaxXD + CircleMaxYD >= xx4 + yy4))
		return 1;

	xx1 = (SearchX1 - SearchY1 + SearchX2 + SearchY2) / 2;
	yy1 = (-SearchX1 + SearchY1 + SearchX2 + SearchY2) / 2;
 295:	d9 44 24 40          	flds   0x40(%esp)
 299:	de c1                	faddp  %st,%st(1)
 29b:	c7 44 24 40 00 00 00 	movl   $0x3f000000,0x40(%esp)
 2a2:	3f 

	if ((CircleX + CircleY > xx2 + yy2) && (-CircleX + CircleY > -xx4 + yy4))
	{
		hulpx = CircleX - xx1;
		hulpy = CircleY - yy1;
		hulp = sqrt(hulpx * hulpx + hulpy * hulpy);
 2a3:	f2 0f 59 f8          	mulsd  %xmm0,%xmm7
 2a7:	f2 0f 11 7c 24 30    	movsd  %xmm7,0x30(%esp)
	if ((-CircleMinXD + CircleMaxYD <= -xx4 + yy4) && (-CircleMaxXD + CircleMinYD >= -xx2 + yy2)
	        && (CircleMinXD + CircleMinYD <= xx2 + yy2) && (CircleMaxXD + CircleMaxYD >= xx4 + yy4))
		return 1;

	xx1 = (SearchX1 - SearchY1 + SearchX2 + SearchY2) / 2;
	yy1 = (-SearchX1 + SearchY1 + SearchX2 + SearchY2) / 2;
 2ad:	d9 44 24 40          	flds   0x40(%esp)
 2b1:	de c9                	fmulp  %st,%st(1)
	yy3 = (SearchX1 + SearchY1 - SearchX2 + SearchY2) / 2;

	if ((CircleX + CircleY > xx2 + yy2) && (-CircleX + CircleY > -xx4 + yy4))
	{
		hulpx = CircleX - xx1;
		hulpy = CircleY - yy1;
 2b3:	d8 ea                	fsubr  %st(2),%st
		hulp = sqrt(hulpx * hulpx + hulpy * hulpy);
 2b5:	dd 5c 24 40          	fstpl  0x40(%esp)
 2b9:	f2 0f 10 7c 24 40    	movsd  0x40(%esp),%xmm7
 2bf:	f2 0f 59 ff          	mulsd  %xmm7,%xmm7
 2c3:	f2 0f 11 7c 24 40    	movsd  %xmm7,0x40(%esp)
 2c9:	f2 0f 10 7c 24 30    	movsd  0x30(%esp),%xmm7
 2cf:	f2 0f 58 7c 24 40    	addsd  0x40(%esp),%xmm7
 2d5:	f2 0f 51 c7          	sqrtsd %xmm7,%xmm0
 2d9:	66 0f 2e c0          	ucomisd %xmm0,%xmm0
 2dd:	0f 8a 9a 03 00 00    	jp     67d <_DiagTestCircle+0x67d>

		if (hulp > CircleThickness)
 2e3:	f2 0f 11 44 24 30    	movsd  %xmm0,0x30(%esp)
 2e9:	dd 44 24 30          	fldl   0x30(%esp)
 2ed:	df ec                	fucomip %st(4),%st
 2ef:	0f 86 bf 00 00 00    	jbe    3b4 <_DiagTestCircle+0x3b4>
 2f5:	dd d8                	fstp   %st(0)
 2f7:	dd d8                	fstp   %st(0)
 2f9:	dd d8                	fstp   %st(0)
 2fb:	dd d8                	fstp   %st(0)
 2fd:	dd d8                	fstp   %st(0)
 2ff:	dd d8                	fstp   %st(0)
 301:	eb 6f                	jmp    372 <_DiagTestCircle+0x372>
 303:	dd d8                	fstp   %st(0)
 305:	dd d8                	fstp   %st(0)
 307:	dd d8                	fstp   %st(0)
 309:	eb 67                	jmp    372 <_DiagTestCircle+0x372>
 30b:	90                   	nop
 30c:	8d 74 26 00          	lea    0x0(%esi,%eiz,1),%esi
 310:	dd d8                	fstp   %st(0)
 312:	dd d8                	fstp   %st(0)
 314:	dd d8                	fstp   %st(0)
 316:	eb 5a                	jmp    372 <_DiagTestCircle+0x372>
 318:	dd d8                	fstp   %st(0)
 31a:	dd d8                	fstp   %st(0)
 31c:	dd d8                	fstp   %st(0)
 31e:	eb 52                	jmp    372 <_DiagTestCircle+0x372>
 320:	dd d8                	fstp   %st(0)
 322:	dd d8                	fstp   %st(0)
 324:	dd d8                	fstp   %st(0)
 326:	eb 4a                	jmp    372 <_DiagTestCircle+0x372>
 328:	dd d8                	fstp   %st(0)
 32a:	dd d8                	fstp   %st(0)
 32c:	dd d8                	fstp   %st(0)
 32e:	dd d8                	fstp   %st(0)
 330:	dd d8                	fstp   %st(0)
 332:	dd d8                	fstp   %st(0)
 334:	dd d8                	fstp   %st(0)
 336:	dd d8                	fstp   %st(0)
 338:	eb 38                	jmp    372 <_DiagTestCircle+0x372>
 33a:	8d b6 00 00 00 00    	lea    0x0(%esi),%esi
 340:	dd d8                	fstp   %st(0)
 342:	dd d8                	fstp   %st(0)
 344:	dd d8                	fstp   %st(0)
 346:	dd d8                	fstp   %st(0)
 348:	dd d8                	fstp   %st(0)
 34a:	dd d8                	fstp   %st(0)
 34c:	dd d8                	fstp   %st(0)
 34e:	dd d8                	fstp   %st(0)
 350:	eb 20                	jmp    372 <_DiagTestCircle+0x372>
 352:	dd d8                	fstp   %st(0)
 354:	dd d8                	fstp   %st(0)
 356:	dd d8                	fstp   %st(0)
 358:	dd d8                	fstp   %st(0)
 35a:	dd d8                	fstp   %st(0)
 35c:	dd d8                	fstp   %st(0)
 35e:	dd d8                	fstp   %st(0)
 360:	eb 10                	jmp    372 <_DiagTestCircle+0x372>
 362:	dd d8                	fstp   %st(0)
 364:	dd d8                	fstp   %st(0)
 366:	dd d8                	fstp   %st(0)
 368:	dd d8                	fstp   %st(0)
 36a:	dd d8                	fstp   %st(0)
 36c:	dd d8                	fstp   %st(0)
 36e:	dd d8                	fstp   %st(0)
 370:	dd d8                	fstp   %st(0)
	CircleXmax = CircleX + CircleThickness;
	CircleYmax = CircleY + CircleThickness;

	if ((CircleXmax < SearchMinX) || (CircleXmin > SearchMaxX) || (CircleYmax < SearchMinY)
	        || (CircleYmin > SearchMaxY))
		return 0;
 372:	31 c0                	xor    %eax,%eax
			return 0;
	}

	return 1;

}
 374:	81 c4 a8 00 00 00    	add    $0xa8,%esp
 37a:	5b                   	pop    %ebx
 37b:	c3                   	ret    
 37c:	d9 c9                	fxch   %st(1)
 37e:	eb 02                	jmp    382 <_DiagTestCircle+0x382>
 380:	d9 c9                	fxch   %st(1)
	yy1 = (-SearchX1 + SearchY1 + SearchX2 + SearchY2) / 2;

	xx3 = (SearchX1 + SearchY1 + SearchX2 - SearchY2) / 2;
	yy3 = (SearchX1 + SearchY1 - SearchX2 + SearchY2) / 2;

	if ((CircleX + CircleY > xx2 + yy2) && (-CircleX + CircleY > -xx4 + yy4))
 382:	dd 54 24 20          	fstl   0x20(%esp)
 386:	d9 cb                	fxch   %st(3)
 388:	f2 0f 10 7c 24 20    	movsd  0x20(%esp),%xmm7
 38e:	dd 54 24 20          	fstl   0x20(%esp)
 392:	f2 0f 10 44 24 20    	movsd  0x20(%esp),%xmm0
 398:	d9 c0                	fld    %st(0)
 39a:	f2 0f 58 f8          	addsd  %xmm0,%xmm7
 39e:	f2 0f 11 7c 24 20    	movsd  %xmm7,0x20(%esp)
 3a4:	66 0f 2e fb          	ucomisd %xmm3,%xmm7
 3a8:	d8 e4                	fsub   %st(4),%st
 3aa:	76 08                	jbe    3b4 <_DiagTestCircle+0x3b4>
 3ac:	db ea                	fucomi %st(2),%st
 3ae:	0f 87 7d fe ff ff    	ja     231 <_DiagTestCircle+0x231>

		if (hulp > CircleThickness)
			return 0;
	}

	if ((-CircleX + CircleY < -xx2 + yy2) && (CircleX + CircleY < xx4 + yy4))
 3b4:	dd 44 24 20          	fldl   0x20(%esp)
 3b8:	d9 ce                	fxch   %st(6)
 3ba:	f2 0f 11 74 24 30    	movsd  %xmm6,0x30(%esp)
 3c0:	df ee                	fucomip %st(6),%st
 3c2:	dd dd                	fstp   %st(5)
 3c4:	dd 44 24 30          	fldl   0x30(%esp)
 3c8:	0f 97 c3             	seta   %bl
 3cb:	df ed                	fucomip %st(5),%st
 3cd:	0f 97 c0             	seta   %al
 3d0:	76 0c                	jbe    3de <_DiagTestCircle+0x3de>
 3d2:	84 db                	test   %bl,%bl
 3d4:	0f 85 92 00 00 00    	jne    46c <_DiagTestCircle+0x46c>
 3da:	d9 cc                	fxch   %st(4)
 3dc:	eb 06                	jmp    3e4 <_DiagTestCircle+0x3e4>
 3de:	d9 cc                	fxch   %st(4)
 3e0:	eb 02                	jmp    3e4 <_DiagTestCircle+0x3e4>
 3e2:	d9 cc                	fxch   %st(4)

		if (hulp > CircleThickness)
			return 0;
	}

	if ((CircleX + CircleY < xx4 + yy4) && (-CircleX + CircleY > -xx4 + yy4))
 3e4:	df e9                	fucomip %st(1),%st
 3e6:	dd d8                	fstp   %st(0)
 3e8:	76 08                	jbe    3f2 <_DiagTestCircle+0x3f2>
 3ea:	84 db                	test   %bl,%bl
 3ec:	0f 85 2b 01 00 00    	jne    51d <_DiagTestCircle+0x51d>

		if (hulp > CircleThickness)
			return 0;
	}

	if ((-CircleX + CircleY < -xx2 + yy2) && (CircleX + CircleY > xx2 + yy2))
 3f2:	84 c0                	test   %al,%al
 3f4:	0f 84 1f fe ff ff    	je     219 <_DiagTestCircle+0x219>
 3fa:	f2 0f 10 54 24 20    	movsd  0x20(%esp),%xmm2
 400:	66 0f 2e d3          	ucomisd %xmm3,%xmm2
 404:	0f 86 17 fe ff ff    	jbe    221 <_DiagTestCircle+0x221>
	{
		hulpx = CircleX - xx2;
 40a:	f2 0f 11 6c 24 10    	movsd  %xmm5,0x10(%esp)
 410:	dd 44 24 10          	fldl   0x10(%esp)
 414:	de ea                	fsubrp %st,%st(2)
		hulpy = CircleY - yy2;
 416:	f2 0f 11 64 24 10    	movsd  %xmm4,0x10(%esp)
 41c:	dd 44 24 10          	fldl   0x10(%esp)
 420:	de eb                	fsubrp %st,%st(3)
 422:	d9 c9                	fxch   %st(1)
		hulp = sqrt(hulpx * hulpx + hulpy * hulpy);
 424:	dd 5c 24 10          	fstpl  0x10(%esp)
 428:	d9 c9                	fxch   %st(1)
 42a:	f2 0f 10 44 24 10    	movsd  0x10(%esp),%xmm0
 430:	dd 5c 24 10          	fstpl  0x10(%esp)
 434:	f2 0f 10 4c 24 10    	movsd  0x10(%esp),%xmm1
 43a:	f2 0f 59 c0          	mulsd  %xmm0,%xmm0
 43e:	f2 0f 59 c9          	mulsd  %xmm1,%xmm1
 442:	f2 0f 58 c1          	addsd  %xmm1,%xmm0
 446:	f2 0f 51 c8          	sqrtsd %xmm0,%xmm1
 44a:	66 0f 2e c9          	ucomisd %xmm1,%xmm1
 44e:	0f 8a 08 02 00 00    	jp     65c <_DiagTestCircle+0x65c>
	CircleXmax = CircleX + CircleThickness;
	CircleYmax = CircleY + CircleThickness;

	if ((CircleXmax < SearchMinX) || (CircleXmin > SearchMaxX) || (CircleYmax < SearchMinY)
	        || (CircleYmin > SearchMaxY))
		return 0;
 454:	31 c0                	xor    %eax,%eax
	{
		hulpx = CircleX - xx2;
		hulpy = CircleY - yy2;
		hulp = sqrt(hulpx * hulpx + hulpy * hulpy);

		if (hulp > CircleThickness)
 456:	f2 0f 11 4c 24 10    	movsd  %xmm1,0x10(%esp)
 45c:	dd 44 24 10          	fldl   0x10(%esp)
	CircleXmax = CircleX + CircleThickness;
	CircleYmax = CircleY + CircleThickness;

	if ((CircleXmax < SearchMinX) || (CircleXmin > SearchMaxX) || (CircleYmax < SearchMinY)
	        || (CircleYmin > SearchMaxY))
		return 0;
 460:	df e9                	fucomip %st(1),%st
 462:	dd d8                	fstp   %st(0)
 464:	0f 96 c0             	setbe  %al
 467:	e9 08 ff ff ff       	jmp    374 <_DiagTestCircle+0x374>
		return 1;

	xx1 = (SearchX1 - SearchY1 + SearchX2 + SearchY2) / 2;
	yy1 = (-SearchX1 + SearchY1 + SearchX2 + SearchY2) / 2;

	xx3 = (SearchX1 + SearchY1 + SearchX2 - SearchY2) / 2;
 46c:	f3 0f 10 44 24 18    	movss  0x18(%esp),%xmm0
 472:	f3 0f 58 44 24 10    	addss  0x10(%esp),%xmm0
 478:	f3 0f 10 f2          	movss  %xmm2,%xmm6
 47c:	f3 0f 58 f0          	addss  %xmm0,%xmm6
 480:	f3 0f 11 74 24 10    	movss  %xmm6,0x10(%esp)
 486:	d9 44 24 10          	flds   0x10(%esp)
 48a:	f3 0f 11 4c 24 10    	movss  %xmm1,0x10(%esp)
 490:	d9 44 24 10          	flds   0x10(%esp)
 494:	de e9                	fsubrp %st,%st(1)
	yy3 = (SearchX1 + SearchY1 - SearchX2 + SearchY2) / 2;
 496:	f3 0f 5c c2          	subss  %xmm2,%xmm0
 49a:	f3 0f 58 c8          	addss  %xmm0,%xmm1
		return 1;

	xx1 = (SearchX1 - SearchY1 + SearchX2 + SearchY2) / 2;
	yy1 = (-SearchX1 + SearchY1 + SearchX2 + SearchY2) / 2;

	xx3 = (SearchX1 + SearchY1 + SearchX2 - SearchY2) / 2;
 49e:	d9 05 10 00 00 00    	flds   0x10
	yy3 = (SearchX1 + SearchY1 - SearchX2 + SearchY2) / 2;
 4a4:	f3 0f 11 4c 24 10    	movss  %xmm1,0x10(%esp)
		return 1;

	xx1 = (SearchX1 - SearchY1 + SearchX2 + SearchY2) / 2;
	yy1 = (-SearchX1 + SearchY1 + SearchX2 + SearchY2) / 2;

	xx3 = (SearchX1 + SearchY1 + SearchX2 - SearchY2) / 2;
 4aa:	dc c9                	fmul   %st,%st(1)
 4ac:	d9 c9                	fxch   %st(1)
			return 0;
	}

	if ((-CircleX + CircleY < -xx2 + yy2) && (CircleX + CircleY < xx4 + yy4))
	{
		hulpx = CircleX - xx3;
 4ae:	d8 ed                	fsubr  %st(5),%st

	xx1 = (SearchX1 - SearchY1 + SearchX2 + SearchY2) / 2;
	yy1 = (-SearchX1 + SearchY1 + SearchX2 + SearchY2) / 2;

	xx3 = (SearchX1 + SearchY1 + SearchX2 - SearchY2) / 2;
	yy3 = (SearchX1 + SearchY1 - SearchX2 + SearchY2) / 2;
 4b0:	d9 44 24 10          	flds   0x10(%esp)
 4b4:	de ca                	fmulp  %st,%st(2)
 4b6:	d9 c9                	fxch   %st(1)
	}

	if ((-CircleX + CircleY < -xx2 + yy2) && (CircleX + CircleY < xx4 + yy4))
	{
		hulpx = CircleX - xx3;
		hulpy = CircleY - yy3;
 4b8:	d8 ea                	fsubr  %st(2),%st
 4ba:	d9 c9                	fxch   %st(1)
		hulp = sqrt(hulpx * hulpx + hulpy * hulpy);
 4bc:	dd 5c 24 10          	fstpl  0x10(%esp)
 4c0:	f2 0f 10 54 24 10    	movsd  0x10(%esp),%xmm2
 4c6:	dd 5c 24 18          	fstpl  0x18(%esp)
 4ca:	f2 0f 59 d2          	mulsd  %xmm2,%xmm2
 4ce:	f2 0f 11 54 24 10    	movsd  %xmm2,0x10(%esp)
 4d4:	f2 0f 10 54 24 18    	movsd  0x18(%esp),%xmm2
 4da:	f2 0f 10 4c 24 10    	movsd  0x10(%esp),%xmm1
 4e0:	f2 0f 59 d2          	mulsd  %xmm2,%xmm2
 4e4:	f2 0f 58 ca          	addsd  %xmm2,%xmm1
 4e8:	f2 0f 11 54 24 18    	movsd  %xmm2,0x18(%esp)
 4ee:	f2 0f 51 c1          	sqrtsd %xmm1,%xmm0
 4f2:	66 0f 2e c0          	ucomisd %xmm0,%xmm0
 4f6:	0f 8a 8c 00 00 00    	jp     588 <_DiagTestCircle+0x588>

		if (hulp > CircleThickness)
 4fc:	f2 0f 11 44 24 10    	movsd  %xmm0,0x10(%esp)
 502:	dd 44 24 10          	fldl   0x10(%esp)
 506:	df eb                	fucomip %st(3),%st
 508:	0f 86 d4 fe ff ff    	jbe    3e2 <_DiagTestCircle+0x3e2>
 50e:	dd d8                	fstp   %st(0)
 510:	dd d8                	fstp   %st(0)
 512:	dd d8                	fstp   %st(0)
 514:	dd d8                	fstp   %st(0)
 516:	dd d8                	fstp   %st(0)
 518:	e9 55 fe ff ff       	jmp    372 <_DiagTestCircle+0x372>
			return 0;
	}

	if ((CircleX + CircleY < xx4 + yy4) && (-CircleX + CircleY > -xx4 + yy4))
	{
		hulpx = CircleX - xx4;
 51d:	dd 44 24 28          	fldl   0x28(%esp)
 521:	d8 ea                	fsubr  %st(2),%st
		hulpy = CircleY - yy4;
 523:	dd 44 24 38          	fldl   0x38(%esp)
 527:	d8 ec                	fsubr  %st(4),%st
 529:	d9 c9                	fxch   %st(1)
		hulp = sqrt(hulpx * hulpx + hulpy * hulpy);
 52b:	dd 5c 24 10          	fstpl  0x10(%esp)
 52f:	f2 0f 10 54 24 10    	movsd  0x10(%esp),%xmm2
 535:	dd 5c 24 18          	fstpl  0x18(%esp)
 539:	f2 0f 59 d2          	mulsd  %xmm2,%xmm2
 53d:	f2 0f 11 54 24 10    	movsd  %xmm2,0x10(%esp)
 543:	f2 0f 10 54 24 18    	movsd  0x18(%esp),%xmm2
 549:	f2 0f 10 4c 24 10    	movsd  0x10(%esp),%xmm1
 54f:	f2 0f 59 d2          	mulsd  %xmm2,%xmm2
 553:	f2 0f 58 ca          	addsd  %xmm2,%xmm1
 557:	f2 0f 11 54 24 18    	movsd  %xmm2,0x18(%esp)
 55d:	f2 0f 51 c1          	sqrtsd %xmm1,%xmm0
 561:	66 0f 2e c0          	ucomisd %xmm0,%xmm0
 565:	0f 8a 92 00 00 00    	jp     5fd <_DiagTestCircle+0x5fd>

		if (hulp > CircleThickness)
 56b:	f2 0f 11 44 24 10    	movsd  %xmm0,0x10(%esp)
 571:	dd 44 24 10          	fldl   0x10(%esp)
 575:	df e9                	fucomip %st(1),%st
 577:	0f 86 75 fe ff ff    	jbe    3f2 <_DiagTestCircle+0x3f2>
 57d:	dd d8                	fstp   %st(0)
 57f:	dd d8                	fstp   %st(0)
 581:	dd d8                	fstp   %st(0)
 583:	e9 ea fd ff ff       	jmp    372 <_DiagTestCircle+0x372>
 588:	dd 5c 24 70          	fstpl  0x70(%esp)
 58c:	d9 ca                	fxch   %st(2)
 58e:	f2 0f 11 5c 24 48    	movsd  %xmm3,0x48(%esp)
 594:	f2 0f 11 64 24 40    	movsd  %xmm4,0x40(%esp)
 59a:	f2 0f 11 6c 24 30    	movsd  %xmm5,0x30(%esp)
 5a0:	88 44 24 60          	mov    %al,0x60(%esp)

	if ((-CircleX + CircleY < -xx2 + yy2) && (CircleX + CircleY < xx4 + yy4))
	{
		hulpx = CircleX - xx3;
		hulpy = CircleY - yy3;
		hulp = sqrt(hulpx * hulpx + hulpy * hulpy);
 5a4:	f2 0f 11 0c 24       	movsd  %xmm1,(%esp)
 5a9:	dd 5c 24 68          	fstpl  0x68(%esp)
 5ad:	d9 ca                	fxch   %st(2)
 5af:	dd 5c 24 58          	fstpl  0x58(%esp)
 5b3:	dd 5c 24 50          	fstpl  0x50(%esp)
 5b7:	dd 5c 24 18          	fstpl  0x18(%esp)
 5bb:	e8 00 00 00 00       	call   5c0 <_DiagTestCircle+0x5c0>
 5c0:	8a 44 24 60          	mov    0x60(%esp),%al
 5c4:	f2 0f 10 5c 24 48    	movsd  0x48(%esp),%xmm3
 5ca:	dd 5c 24 10          	fstpl  0x10(%esp)
 5ce:	dd 44 24 70          	fldl   0x70(%esp)
 5d2:	dd 44 24 68          	fldl   0x68(%esp)
 5d6:	dd 44 24 58          	fldl   0x58(%esp)
 5da:	dd 44 24 50          	fldl   0x50(%esp)
 5de:	f2 0f 10 44 24 10    	movsd  0x10(%esp),%xmm0
 5e4:	f2 0f 10 64 24 40    	movsd  0x40(%esp),%xmm4
 5ea:	f2 0f 10 6c 24 30    	movsd  0x30(%esp),%xmm5
 5f0:	dd 44 24 18          	fldl   0x18(%esp)
 5f4:	d9 ca                	fxch   %st(2)
 5f6:	d9 cc                	fxch   %st(4)
 5f8:	e9 ff fe ff ff       	jmp    4fc <_DiagTestCircle+0x4fc>
 5fd:	d9 ca                	fxch   %st(2)
 5ff:	dd 5c 24 50          	fstpl  0x50(%esp)
 603:	f2 0f 11 5c 24 38    	movsd  %xmm3,0x38(%esp)
 609:	f2 0f 11 64 24 30    	movsd  %xmm4,0x30(%esp)
 60f:	f2 0f 11 6c 24 28    	movsd  %xmm5,0x28(%esp)
 615:	88 44 24 40          	mov    %al,0x40(%esp)

	if ((CircleX + CircleY < xx4 + yy4) && (-CircleX + CircleY > -xx4 + yy4))
	{
		hulpx = CircleX - xx4;
		hulpy = CircleY - yy4;
		hulp = sqrt(hulpx * hulpx + hulpy * hulpy);
 619:	f2 0f 11 0c 24       	movsd  %xmm1,(%esp)
 61e:	dd 5c 24 48          	fstpl  0x48(%esp)
 622:	dd 5c 24 18          	fstpl  0x18(%esp)
 626:	e8 00 00 00 00       	call   62b <_DiagTestCircle+0x62b>
 62b:	8a 44 24 40          	mov    0x40(%esp),%al
 62f:	f2 0f 10 5c 24 38    	movsd  0x38(%esp),%xmm3
 635:	dd 5c 24 10          	fstpl  0x10(%esp)
 639:	dd 44 24 50          	fldl   0x50(%esp)
 63d:	dd 44 24 48          	fldl   0x48(%esp)
 641:	f2 0f 10 44 24 10    	movsd  0x10(%esp),%xmm0
 647:	f2 0f 10 64 24 30    	movsd  0x30(%esp),%xmm4
 64d:	f2 0f 10 6c 24 28    	movsd  0x28(%esp),%xmm5
 653:	dd 44 24 18          	fldl   0x18(%esp)
 657:	e9 0f ff ff ff       	jmp    56b <_DiagTestCircle+0x56b>
 65c:	dd 5c 24 18          	fstpl  0x18(%esp)

	if ((-CircleX + CircleY < -xx2 + yy2) && (CircleX + CircleY > xx2 + yy2))
	{
		hulpx = CircleX - xx2;
		hulpy = CircleY - yy2;
		hulp = sqrt(hulpx * hulpx + hulpy * hulpy);
 660:	f2 0f 11 04 24       	movsd  %xmm0,(%esp)
 665:	e8 00 00 00 00       	call   66a <_DiagTestCircle+0x66a>
 66a:	dd 5c 24 10          	fstpl  0x10(%esp)
 66e:	f2 0f 10 4c 24 10    	movsd  0x10(%esp),%xmm1
 674:	dd 44 24 18          	fldl   0x18(%esp)
 678:	e9 d7 fd ff ff       	jmp    454 <_DiagTestCircle+0x454>
 67d:	d9 c9                	fxch   %st(1)
 67f:	dd 9c 24 98 00 00 00 	fstpl  0x98(%esp)
 686:	d9 cb                	fxch   %st(3)
 688:	f2 0f 11 b4 24 80 00 	movsd  %xmm6,0x80(%esp)
 68f:	00 00 
 691:	f2 0f 11 5c 24 70    	movsd  %xmm3,0x70(%esp)
 697:	f2 0f 11 64 24 60    	movsd  %xmm4,0x60(%esp)
 69d:	f3 0f 11 4c 24 58    	movss  %xmm1,0x58(%esp)
 6a3:	f2 0f 11 6c 24 50    	movsd  %xmm5,0x50(%esp)
 6a9:	dd 9c 24 90 00 00 00 	fstpl  0x90(%esp)
 6b0:	d9 ca                	fxch   %st(2)
 6b2:	f3 0f 11 54 24 48    	movss  %xmm2,0x48(%esp)

	if ((CircleX + CircleY > xx2 + yy2) && (-CircleX + CircleY > -xx4 + yy4))
	{
		hulpx = CircleX - xx1;
		hulpy = CircleY - yy1;
		hulp = sqrt(hulpx * hulpx + hulpy * hulpy);
 6b8:	f2 0f 11 3c 24       	movsd  %xmm7,(%esp)
 6bd:	dd 9c 24 88 00 00 00 	fstpl  0x88(%esp)
 6c4:	d9 c9                	fxch   %st(1)
 6c6:	dd 5c 24 78          	fstpl  0x78(%esp)
 6ca:	d9 c9                	fxch   %st(1)
 6cc:	dd 5c 24 68          	fstpl  0x68(%esp)
 6d0:	dd 5c 24 40          	fstpl  0x40(%esp)
 6d4:	e8 00 00 00 00       	call   6d9 <_DiagTestCircle+0x6d9>
 6d9:	f2 0f 10 b4 24 80 00 	movsd  0x80(%esp),%xmm6
 6e0:	00 00 
 6e2:	dd 5c 24 30          	fstpl  0x30(%esp)
 6e6:	dd 84 24 98 00 00 00 	fldl   0x98(%esp)
 6ed:	dd 84 24 90 00 00 00 	fldl   0x90(%esp)
 6f4:	dd 84 24 88 00 00 00 	fldl   0x88(%esp)
 6fb:	dd 44 24 78          	fldl   0x78(%esp)
 6ff:	dd 44 24 68          	fldl   0x68(%esp)
 703:	f2 0f 10 44 24 30    	movsd  0x30(%esp),%xmm0
 709:	f2 0f 10 5c 24 70    	movsd  0x70(%esp),%xmm3
 70f:	f2 0f 10 64 24 60    	movsd  0x60(%esp),%xmm4
 715:	f3 0f 10 4c 24 58    	movss  0x58(%esp),%xmm1
 71b:	f2 0f 10 6c 24 50    	movsd  0x50(%esp),%xmm5
 721:	f3 0f 10 54 24 48    	movss  0x48(%esp),%xmm2
 727:	dd 44 24 40          	fldl   0x40(%esp)
 72b:	d9 cb                	fxch   %st(3)
 72d:	d9 c9                	fxch   %st(1)
 72f:	d9 cd                	fxch   %st(5)
 731:	d9 c9                	fxch   %st(1)
 733:	e9 ab fb ff ff       	jmp    2e3 <_DiagTestCircle+0x2e3>
 738:	90                   	nop
 739:	8d b4 26 00 00 00 00 	lea    0x0(%esi,%eiz,1),%esi

00000740 <_DiagTestRect>:
// ***************************************************************************************************
// ***************************************************************************************************
// ***************************************************************************************************

int32 DiagTestRect(double RectXmin, double RectYmin, double RectXmax, double RectYmax)
{
 740:	83 ec 0c             	sub    $0xc,%esp
	if ((RectXmax < SearchMinX) || (RectXmin > SearchMaxX) || (RectYmax < SearchMinY) || (RectYmin > SearchMaxY))
		return 0;
 743:	31 c0                	xor    %eax,%eax
// ***************************************************************************************************
// ***************************************************************************************************

int32 DiagTestRect(double RectXmin, double RectYmin, double RectXmax, double RectYmax)
{
	if ((RectXmax < SearchMinX) || (RectXmin > SearchMaxX) || (RectYmax < SearchMinY) || (RectYmin > SearchMaxY))
 745:	f3 0f 5a 05 00 00 00 	cvtss2sd 0x0,%xmm0
 74c:	00 
// ***************************************************************************************************
// ***************************************************************************************************
// ***************************************************************************************************

int32 DiagTestRect(double RectXmin, double RectYmin, double RectXmax, double RectYmax)
{
 74d:	dd 44 24 10          	fldl   0x10(%esp)
	if ((RectXmax < SearchMinX) || (RectXmin > SearchMaxX) || (RectYmax < SearchMinY) || (RectYmin > SearchMaxY))
 751:	f2 0f 11 04 24       	movsd  %xmm0,(%esp)
// ***************************************************************************************************
// ***************************************************************************************************
// ***************************************************************************************************

int32 DiagTestRect(double RectXmin, double RectYmin, double RectXmax, double RectYmax)
{
 756:	dd 44 24 18          	fldl   0x18(%esp)
 75a:	dd 44 24 20          	fldl   0x20(%esp)
 75e:	dd 44 24 28          	fldl   0x28(%esp)
	if ((RectXmax < SearchMinX) || (RectXmin > SearchMaxX) || (RectYmax < SearchMinY) || (RectYmin > SearchMaxY))
 762:	dd 04 24             	fldl   (%esp)
 765:	df ea                	fucomip %st(2),%st
 767:	0f 87 03 01 00 00    	ja     870 <_DiagTestRect+0x130>
 76d:	f3 0f 5a 05 00 00 00 	cvtss2sd 0x0,%xmm0
 774:	00 
 775:	f2 0f 11 04 24       	movsd  %xmm0,(%esp)
 77a:	dd 04 24             	fldl   (%esp)
 77d:	d9 cc                	fxch   %st(4)
 77f:	db ec                	fucomi %st(4),%st
 781:	dd dc                	fstp   %st(4)
 783:	0f 87 f7 00 00 00    	ja     880 <_DiagTestRect+0x140>
 789:	f3 0f 5a 05 00 00 00 	cvtss2sd 0x0,%xmm0
 790:	00 
 791:	f2 0f 11 04 24       	movsd  %xmm0,(%esp)
 796:	dd 04 24             	fldl   (%esp)
 799:	df e9                	fucomip %st(1),%st
 79b:	0f 87 ef 00 00 00    	ja     890 <_DiagTestRect+0x150>
 7a1:	f3 0f 5a 05 00 00 00 	cvtss2sd 0x0,%xmm0
 7a8:	00 
 7a9:	f2 0f 11 04 24       	movsd  %xmm0,(%esp)
 7ae:	dd 04 24             	fldl   (%esp)
 7b1:	d9 cb                	fxch   %st(3)
 7b3:	db eb                	fucomi %st(3),%st
 7b5:	dd db                	fstp   %st(3)
 7b7:	0f 87 e3 00 00 00    	ja     8a0 <_DiagTestRect+0x160>
 7bd:	d9 c9                	fxch   %st(1)
		return 0;

	if (RectXmax + RectYmax < SearchX1 + SearchY1)
 7bf:	dd 14 24             	fstl   (%esp)
 7c2:	d9 c9                	fxch   %st(1)
 7c4:	f3 0f 10 1d 00 00 00 	movss  0x0,%xmm3
 7cb:	00 
 7cc:	f2 0f 10 04 24       	movsd  (%esp),%xmm0
 7d1:	dd 14 24             	fstl   (%esp)
 7d4:	f3 0f 10 15 00 00 00 	movss  0x0,%xmm2
 7db:	00 
 7dc:	f3 0f 10 cb          	movss  %xmm3,%xmm1
 7e0:	f2 0f 10 34 24       	movsd  (%esp),%xmm6
 7e5:	f3 0f 58 ca          	addss  %xmm2,%xmm1
 7e9:	f3 0f 5a c9          	cvtss2sd %xmm1,%xmm1
 7ed:	f2 0f 58 c6          	addsd  %xmm6,%xmm0
 7f1:	66 0f 2e c8          	ucomisd %xmm0,%xmm1
 7f5:	0f 87 b5 00 00 00    	ja     8b0 <_DiagTestRect+0x170>
 7fb:	d9 cb                	fxch   %st(3)
		return 0;

	if (RectXmin + RectYmin > SearchX2 + SearchY2)
 7fd:	dd 14 24             	fstl   (%esp)
 800:	d9 ca                	fxch   %st(2)
 802:	f3 0f 10 2d 00 00 00 	movss  0x0,%xmm5
 809:	00 
 80a:	f2 0f 10 0c 24       	movsd  (%esp),%xmm1
 80f:	dd 14 24             	fstl   (%esp)
 812:	f3 0f 10 25 00 00 00 	movss  0x0,%xmm4
 819:	00 
 81a:	f3 0f 10 c5          	movss  %xmm5,%xmm0
 81e:	f2 0f 10 3c 24       	movsd  (%esp),%xmm7
 823:	f3 0f 58 c4          	addss  %xmm4,%xmm0
 827:	f3 0f 5a c0          	cvtss2sd %xmm0,%xmm0
 82b:	f2 0f 58 cf          	addsd  %xmm7,%xmm1
 82f:	66 0f 2e c8          	ucomisd %xmm0,%xmm1
 833:	0f 87 87 00 00 00    	ja     8c0 <_DiagTestRect+0x180>
		return 0;

	if (-RectXmax + RectYmin > -SearchX1 + SearchY1)
 839:	de e1                	fsubp  %st,%st(1)
 83b:	f3 0f 5c d3          	subss  %xmm3,%xmm2
 83f:	f3 0f 5a d2          	cvtss2sd %xmm2,%xmm2
 843:	f2 0f 11 14 24       	movsd  %xmm2,(%esp)
 848:	dd 04 24             	fldl   (%esp)
 84b:	d9 c9                	fxch   %st(1)
 84d:	df e9                	fucomip %st(1),%st
 84f:	dd d8                	fstp   %st(0)
 851:	77 7d                	ja     8d0 <_DiagTestRect+0x190>
		return 0;

	if (-RectXmin + RectYmax < -SearchX2 + SearchY2)
 853:	de e9                	fsubrp %st,%st(1)
// ***************************************************************************************************

int32 DiagTestRect(double RectXmin, double RectYmin, double RectXmax, double RectYmax)
{
	if ((RectXmax < SearchMinX) || (RectXmin > SearchMaxX) || (RectYmax < SearchMinY) || (RectYmin > SearchMaxY))
		return 0;
 855:	31 c0                	xor    %eax,%eax
		return 0;

	if (-RectXmax + RectYmin > -SearchX1 + SearchY1)
		return 0;

	if (-RectXmin + RectYmax < -SearchX2 + SearchY2)
 857:	f3 0f 5c e5          	subss  %xmm5,%xmm4
 85b:	f3 0f 5a e4          	cvtss2sd %xmm4,%xmm4
 85f:	f2 0f 11 24 24       	movsd  %xmm4,(%esp)
 864:	dd 04 24             	fldl   (%esp)
// ***************************************************************************************************

int32 DiagTestRect(double RectXmin, double RectYmin, double RectXmax, double RectYmax)
{
	if ((RectXmax < SearchMinX) || (RectXmin > SearchMaxX) || (RectYmax < SearchMinY) || (RectYmin > SearchMaxY))
		return 0;
 867:	df e9                	fucomip %st(1),%st
 869:	dd d8                	fstp   %st(0)
 86b:	0f 96 c0             	setbe  %al
 86e:	eb 64                	jmp    8d4 <_DiagTestRect+0x194>
 870:	dd d8                	fstp   %st(0)
 872:	dd d8                	fstp   %st(0)
 874:	dd d8                	fstp   %st(0)
 876:	dd d8                	fstp   %st(0)
 878:	eb 5a                	jmp    8d4 <_DiagTestRect+0x194>
 87a:	8d b6 00 00 00 00    	lea    0x0(%esi),%esi
 880:	dd d8                	fstp   %st(0)
 882:	dd d8                	fstp   %st(0)
 884:	dd d8                	fstp   %st(0)
 886:	dd d8                	fstp   %st(0)
 888:	eb 4a                	jmp    8d4 <_DiagTestRect+0x194>
 88a:	8d b6 00 00 00 00    	lea    0x0(%esi),%esi
 890:	dd d8                	fstp   %st(0)
 892:	dd d8                	fstp   %st(0)
 894:	dd d8                	fstp   %st(0)
 896:	dd d8                	fstp   %st(0)
 898:	eb 3a                	jmp    8d4 <_DiagTestRect+0x194>
 89a:	8d b6 00 00 00 00    	lea    0x0(%esi),%esi
 8a0:	dd d8                	fstp   %st(0)
 8a2:	dd d8                	fstp   %st(0)
 8a4:	dd d8                	fstp   %st(0)
 8a6:	dd d8                	fstp   %st(0)
 8a8:	eb 2a                	jmp    8d4 <_DiagTestRect+0x194>
 8aa:	8d b6 00 00 00 00    	lea    0x0(%esi),%esi
 8b0:	dd d8                	fstp   %st(0)
 8b2:	dd d8                	fstp   %st(0)
 8b4:	dd d8                	fstp   %st(0)
 8b6:	dd d8                	fstp   %st(0)
 8b8:	eb 1a                	jmp    8d4 <_DiagTestRect+0x194>
 8ba:	8d b6 00 00 00 00    	lea    0x0(%esi),%esi
 8c0:	dd d8                	fstp   %st(0)
 8c2:	dd d8                	fstp   %st(0)
 8c4:	dd d8                	fstp   %st(0)
 8c6:	dd d8                	fstp   %st(0)
 8c8:	eb 0a                	jmp    8d4 <_DiagTestRect+0x194>
 8ca:	8d b6 00 00 00 00    	lea    0x0(%esi),%esi
 8d0:	dd d8                	fstp   %st(0)
 8d2:	dd d8                	fstp   %st(0)
	if (-RectXmin + RectYmax < -SearchX2 + SearchY2)
		return 0;

	return 1;

}
 8d4:	83 c4 0c             	add    $0xc,%esp
 8d7:	c3                   	ret    
 8d8:	90                   	nop
 8d9:	8d b4 26 00 00 00 00 	lea    0x0(%esi,%eiz,1),%esi

000008e0 <_DiagTestRect2>:
// ***************************************************************************************************
// ***************************************************************************************************
// ***************************************************************************************************

int32 DiagTestRect2(double RectX, double RectY, double RectWidth, double RectHeight)
{
 8e0:	83 ec 0c             	sub    $0xc,%esp
	RectYmin = RectY - RectHeight;
	RectXmax = RectX + RectWidth;
	RectYmax = RectY + RectHeight;

	if ((RectXmax < SearchMinX) || (RectXmin > SearchMaxX) || (RectYmax < SearchMinY) || (RectYmin > SearchMaxY))
		return 0;
 8e3:	31 c0                	xor    %eax,%eax
	RectXmin = RectX - RectWidth;
	RectYmin = RectY - RectHeight;
	RectXmax = RectX + RectWidth;
	RectYmax = RectY + RectHeight;

	if ((RectXmax < SearchMinX) || (RectXmin > SearchMaxX) || (RectYmax < SearchMinY) || (RectYmin > SearchMaxY))
 8e5:	f3 0f 5a 15 00 00 00 	cvtss2sd 0x0,%xmm2
 8ec:	00 
// ***************************************************************************************************
// ***************************************************************************************************
// ***************************************************************************************************

int32 DiagTestRect2(double RectX, double RectY, double RectWidth, double RectHeight)
{
 8ed:	dd 44 24 28          	fldl   0x28(%esp)
	double RectXmin, RectXmax, RectYmin, RectYmax;

	RectWidth = RectWidth / 2;
 8f1:	dd 05 00 00 00 00    	fldl   0x0
 8f7:	dc 4c 24 20          	fmull  0x20(%esp)
// ***************************************************************************************************
// ***************************************************************************************************
// ***************************************************************************************************

int32 DiagTestRect2(double RectX, double RectY, double RectWidth, double RectHeight)
{
 8fb:	f2 0f 10 44 24 10    	movsd  0x10(%esp),%xmm0

	RectWidth = RectWidth / 2;
	RectHeight = RectHeight / 2;
	RectXmin = RectX - RectWidth;
	RectYmin = RectY - RectHeight;
	RectXmax = RectX + RectWidth;
 901:	f2 0f 11 04 24       	movsd  %xmm0,(%esp)
 906:	dd 04 24             	fldl   (%esp)
 909:	d8 c1                	fadd   %st(1),%st
// ***************************************************************************************************
// ***************************************************************************************************
// ***************************************************************************************************

int32 DiagTestRect2(double RectX, double RectY, double RectWidth, double RectHeight)
{
 90b:	f2 0f 10 4c 24 18    	movsd  0x18(%esp),%xmm1
	RectXmin = RectX - RectWidth;
	RectYmin = RectY - RectHeight;
	RectXmax = RectX + RectWidth;
	RectYmax = RectY + RectHeight;

	if ((RectXmax < SearchMinX) || (RectXmin > SearchMaxX) || (RectYmax < SearchMinY) || (RectYmin > SearchMaxY))
 911:	dd 14 24             	fstl   (%esp)
 914:	f2 0f 10 34 24       	movsd  (%esp),%xmm6
 919:	66 0f 2e d6          	ucomisd %xmm6,%xmm2
 91d:	0f 87 1d 01 00 00    	ja     a40 <_DiagTestRect2+0x160>
{
	double RectXmin, RectXmax, RectYmin, RectYmax;

	RectWidth = RectWidth / 2;
	RectHeight = RectHeight / 2;
	RectXmin = RectX - RectWidth;
 923:	f2 0f 11 04 24       	movsd  %xmm0,(%esp)
 928:	dd 04 24             	fldl   (%esp)
 92b:	de e2                	fsubp  %st,%st(2)
	RectYmin = RectY - RectHeight;
	RectXmax = RectX + RectWidth;
	RectYmax = RectY + RectHeight;

	if ((RectXmax < SearchMinX) || (RectXmin > SearchMaxX) || (RectYmax < SearchMinY) || (RectYmin > SearchMaxY))
 92d:	f3 0f 5a 05 00 00 00 	cvtss2sd 0x0,%xmm0
 934:	00 
{
	double RectXmin, RectXmax, RectYmin, RectYmax;

	RectWidth = RectWidth / 2;
	RectHeight = RectHeight / 2;
	RectXmin = RectX - RectWidth;
 935:	d9 c1                	fld    %st(1)
	RectYmin = RectY - RectHeight;
	RectXmax = RectX + RectWidth;
	RectYmax = RectY + RectHeight;

	if ((RectXmax < SearchMinX) || (RectXmin > SearchMaxX) || (RectYmax < SearchMinY) || (RectYmin > SearchMaxY))
 937:	dd 1c 24             	fstpl  (%esp)
 93a:	f2 0f 10 3c 24       	movsd  (%esp),%xmm7
 93f:	66 0f 2e f8          	ucomisd %xmm0,%xmm7
 943:	0f 87 ff 00 00 00    	ja     a48 <_DiagTestRect2+0x168>
 949:	d9 ca                	fxch   %st(2)
int32 DiagTestRect2(double RectX, double RectY, double RectWidth, double RectHeight)
{
	double RectXmin, RectXmax, RectYmin, RectYmax;

	RectWidth = RectWidth / 2;
	RectHeight = RectHeight / 2;
 94b:	dc 0d 00 00 00 00    	fmull  0x0
	RectXmin = RectX - RectWidth;
	RectYmin = RectY - RectHeight;
	RectXmax = RectX + RectWidth;
	RectYmax = RectY + RectHeight;
 951:	f2 0f 11 0c 24       	movsd  %xmm1,(%esp)

	if ((RectXmax < SearchMinX) || (RectXmin > SearchMaxX) || (RectYmax < SearchMinY) || (RectYmin > SearchMaxY))
 956:	f3 0f 5a 05 00 00 00 	cvtss2sd 0x0,%xmm0
 95d:	00 
	RectWidth = RectWidth / 2;
	RectHeight = RectHeight / 2;
	RectXmin = RectX - RectWidth;
	RectYmin = RectY - RectHeight;
	RectXmax = RectX + RectWidth;
	RectYmax = RectY + RectHeight;
 95e:	dd 04 24             	fldl   (%esp)
 961:	d8 c1                	fadd   %st(1),%st

	if ((RectXmax < SearchMinX) || (RectXmin > SearchMaxX) || (RectYmax < SearchMinY) || (RectYmin > SearchMaxY))
 963:	dd 14 24             	fstl   (%esp)
 966:	f2 0f 10 2c 24       	movsd  (%esp),%xmm5
 96b:	66 0f 2e c5          	ucomisd %xmm5,%xmm0
 96f:	0f 87 db 00 00 00    	ja     a50 <_DiagTestRect2+0x170>
	double RectXmin, RectXmax, RectYmin, RectYmax;

	RectWidth = RectWidth / 2;
	RectHeight = RectHeight / 2;
	RectXmin = RectX - RectWidth;
	RectYmin = RectY - RectHeight;
 975:	f2 0f 11 0c 24       	movsd  %xmm1,(%esp)
 97a:	dd 04 24             	fldl   (%esp)
 97d:	de e2                	fsubp  %st,%st(2)
	RectXmax = RectX + RectWidth;
	RectYmax = RectY + RectHeight;

	if ((RectXmax < SearchMinX) || (RectXmin > SearchMaxX) || (RectYmax < SearchMinY) || (RectYmin > SearchMaxY))
 97f:	f3 0f 5a 05 00 00 00 	cvtss2sd 0x0,%xmm0
 986:	00 
	double RectXmin, RectXmax, RectYmin, RectYmax;

	RectWidth = RectWidth / 2;
	RectHeight = RectHeight / 2;
	RectXmin = RectX - RectWidth;
	RectYmin = RectY - RectHeight;
 987:	d9 c1                	fld    %st(1)
	RectXmax = RectX + RectWidth;
	RectYmax = RectY + RectHeight;

	if ((RectXmax < SearchMinX) || (RectXmin > SearchMaxX) || (RectYmax < SearchMinY) || (RectYmin > SearchMaxY))
 989:	dd 14 24             	fstl   (%esp)
 98c:	f2 0f 10 24 24       	movsd  (%esp),%xmm4
 991:	66 0f 2e e0          	ucomisd %xmm0,%xmm4
 995:	0f 87 c5 00 00 00    	ja     a60 <_DiagTestRect2+0x180>
 99b:	d9 c9                	fxch   %st(1)
		return 0;

	if (RectXmax + RectYmax < SearchX1 + SearchY1)
 99d:	f3 0f 10 1d 00 00 00 	movss  0x0,%xmm3
 9a4:	00 
 9a5:	f3 0f 10 15 00 00 00 	movss  0x0,%xmm2
 9ac:	00 
 9ad:	f3 0f 10 cb          	movss  %xmm3,%xmm1
 9b1:	f3 0f 58 ca          	addss  %xmm2,%xmm1
 9b5:	f2 0f 10 c6          	movsd  %xmm6,%xmm0
 9b9:	f3 0f 5a c9          	cvtss2sd %xmm1,%xmm1
 9bd:	f2 0f 58 c5          	addsd  %xmm5,%xmm0
 9c1:	dd 14 24             	fstl   (%esp)
 9c4:	66 0f 2e c8          	ucomisd %xmm0,%xmm1
 9c8:	0f 87 a2 00 00 00    	ja     a70 <_DiagTestRect2+0x190>
 9ce:	d9 c9                	fxch   %st(1)
		return 0;

	if (RectXmin + RectYmin > SearchX2 + SearchY2)
 9d0:	f3 0f 10 2d 00 00 00 	movss  0x0,%xmm5
 9d7:	00 
 9d8:	dd 1c 24             	fstpl  (%esp)
 9db:	f3 0f 10 25 00 00 00 	movss  0x0,%xmm4
 9e2:	00 
 9e3:	f2 0f 10 cf          	movsd  %xmm7,%xmm1
 9e7:	f3 0f 10 c5          	movss  %xmm5,%xmm0
 9eb:	f2 0f 10 3c 24       	movsd  (%esp),%xmm7
 9f0:	f3 0f 58 c4          	addss  %xmm4,%xmm0
 9f4:	f3 0f 5a c0          	cvtss2sd %xmm0,%xmm0
 9f8:	f2 0f 58 cf          	addsd  %xmm7,%xmm1
 9fc:	66 0f 2e c8          	ucomisd %xmm0,%xmm1
 a00:	77 7e                	ja     a80 <_DiagTestRect2+0x1a0>
 a02:	d9 c9                	fxch   %st(1)
		return 0;

	if (-RectXmax + RectYmin > -SearchX1 + SearchY1)
 a04:	de e3                	fsubp  %st,%st(3)
 a06:	f3 0f 5c d3          	subss  %xmm3,%xmm2
 a0a:	f3 0f 5a d2          	cvtss2sd %xmm2,%xmm2
 a0e:	f2 0f 11 14 24       	movsd  %xmm2,(%esp)
 a13:	dd 04 24             	fldl   (%esp)
 a16:	d9 cb                	fxch   %st(3)
 a18:	df eb                	fucomip %st(3),%st
 a1a:	dd da                	fstp   %st(2)
 a1c:	77 72                	ja     a90 <_DiagTestRect2+0x1b0>
		return 0;

	if (-RectXmin + RectYmax < -SearchX2 + SearchY2)
 a1e:	de e9                	fsubrp %st,%st(1)
	RectYmin = RectY - RectHeight;
	RectXmax = RectX + RectWidth;
	RectYmax = RectY + RectHeight;

	if ((RectXmax < SearchMinX) || (RectXmin > SearchMaxX) || (RectYmax < SearchMinY) || (RectYmin > SearchMaxY))
		return 0;
 a20:	31 c0                	xor    %eax,%eax
		return 0;

	if (-RectXmax + RectYmin > -SearchX1 + SearchY1)
		return 0;

	if (-RectXmin + RectYmax < -SearchX2 + SearchY2)
 a22:	f3 0f 5c e5          	subss  %xmm5,%xmm4
 a26:	f3 0f 5a e4          	cvtss2sd %xmm4,%xmm4
 a2a:	f2 0f 11 24 24       	movsd  %xmm4,(%esp)
 a2f:	dd 04 24             	fldl   (%esp)
	RectYmin = RectY - RectHeight;
	RectXmax = RectX + RectWidth;
	RectYmax = RectY + RectHeight;

	if ((RectXmax < SearchMinX) || (RectXmin > SearchMaxX) || (RectYmax < SearchMinY) || (RectYmin > SearchMaxY))
		return 0;
 a32:	df e9                	fucomip %st(1),%st
 a34:	dd d8                	fstp   %st(0)
 a36:	0f 96 c0             	setbe  %al
 a39:	eb 59                	jmp    a94 <_DiagTestRect2+0x1b4>
 a3b:	90                   	nop
 a3c:	8d 74 26 00          	lea    0x0(%esi,%eiz,1),%esi
 a40:	dd d8                	fstp   %st(0)
 a42:	dd d8                	fstp   %st(0)
 a44:	dd d8                	fstp   %st(0)
 a46:	eb 4c                	jmp    a94 <_DiagTestRect2+0x1b4>
 a48:	dd d8                	fstp   %st(0)
 a4a:	dd d8                	fstp   %st(0)
 a4c:	dd d8                	fstp   %st(0)
 a4e:	eb 44                	jmp    a94 <_DiagTestRect2+0x1b4>
 a50:	dd d8                	fstp   %st(0)
 a52:	dd d8                	fstp   %st(0)
 a54:	dd d8                	fstp   %st(0)
 a56:	dd d8                	fstp   %st(0)
 a58:	eb 3a                	jmp    a94 <_DiagTestRect2+0x1b4>
 a5a:	8d b6 00 00 00 00    	lea    0x0(%esi),%esi
 a60:	dd d8                	fstp   %st(0)
 a62:	dd d8                	fstp   %st(0)
 a64:	dd d8                	fstp   %st(0)
 a66:	dd d8                	fstp   %st(0)
 a68:	dd d8                	fstp   %st(0)
 a6a:	eb 28                	jmp    a94 <_DiagTestRect2+0x1b4>
 a6c:	8d 74 26 00          	lea    0x0(%esi,%eiz,1),%esi
 a70:	dd d8                	fstp   %st(0)
 a72:	dd d8                	fstp   %st(0)
 a74:	dd d8                	fstp   %st(0)
 a76:	dd d8                	fstp   %st(0)
 a78:	dd d8                	fstp   %st(0)
 a7a:	eb 18                	jmp    a94 <_DiagTestRect2+0x1b4>
 a7c:	8d 74 26 00          	lea    0x0(%esi,%eiz,1),%esi
 a80:	dd d8                	fstp   %st(0)
 a82:	dd d8                	fstp   %st(0)
 a84:	dd d8                	fstp   %st(0)
 a86:	dd d8                	fstp   %st(0)
 a88:	eb 0a                	jmp    a94 <_DiagTestRect2+0x1b4>
 a8a:	8d b6 00 00 00 00    	lea    0x0(%esi),%esi
 a90:	dd d8                	fstp   %st(0)
 a92:	dd d8                	fstp   %st(0)
	if (-RectXmin + RectYmax < -SearchX2 + SearchY2)
		return 0;

	return 1;

}
 a94:	83 c4 0c             	add    $0xc,%esp
 a97:	c3                   	ret    
 a98:	90                   	nop
 a99:	8d b4 26 00 00 00 00 	lea    0x0(%esi,%eiz,1),%esi

00000aa0 <_DiagTestDiag1>:
// ***************************************************************************************************
// ***************************************************************************************************
// ***************************************************************************************************

int32 DiagTestDiag1(double Diag1X1, double Diag1Y1, double Diag1LengthX, double Diag1Width)
{
 aa0:	83 ec 0c             	sub    $0xc,%esp
	Diag1Ymin = Diag1Y2 - r;
	Diag1Xmax = Diag1X2 + r;
	Diag1Ymax = Diag1Y1 + r;

	if ((Diag1Xmax < SearchMinX) || (Diag1Xmin > SearchMaxX) || (Diag1Ymax < SearchMinY) || (Diag1Ymin > SearchMaxY))
		return 0;
 aa3:	31 c0                	xor    %eax,%eax
	Diag1Xmin = Diag1X1 - r;
	Diag1Ymin = Diag1Y2 - r;
	Diag1Xmax = Diag1X2 + r;
	Diag1Ymax = Diag1Y1 + r;

	if ((Diag1Xmax < SearchMinX) || (Diag1Xmin > SearchMaxX) || (Diag1Ymax < SearchMinY) || (Diag1Ymin > SearchMaxY))
 aa5:	f3 0f 5a 0d 00 00 00 	cvtss2sd 0x0,%xmm1
 aac:	00 
// ***************************************************************************************************
// ***************************************************************************************************
// ***************************************************************************************************

int32 DiagTestDiag1(double Diag1X1, double Diag1Y1, double Diag1LengthX, double Diag1Width)
{
 aad:	dd 44 24 10          	fldl   0x10(%esp)
 ab1:	dd 44 24 18          	fldl   0x18(%esp)
 ab5:	dd 44 24 20          	fldl   0x20(%esp)

	double Diag1Xmin, Diag1Xmax, Diag1Ymin, Diag1Ymax, Diag1X2, Diag1Y2, xx2, yy2, xx4, yy4, r, hulp;


	hulp = Diag1Width;
	hulp = hulp * PI * 0.25;
 ab9:	dd 05 08 00 00 00    	fldl   0x8
 abf:	dc 4c 24 28          	fmull  0x28(%esp)
 ac3:	dc 0d 18 00 00 00    	fmull  0x18
	r = hulp;

	Diag1X2 = Diag1X1 + Diag1LengthX;
 ac9:	d9 c3                	fld    %st(3)
 acb:	d8 c2                	fadd   %st(2),%st
	Diag1Y2 = Diag1Y1 - Diag1LengthX;

	Diag1Xmin = Diag1X1 - r;
	Diag1Ymin = Diag1Y2 - r;
	Diag1Xmax = Diag1X2 + r;
 acd:	dd 1c 24             	fstpl  (%esp)
 ad0:	f2 0f 10 04 24       	movsd  (%esp),%xmm0
 ad5:	dd 14 24             	fstl   (%esp)
 ad8:	f2 0f 10 3c 24       	movsd  (%esp),%xmm7
 add:	f2 0f 58 c7          	addsd  %xmm7,%xmm0
	Diag1Ymax = Diag1Y1 + r;

	if ((Diag1Xmax < SearchMinX) || (Diag1Xmin > SearchMaxX) || (Diag1Ymax < SearchMinY) || (Diag1Ymin > SearchMaxY))
 ae1:	66 0f 2e c8          	ucomisd %xmm0,%xmm1
 ae5:	0f 87 1b 01 00 00    	ja     c06 <_DiagTestDiag1+0x166>
	r = hulp;

	Diag1X2 = Diag1X1 + Diag1LengthX;
	Diag1Y2 = Diag1Y1 - Diag1LengthX;

	Diag1Xmin = Diag1X1 - r;
 aeb:	dc eb                	fsubr  %st,%st(3)
	Diag1Ymin = Diag1Y2 - r;
	Diag1Xmax = Diag1X2 + r;
	Diag1Ymax = Diag1Y1 + r;

	if ((Diag1Xmax < SearchMinX) || (Diag1Xmin > SearchMaxX) || (Diag1Ymax < SearchMinY) || (Diag1Ymin > SearchMaxY))
 aed:	f3 0f 5a 0d 00 00 00 	cvtss2sd 0x0,%xmm1
 af4:	00 
 af5:	f2 0f 11 0c 24       	movsd  %xmm1,(%esp)
 afa:	dd 04 24             	fldl   (%esp)
 afd:	d9 cc                	fxch   %st(4)
 aff:	db ec                	fucomi %st(4),%st
 b01:	dd dc                	fstp   %st(4)
 b03:	0f 87 07 01 00 00    	ja     c10 <_DiagTestDiag1+0x170>
 b09:	d9 ca                	fxch   %st(2)
 b0b:	dd 14 24             	fstl   (%esp)
 b0e:	f2 0f 10 34 24       	movsd  (%esp),%xmm6
 b13:	f3 0f 5a 15 00 00 00 	cvtss2sd 0x0,%xmm2
 b1a:	00 
 b1b:	f2 0f 10 cf          	movsd  %xmm7,%xmm1
 b1f:	f2 0f 58 ce          	addsd  %xmm6,%xmm1
 b23:	66 0f 2e d1          	ucomisd %xmm1,%xmm2
 b27:	0f 87 f3 00 00 00    	ja     c20 <_DiagTestDiag1+0x180>
	hulp = Diag1Width;
	hulp = hulp * PI * 0.25;
	r = hulp;

	Diag1X2 = Diag1X1 + Diag1LengthX;
	Diag1Y2 = Diag1Y1 - Diag1LengthX;
 b2d:	dc e1                	fsub   %st,%st(1)
	Diag1Xmin = Diag1X1 - r;
	Diag1Ymin = Diag1Y2 - r;
	Diag1Xmax = Diag1X2 + r;
	Diag1Ymax = Diag1Y1 + r;

	if ((Diag1Xmax < SearchMinX) || (Diag1Xmin > SearchMaxX) || (Diag1Ymax < SearchMinY) || (Diag1Ymin > SearchMaxY))
 b2f:	f3 0f 5a 0d 00 00 00 	cvtss2sd 0x0,%xmm1
 b36:	00 

	Diag1X2 = Diag1X1 + Diag1LengthX;
	Diag1Y2 = Diag1Y1 - Diag1LengthX;

	Diag1Xmin = Diag1X1 - r;
	Diag1Ymin = Diag1Y2 - r;
 b37:	d9 c1                	fld    %st(1)
 b39:	d8 e3                	fsub   %st(3),%st
	Diag1Xmax = Diag1X2 + r;
	Diag1Ymax = Diag1Y1 + r;

	if ((Diag1Xmax < SearchMinX) || (Diag1Xmin > SearchMaxX) || (Diag1Ymax < SearchMinY) || (Diag1Ymin > SearchMaxY))
 b3b:	dd 1c 24             	fstpl  (%esp)
 b3e:	f2 0f 10 2c 24       	movsd  (%esp),%xmm5
 b43:	66 0f 2e e9          	ucomisd %xmm1,%xmm5
 b47:	0f 87 e3 00 00 00    	ja     c30 <_DiagTestDiag1+0x190>
		return 0;

	xx2 = Diag1X2 + r;
	yy2 = Diag1Y2 + r;
	xx4 = Diag1X1 - r;
	yy4 = Diag1Y1 - r;
 b4d:	d8 e2                	fsub   %st(2),%st
 b4f:	d9 cb                	fxch   %st(3)

	if (SearchX2 + SearchY2 < xx4 + yy4)
 b51:	f3 0f 10 1d 00 00 00 	movss  0x0,%xmm3
 b58:	00 
 b59:	f3 0f 10 15 00 00 00 	movss  0x0,%xmm2
 b60:	00 
 b61:	dd 14 24             	fstl   (%esp)
 b64:	d9 cb                	fxch   %st(3)
 b66:	f2 0f 10 24 24       	movsd  (%esp),%xmm4
 b6b:	dd 14 24             	fstl   (%esp)
 b6e:	f3 0f 10 cb          	movss  %xmm3,%xmm1
 b72:	f2 0f 10 2c 24       	movsd  (%esp),%xmm5
 b77:	f3 0f 58 ca          	addss  %xmm2,%xmm1
 b7b:	f3 0f 5a c9          	cvtss2sd %xmm1,%xmm1
 b7f:	f2 0f 58 e5          	addsd  %xmm5,%xmm4
 b83:	66 0f 2e e1          	ucomisd %xmm1,%xmm4
 b87:	0f 87 b3 00 00 00    	ja     c40 <_DiagTestDiag1+0x1a0>
 b8d:	d9 c9                	fxch   %st(1)

	if ((Diag1Xmax < SearchMinX) || (Diag1Xmin > SearchMaxX) || (Diag1Ymax < SearchMinY) || (Diag1Ymin > SearchMaxY))
		return 0;

	xx2 = Diag1X2 + r;
	yy2 = Diag1Y2 + r;
 b8f:	de c2                	faddp  %st,%st(2)
 b91:	d9 c9                	fxch   %st(1)
	yy4 = Diag1Y1 - r;

	if (SearchX2 + SearchY2 < xx4 + yy4)
		return 0;

	if (SearchX1 + SearchY1 > xx2 + yy2)
 b93:	f3 0f 10 2d 00 00 00 	movss  0x0,%xmm5
 b9a:	00 
 b9b:	f3 0f 10 25 00 00 00 	movss  0x0,%xmm4
 ba2:	00 
 ba3:	dd 14 24             	fstl   (%esp)
 ba6:	f3 0f 10 cd          	movss  %xmm5,%xmm1
 baa:	f2 0f 10 34 24       	movsd  (%esp),%xmm6
 baf:	f3 0f 58 cc          	addss  %xmm4,%xmm1
 bb3:	f3 0f 5a c9          	cvtss2sd %xmm1,%xmm1
 bb7:	f2 0f 58 f0          	addsd  %xmm0,%xmm6
 bbb:	66 0f 2e ce          	ucomisd %xmm6,%xmm1
 bbf:	0f 87 8b 00 00 00    	ja     c50 <_DiagTestDiag1+0x1b0>
 bc5:	d9 ca                	fxch   %st(2)
		return 0;

	if (-SearchX2 + SearchY2 > -xx4 + yy4)
 bc7:	de e9                	fsubrp %st,%st(1)
 bc9:	f3 0f 5c d3          	subss  %xmm3,%xmm2
 bcd:	f3 0f 5a d2          	cvtss2sd %xmm2,%xmm2
 bd1:	f2 0f 11 14 24       	movsd  %xmm2,(%esp)
 bd6:	dd 04 24             	fldl   (%esp)
 bd9:	df e9                	fucomip %st(1),%st
 bdb:	dd d8                	fstp   %st(0)
 bdd:	77 79                	ja     c58 <_DiagTestDiag1+0x1b8>
		return 0;

	if (-SearchX1 + SearchY1 < -xx2 + yy2)
 bdf:	f2 0f 11 04 24       	movsd  %xmm0,(%esp)
 be4:	dd 04 24             	fldl   (%esp)
 be7:	de e9                	fsubrp %st,%st(1)
	Diag1Ymin = Diag1Y2 - r;
	Diag1Xmax = Diag1X2 + r;
	Diag1Ymax = Diag1Y1 + r;

	if ((Diag1Xmax < SearchMinX) || (Diag1Xmin > SearchMaxX) || (Diag1Ymax < SearchMinY) || (Diag1Ymin > SearchMaxY))
		return 0;
 be9:	31 c0                	xor    %eax,%eax
		return 0;

	if (-SearchX2 + SearchY2 > -xx4 + yy4)
		return 0;

	if (-SearchX1 + SearchY1 < -xx2 + yy2)
 beb:	f3 0f 5c e5          	subss  %xmm5,%xmm4
 bef:	f3 0f 5a e4          	cvtss2sd %xmm4,%xmm4
 bf3:	f2 0f 11 24 24       	movsd  %xmm4,(%esp)
 bf8:	dd 04 24             	fldl   (%esp)
 bfb:	d9 c9                	fxch   %st(1)
	Diag1Ymin = Diag1Y2 - r;
	Diag1Xmax = Diag1X2 + r;
	Diag1Ymax = Diag1Y1 + r;

	if ((Diag1Xmax < SearchMinX) || (Diag1Xmin > SearchMaxX) || (Diag1Ymax < SearchMinY) || (Diag1Ymin > SearchMaxY))
		return 0;
 bfd:	df e9                	fucomip %st(1),%st
 bff:	dd d8                	fstp   %st(0)
 c01:	0f 96 c0             	setbe  %al
 c04:	eb 5a                	jmp    c60 <_DiagTestDiag1+0x1c0>
 c06:	dd d8                	fstp   %st(0)
 c08:	dd d8                	fstp   %st(0)
 c0a:	dd d8                	fstp   %st(0)
 c0c:	dd d8                	fstp   %st(0)
 c0e:	eb 50                	jmp    c60 <_DiagTestDiag1+0x1c0>
 c10:	dd d8                	fstp   %st(0)
 c12:	dd d8                	fstp   %st(0)
 c14:	dd d8                	fstp   %st(0)
 c16:	dd d8                	fstp   %st(0)
 c18:	eb 46                	jmp    c60 <_DiagTestDiag1+0x1c0>
 c1a:	8d b6 00 00 00 00    	lea    0x0(%esi),%esi
 c20:	dd d8                	fstp   %st(0)
 c22:	dd d8                	fstp   %st(0)
 c24:	dd d8                	fstp   %st(0)
 c26:	dd d8                	fstp   %st(0)
 c28:	eb 36                	jmp    c60 <_DiagTestDiag1+0x1c0>
 c2a:	8d b6 00 00 00 00    	lea    0x0(%esi),%esi
 c30:	dd d8                	fstp   %st(0)
 c32:	dd d8                	fstp   %st(0)
 c34:	dd d8                	fstp   %st(0)
 c36:	dd d8                	fstp   %st(0)
 c38:	eb 26                	jmp    c60 <_DiagTestDiag1+0x1c0>
 c3a:	8d b6 00 00 00 00    	lea    0x0(%esi),%esi
 c40:	dd d8                	fstp   %st(0)
 c42:	dd d8                	fstp   %st(0)
 c44:	dd d8                	fstp   %st(0)
 c46:	dd d8                	fstp   %st(0)
 c48:	eb 16                	jmp    c60 <_DiagTestDiag1+0x1c0>
 c4a:	8d b6 00 00 00 00    	lea    0x0(%esi),%esi
 c50:	dd d8                	fstp   %st(0)
 c52:	dd d8                	fstp   %st(0)
 c54:	dd d8                	fstp   %st(0)
 c56:	eb 08                	jmp    c60 <_DiagTestDiag1+0x1c0>
 c58:	dd d8                	fstp   %st(0)
 c5a:	8d b6 00 00 00 00    	lea    0x0(%esi),%esi
	if (-SearchX1 + SearchY1 < -xx2 + yy2)
		return 0;

	return 1;

}
 c60:	83 c4 0c             	add    $0xc,%esp
 c63:	c3                   	ret    
 c64:	8d b6 00 00 00 00    	lea    0x0(%esi),%esi
 c6a:	8d bf 00 00 00 00    	lea    0x0(%edi),%edi

00000c70 <_DiagTestDiag2>:
// ***************************************************************************************************
// ***************************************************************************************************
// ***************************************************************************************************

int32 DiagTestDiag2(double Diag2X1, double Diag2Y1, double Diag2LengthX, double Diag2Width)
{
 c70:	83 ec 0c             	sub    $0xc,%esp
	Diag2Ymin = Diag2Y1 - r;
	Diag2Xmax = Diag2X2 + r;
	Diag2Ymax = Diag2Y2 + r;

	if ((Diag2Xmax < SearchMinX) || (Diag2Xmin > SearchMaxX) || (Diag2Ymax < SearchMinY) || (Diag2Ymin > SearchMaxY))
		return 0;
 c73:	31 c0                	xor    %eax,%eax
	Diag2Xmin = Diag2X1 - r;
	Diag2Ymin = Diag2Y1 - r;
	Diag2Xmax = Diag2X2 + r;
	Diag2Ymax = Diag2Y2 + r;

	if ((Diag2Xmax < SearchMinX) || (Diag2Xmin > SearchMaxX) || (Diag2Ymax < SearchMinY) || (Diag2Ymin > SearchMaxY))
 c75:	f3 0f 5a 1d 00 00 00 	cvtss2sd 0x0,%xmm3
 c7c:	00 
// ***************************************************************************************************
// ***************************************************************************************************
// ***************************************************************************************************

int32 DiagTestDiag2(double Diag2X1, double Diag2Y1, double Diag2LengthX, double Diag2Width)
{
 c7d:	dd 44 24 18          	fldl   0x18(%esp)
	*/

	double Diag2Xmin, Diag2Xmax, Diag2Ymin, Diag2Ymax, Diag2X2, Diag2Y2, xx2, yy2, xx4, yy4, r, hulp;

	hulp = Diag2Width;
	hulp = hulp * PI * 0.25;
 c81:	dd 05 08 00 00 00    	fldl   0x8
 c87:	dc 4c 24 28          	fmull  0x28(%esp)
// ***************************************************************************************************
// ***************************************************************************************************
// ***************************************************************************************************

int32 DiagTestDiag2(double Diag2X1, double Diag2Y1, double Diag2LengthX, double Diag2Width)
{
 c8b:	f2 0f 10 54 24 10    	movsd  0x10(%esp),%xmm2
	*/

	double Diag2Xmin, Diag2Xmax, Diag2Ymin, Diag2Ymax, Diag2X2, Diag2Y2, xx2, yy2, xx4, yy4, r, hulp;

	hulp = Diag2Width;
	hulp = hulp * PI * 0.25;
 c91:	dc 0d 18 00 00 00    	fmull  0x18
// ***************************************************************************************************
// ***************************************************************************************************
// ***************************************************************************************************

int32 DiagTestDiag2(double Diag2X1, double Diag2Y1, double Diag2LengthX, double Diag2Width)
{
 c97:	f2 0f 10 4c 24 20    	movsd  0x20(%esp),%xmm1

	hulp = Diag2Width;
	hulp = hulp * PI * 0.25;
	r = hulp;

	Diag2X2 = Diag2X1 + Diag2LengthX;
 c9d:	f2 0f 10 c2          	movsd  %xmm2,%xmm0
	Diag2Y2 = Diag2Y1 + Diag2LengthX;

	Diag2Xmin = Diag2X1 - r;
	Diag2Ymin = Diag2Y1 - r;
	Diag2Xmax = Diag2X2 + r;
 ca1:	dd 14 24             	fstl   (%esp)
 ca4:	f2 0f 10 3c 24       	movsd  (%esp),%xmm7

	hulp = Diag2Width;
	hulp = hulp * PI * 0.25;
	r = hulp;

	Diag2X2 = Diag2X1 + Diag2LengthX;
 ca9:	f2 0f 58 c1          	addsd  %xmm1,%xmm0
	Diag2Y2 = Diag2Y1 + Diag2LengthX;

	Diag2Xmin = Diag2X1 - r;
	Diag2Ymin = Diag2Y1 - r;
	Diag2Xmax = Diag2X2 + r;
 cad:	f2 0f 58 c7          	addsd  %xmm7,%xmm0
	Diag2Ymax = Diag2Y2 + r;

	if ((Diag2Xmax < SearchMinX) || (Diag2Xmin > SearchMaxX) || (Diag2Ymax < SearchMinY) || (Diag2Ymin > SearchMaxY))
 cb1:	66 0f 2e d8          	ucomisd %xmm0,%xmm3
 cb5:	0f 87 06 01 00 00    	ja     dc1 <_DiagTestDiag2+0x151>
 cbb:	f3 0f 5a 1d 00 00 00 	cvtss2sd 0x0,%xmm3
 cc2:	00 
	r = hulp;

	Diag2X2 = Diag2X1 + Diag2LengthX;
	Diag2Y2 = Diag2Y1 + Diag2LengthX;

	Diag2Xmin = Diag2X1 - r;
 cc3:	f2 0f 5c d7          	subsd  %xmm7,%xmm2
	Diag2Ymin = Diag2Y1 - r;
	Diag2Xmax = Diag2X2 + r;
	Diag2Ymax = Diag2Y2 + r;

	if ((Diag2Xmax < SearchMinX) || (Diag2Xmin > SearchMaxX) || (Diag2Ymax < SearchMinY) || (Diag2Ymin > SearchMaxY))
 cc7:	66 0f 2e d3          	ucomisd %xmm3,%xmm2
 ccb:	0f 87 f6 00 00 00    	ja     dc7 <_DiagTestDiag2+0x157>
 cd1:	d9 c9                	fxch   %st(1)
	hulp = Diag2Width;
	hulp = hulp * PI * 0.25;
	r = hulp;

	Diag2X2 = Diag2X1 + Diag2LengthX;
	Diag2Y2 = Diag2Y1 + Diag2LengthX;
 cd3:	dd 14 24             	fstl   (%esp)
 cd6:	d9 c9                	fxch   %st(1)
 cd8:	f2 0f 10 34 24       	movsd  (%esp),%xmm6

	Diag2Xmin = Diag2X1 - r;
	Diag2Ymin = Diag2Y1 - r;
	Diag2Xmax = Diag2X2 + r;
	Diag2Ymax = Diag2Y2 + r;
 cdd:	f2 0f 10 df          	movsd  %xmm7,%xmm3
	hulp = Diag2Width;
	hulp = hulp * PI * 0.25;
	r = hulp;

	Diag2X2 = Diag2X1 + Diag2LengthX;
	Diag2Y2 = Diag2Y1 + Diag2LengthX;
 ce1:	f2 0f 58 ce          	addsd  %xmm6,%xmm1
	Diag2Xmin = Diag2X1 - r;
	Diag2Ymin = Diag2Y1 - r;
	Diag2Xmax = Diag2X2 + r;
	Diag2Ymax = Diag2Y2 + r;

	if ((Diag2Xmax < SearchMinX) || (Diag2Xmin > SearchMaxX) || (Diag2Ymax < SearchMinY) || (Diag2Ymin > SearchMaxY))
 ce5:	f3 0f 5a 25 00 00 00 	cvtss2sd 0x0,%xmm4
 cec:	00 
	Diag2Y2 = Diag2Y1 + Diag2LengthX;

	Diag2Xmin = Diag2X1 - r;
	Diag2Ymin = Diag2Y1 - r;
	Diag2Xmax = Diag2X2 + r;
	Diag2Ymax = Diag2Y2 + r;
 ced:	f2 0f 58 d9          	addsd  %xmm1,%xmm3
 cf1:	dd 14 24             	fstl   (%esp)

	if ((Diag2Xmax < SearchMinX) || (Diag2Xmin > SearchMaxX) || (Diag2Ymax < SearchMinY) || (Diag2Ymin > SearchMaxY))
 cf4:	66 0f 2e e3          	ucomisd %xmm3,%xmm4
 cf8:	0f 87 d2 00 00 00    	ja     dd0 <_DiagTestDiag2+0x160>
 cfe:	f3 0f 5a 25 00 00 00 	cvtss2sd 0x0,%xmm4
 d05:	00 
 d06:	f2 0f 10 de          	movsd  %xmm6,%xmm3
 d0a:	f2 0f 5c df          	subsd  %xmm7,%xmm3
 d0e:	dd 14 24             	fstl   (%esp)
 d11:	66 0f 2e dc          	ucomisd %xmm4,%xmm3
 d15:	0f 87 bb 00 00 00    	ja     dd6 <_DiagTestDiag2+0x166>


	xx2 = Diag2X2 + r;
	yy2 = Diag2Y2 - r;
	xx4 = Diag2X1 - r;
	yy4 = Diag2Y1 + r;
 d1b:	dc c1                	fadd   %st,%st(1)
 d1d:	d9 c9                	fxch   %st(1)

	if (-SearchX2 + SearchY2 > -xx4 + yy4)
 d1f:	f3 0f 10 2d 00 00 00 	movss  0x0,%xmm5
 d26:	00 
 d27:	f3 0f 10 25 00 00 00 	movss  0x0,%xmm4
 d2e:	00 
 d2f:	dd 14 24             	fstl   (%esp)
 d32:	f3 0f 10 dd          	movss  %xmm5,%xmm3
 d36:	f2 0f 10 34 24       	movsd  (%esp),%xmm6
 d3b:	f3 0f 5c dc          	subss  %xmm4,%xmm3
 d3f:	f3 0f 5a db          	cvtss2sd %xmm3,%xmm3
 d43:	f2 0f 5c f2          	subsd  %xmm2,%xmm6
 d47:	66 0f 2e de          	ucomisd %xmm6,%xmm3
 d4b:	0f 87 8f 00 00 00    	ja     de0 <_DiagTestDiag2+0x170>
 d51:	d9 c9                	fxch   %st(1)
	if ((Diag2Xmax < SearchMinX) || (Diag2Xmin > SearchMaxX) || (Diag2Ymax < SearchMinY) || (Diag2Ymin > SearchMaxY))
		return 0;


	xx2 = Diag2X2 + r;
	yy2 = Diag2Y2 - r;
 d53:	f2 0f 5c cf          	subsd  %xmm7,%xmm1
	yy4 = Diag2Y1 + r;

	if (-SearchX2 + SearchY2 > -xx4 + yy4)
		return 0;

	if (-SearchX1 + SearchY1 < -xx2 + yy2)
 d57:	f3 0f 10 3d 00 00 00 	movss  0x0,%xmm7
 d5e:	00 
 d5f:	f3 0f 10 35 00 00 00 	movss  0x0,%xmm6
 d66:	00 
	if ((Diag2Xmax < SearchMinX) || (Diag2Xmin > SearchMaxX) || (Diag2Ymax < SearchMinY) || (Diag2Ymin > SearchMaxY))
		return 0;


	xx2 = Diag2X2 + r;
	yy2 = Diag2Y2 - r;
 d67:	dd 1c 24             	fstpl  (%esp)
	yy4 = Diag2Y1 + r;

	if (-SearchX2 + SearchY2 > -xx4 + yy4)
		return 0;

	if (-SearchX1 + SearchY1 < -xx2 + yy2)
 d6a:	f3 0f 10 df          	movss  %xmm7,%xmm3
 d6e:	f3 0f 5c de          	subss  %xmm6,%xmm3
 d72:	f3 0f 11 1c 24       	movss  %xmm3,(%esp)
 d77:	f2 0f 10 d9          	movsd  %xmm1,%xmm3
 d7b:	d9 04 24             	flds   (%esp)
 d7e:	f2 0f 5c d8          	subsd  %xmm0,%xmm3
 d82:	f2 0f 11 1c 24       	movsd  %xmm3,(%esp)
 d87:	dd 04 24             	fldl   (%esp)
 d8a:	df e9                	fucomip %st(1),%st
 d8c:	dd d8                	fstp   %st(0)
 d8e:	77 56                	ja     de6 <_DiagTestDiag2+0x176>
		return 0;

	if (SearchX2 + SearchY2 < xx4 + yy4)
 d90:	dd 1c 24             	fstpl  (%esp)
 d93:	f3 0f 58 e5          	addss  %xmm5,%xmm4
 d97:	f2 0f 10 2c 24       	movsd  (%esp),%xmm5
 d9c:	f3 0f 5a e4          	cvtss2sd %xmm4,%xmm4
 da0:	f2 0f 58 d5          	addsd  %xmm5,%xmm2
 da4:	66 0f 2e d4          	ucomisd %xmm4,%xmm2
 da8:	77 3e                	ja     de8 <_DiagTestDiag2+0x178>
		return 0;

	if (SearchX1 + SearchY1 > xx2 + yy2)
 daa:	f3 0f 58 f7          	addss  %xmm7,%xmm6
	Diag2Ymin = Diag2Y1 - r;
	Diag2Xmax = Diag2X2 + r;
	Diag2Ymax = Diag2Y2 + r;

	if ((Diag2Xmax < SearchMinX) || (Diag2Xmin > SearchMaxX) || (Diag2Ymax < SearchMinY) || (Diag2Ymin > SearchMaxY))
		return 0;
 dae:	31 c0                	xor    %eax,%eax
		return 0;

	if (SearchX2 + SearchY2 < xx4 + yy4)
		return 0;

	if (SearchX1 + SearchY1 > xx2 + yy2)
 db0:	f3 0f 5a f6          	cvtss2sd %xmm6,%xmm6
 db4:	f2 0f 58 c8          	addsd  %xmm0,%xmm1
	Diag2Ymin = Diag2Y1 - r;
	Diag2Xmax = Diag2X2 + r;
	Diag2Ymax = Diag2Y2 + r;

	if ((Diag2Xmax < SearchMinX) || (Diag2Xmin > SearchMaxX) || (Diag2Ymax < SearchMinY) || (Diag2Ymin > SearchMaxY))
		return 0;
 db8:	66 0f 2e f1          	ucomisd %xmm1,%xmm6
 dbc:	0f 96 c0             	setbe  %al
 dbf:	eb 27                	jmp    de8 <_DiagTestDiag2+0x178>
 dc1:	dd d8                	fstp   %st(0)
 dc3:	dd d8                	fstp   %st(0)
 dc5:	eb 21                	jmp    de8 <_DiagTestDiag2+0x178>
 dc7:	dd d8                	fstp   %st(0)
 dc9:	dd d8                	fstp   %st(0)
 dcb:	eb 1b                	jmp    de8 <_DiagTestDiag2+0x178>
 dcd:	8d 76 00             	lea    0x0(%esi),%esi
 dd0:	dd d8                	fstp   %st(0)
 dd2:	dd d8                	fstp   %st(0)
 dd4:	eb 12                	jmp    de8 <_DiagTestDiag2+0x178>
 dd6:	dd d8                	fstp   %st(0)
 dd8:	dd d8                	fstp   %st(0)
 dda:	eb 0c                	jmp    de8 <_DiagTestDiag2+0x178>
 ddc:	8d 74 26 00          	lea    0x0(%esi,%eiz,1),%esi
 de0:	dd d8                	fstp   %st(0)
 de2:	dd d8                	fstp   %st(0)
 de4:	eb 02                	jmp    de8 <_DiagTestDiag2+0x178>
 de6:	dd d8                	fstp   %st(0)

	if (SearchX1 + SearchY1 > xx2 + yy2)
		return 0;

	return 1;
}
 de8:	83 c4 0c             	add    $0xc,%esp
 deb:	c3                   	ret    
 dec:	90                   	nop
 ded:	90                   	nop
 dee:	90                   	nop
 def:	90                   	nop

calcrect.o:     file format pe-i386


Disassembly of section .text:

00000000 <_RectTestLine>:
// ***************************************************************************************************
// ***************************************************************************************************
// ***************************************************************************************************

int32 RectTestLine(double LineX1, double LineY1, double LineX2, double LineY2)
{
       0:	55                   	push   %ebp
       1:	89 e5                	mov    %esp,%ebp
       3:	53                   	push   %ebx
       4:	83 e4 f8             	and    $0xfffffff8,%esp
       7:	83 ec 18             	sub    $0x18,%esp
       a:	dd 45 08             	fldl   0x8(%ebp)
       d:	dd 45 10             	fldl   0x10(%ebp)
      10:	dd 45 18             	fldl   0x18(%ebp)
      13:	dd 45 20             	fldl   0x20(%ebp)
      16:	d9 cb                	fxch   %st(3)
	RectXmin = LineX1;
	RectYmin = LineY1;
	RectXmax = LineX2;
	RectYmax = LineY2;

	if (RectXmin > RectXmax)
      18:	db e9                	fucomi %st(1),%st
      1a:	0f 86 c1 01 00 00    	jbe    1e1 <_RectTestLine+0x1e1>
	{
		RectXmin = LineX2;
		RectXmax = LineX1;
      20:	d9 c0                	fld    %st(0)
	RectXmax = LineX2;
	RectYmax = LineY2;

	if (RectXmin > RectXmax)
	{
		RectXmin = LineX2;
      22:	d9 c2                	fld    %st(2)
      24:	d9 cc                	fxch   %st(4)
		RectXmax = LineX1;
	}

	if (RectYmin > RectYmax)
      26:	db ed                	fucomi %st(5),%st
      28:	0f 86 9a 01 00 00    	jbe    1c8 <_RectTestLine+0x1c8>
	{
		RectYmin = LineY2;
		RectYmax = LineY1;
      2e:	dd 54 24 08          	fstl   0x8(%esp)
      32:	d9 cd                	fxch   %st(5)
		RectXmax = LineX1;
	}

	if (RectYmin > RectYmax)
	{
		RectYmin = LineY2;
      34:	dd 54 24 10          	fstl   0x10(%esp)
      38:	f2 0f 10 7c 24 10    	movsd  0x10(%esp),%xmm7
		RectYmax = LineY1;
	}

	if ((RectXmax < SearchMinX) || (RectXmin > SearchMaxX) || (RectYmax < SearchMinY) || (RectYmin > SearchMaxY))
      3e:	f3 0f 10 0d 00 00 00 	movss  0x0,%xmm1
      45:	00 
      46:	f3 0f 5a c1          	cvtss2sd %xmm1,%xmm0
      4a:	f2 0f 11 44 24 10    	movsd  %xmm0,0x10(%esp)
      50:	dd 44 24 10          	fldl   0x10(%esp)
		return 0;
      54:	31 c0                	xor    %eax,%eax
	{
		RectYmin = LineY2;
		RectYmax = LineY1;
	}

	if ((RectXmax < SearchMinX) || (RectXmin > SearchMaxX) || (RectYmax < SearchMinY) || (RectYmin > SearchMaxY))
      56:	df ea                	fucomip %st(2),%st
      58:	0f 87 e9 00 00 00    	ja     147 <_RectTestLine+0x147>
      5e:	f3 0f 10 1d 00 00 00 	movss  0x0,%xmm3
      65:	00 
      66:	f3 0f 5a d3          	cvtss2sd %xmm3,%xmm2
      6a:	f2 0f 11 54 24 10    	movsd  %xmm2,0x10(%esp)
      70:	dd 44 24 10          	fldl   0x10(%esp)
      74:	d9 cd                	fxch   %st(5)
      76:	db ed                	fucomi %st(5),%st
      78:	dd dd                	fstp   %st(5)
      7a:	0f 87 d5 00 00 00    	ja     155 <_RectTestLine+0x155>
      80:	f3 0f 10 2d 00 00 00 	movss  0x0,%xmm5
      87:	00 
      88:	f3 0f 5a e5          	cvtss2sd %xmm5,%xmm4
      8c:	f2 0f 11 64 24 10    	movsd  %xmm4,0x10(%esp)
      92:	dd 44 24 10          	fldl   0x10(%esp)
      96:	dd 44 24 08          	fldl   0x8(%esp)
      9a:	d9 c9                	fxch   %st(1)
      9c:	df e9                	fucomip %st(1),%st
      9e:	dd d8                	fstp   %st(0)
      a0:	0f 87 bd 00 00 00    	ja     163 <_RectTestLine+0x163>
      a6:	f3 0f 10 35 00 00 00 	movss  0x0,%xmm6
      ad:	00 
      ae:	f3 0f 11 74 24 04    	movss  %xmm6,0x4(%esp)
      b4:	f3 0f 5a f6          	cvtss2sd %xmm6,%xmm6
      b8:	f2 0f 11 74 24 10    	movsd  %xmm6,0x10(%esp)
      be:	dd 44 24 10          	fldl   0x10(%esp)
      c2:	f2 0f 11 7c 24 10    	movsd  %xmm7,0x10(%esp)
      c8:	dd 44 24 10          	fldl   0x10(%esp)
      cc:	db e9                	fucomi %st(1),%st
      ce:	dd d9                	fstp   %st(1)
      d0:	0f 87 9b 00 00 00    	ja     171 <_RectTestLine+0x171>
		return 0;


	if ((RectXmax < SearchMaxX) && (RectXmin > SearchMinX) && (RectYmax < SearchMaxY) && (RectYmin > SearchMinY))
      d6:	f2 0f 11 44 24 10    	movsd  %xmm0,0x10(%esp)
      dc:	dd 44 24 10          	fldl   0x10(%esp)
      e0:	d9 ce                	fxch   %st(6)
      e2:	db ee                	fucomi %st(6),%st
      e4:	dd de                	fstp   %st(6)
      e6:	f2 0f 11 64 24 10    	movsd  %xmm4,0x10(%esp)
      ec:	dd 44 24 10          	fldl   0x10(%esp)
      f0:	d9 c9                	fxch   %st(1)
      f2:	f2 0f 11 54 24 10    	movsd  %xmm2,0x10(%esp)
      f8:	0f 97 c1             	seta   %cl
      fb:	df e9                	fucomip %st(1),%st
      fd:	dd d8                	fstp   %st(0)
      ff:	dd 44 24 10          	fldl   0x10(%esp)
     103:	f2 0f 11 74 24 10    	movsd  %xmm6,0x10(%esp)
     109:	0f 97 c2             	seta   %dl
     10c:	df ea                	fucomip %st(2),%st
     10e:	dd 44 24 10          	fldl   0x10(%esp)
     112:	0f 97 c0             	seta   %al
     115:	dd 44 24 08          	fldl   0x8(%esp)
     119:	d9 c9                	fxch   %st(1)
     11b:	21 c8                	and    %ecx,%eax
     11d:	df e9                	fucomip %st(1),%st
     11f:	dd d8                	fstp   %st(0)
     121:	0f 97 c3             	seta   %bl
     124:	84 d8                	test   %bl,%al
     126:	0f 84 c4 00 00 00    	je     1f0 <_RectTestLine+0x1f0>
		return 1;
     12c:	b8 01 00 00 00       	mov    $0x1,%eax

	if ((RectXmax < SearchMinX) || (RectXmin > SearchMaxX) || (RectYmax < SearchMinY) || (RectYmin > SearchMaxY))
		return 0;


	if ((RectXmax < SearchMaxX) && (RectXmin > SearchMinX) && (RectYmax < SearchMaxY) && (RectYmin > SearchMinY))
     131:	84 d2                	test   %dl,%dl
     133:	0f 84 bb 00 00 00    	je     1f4 <_RectTestLine+0x1f4>
     139:	dd d8                	fstp   %st(0)
     13b:	dd d8                	fstp   %st(0)
     13d:	dd d8                	fstp   %st(0)
     13f:	dd d8                	fstp   %st(0)
     141:	dd d8                	fstp   %st(0)
     143:	dd d8                	fstp   %st(0)
     145:	eb 7c                	jmp    1c3 <_RectTestLine+0x1c3>
     147:	dd d8                	fstp   %st(0)
     149:	dd d8                	fstp   %st(0)
     14b:	dd d8                	fstp   %st(0)
     14d:	dd d8                	fstp   %st(0)
     14f:	dd d8                	fstp   %st(0)
     151:	dd d8                	fstp   %st(0)
     153:	eb 6e                	jmp    1c3 <_RectTestLine+0x1c3>
     155:	dd d8                	fstp   %st(0)
     157:	dd d8                	fstp   %st(0)
     159:	dd d8                	fstp   %st(0)
     15b:	dd d8                	fstp   %st(0)
     15d:	dd d8                	fstp   %st(0)
     15f:	dd d8                	fstp   %st(0)
     161:	eb 60                	jmp    1c3 <_RectTestLine+0x1c3>
     163:	dd d8                	fstp   %st(0)
     165:	dd d8                	fstp   %st(0)
     167:	dd d8                	fstp   %st(0)
     169:	dd d8                	fstp   %st(0)
     16b:	dd d8                	fstp   %st(0)
     16d:	dd d8                	fstp   %st(0)
     16f:	eb 52                	jmp    1c3 <_RectTestLine+0x1c3>
     171:	dd d8                	fstp   %st(0)
     173:	dd d8                	fstp   %st(0)
     175:	dd d8                	fstp   %st(0)
     177:	dd d8                	fstp   %st(0)
     179:	dd d8                	fstp   %st(0)
     17b:	dd d8                	fstp   %st(0)
     17d:	dd d8                	fstp   %st(0)
     17f:	eb 42                	jmp    1c3 <_RectTestLine+0x1c3>
     181:	dd d8                	fstp   %st(0)
     183:	dd d8                	fstp   %st(0)
     185:	eb 3c                	jmp    1c3 <_RectTestLine+0x1c3>
     187:	dd d8                	fstp   %st(0)
     189:	dd d8                	fstp   %st(0)
     18b:	eb 36                	jmp    1c3 <_RectTestLine+0x1c3>
     18d:	dd d8                	fstp   %st(0)
     18f:	dd d8                	fstp   %st(0)
     191:	eb 30                	jmp    1c3 <_RectTestLine+0x1c3>
     193:	dd d8                	fstp   %st(0)
     195:	eb 2c                	jmp    1c3 <_RectTestLine+0x1c3>
     197:	dd d8                	fstp   %st(0)
     199:	dd d8                	fstp   %st(0)
     19b:	eb 26                	jmp    1c3 <_RectTestLine+0x1c3>
     19d:	dd d8                	fstp   %st(0)
     19f:	dd d8                	fstp   %st(0)
     1a1:	eb 20                	jmp    1c3 <_RectTestLine+0x1c3>
     1a3:	dd d8                	fstp   %st(0)
     1a5:	dd d8                	fstp   %st(0)
     1a7:	eb 1a                	jmp    1c3 <_RectTestLine+0x1c3>
     1a9:	dd d8                	fstp   %st(0)
     1ab:	dd d8                	fstp   %st(0)
     1ad:	dd d8                	fstp   %st(0)
     1af:	dd d8                	fstp   %st(0)
     1b1:	eb 10                	jmp    1c3 <_RectTestLine+0x1c3>
     1b3:	dd d8                	fstp   %st(0)
     1b5:	dd d8                	fstp   %st(0)
     1b7:	dd d8                	fstp   %st(0)
     1b9:	dd d8                	fstp   %st(0)
     1bb:	eb 06                	jmp    1c3 <_RectTestLine+0x1c3>
     1bd:	dd d8                	fstp   %st(0)
     1bf:	dd d8                	fstp   %st(0)
     1c1:	dd d8                	fstp   %st(0)

	x = y-y1 + x1

	*/

}
     1c3:	8b 5d fc             	mov    -0x4(%ebp),%ebx
     1c6:	c9                   	leave  
     1c7:	c3                   	ret    
     1c8:	d9 cd                	fxch   %st(5)
	double rico, rico2;

	RectXmin = LineX1;
	RectYmin = LineY1;
	RectXmax = LineX2;
	RectYmax = LineY2;
     1ca:	dd 54 24 08          	fstl   0x8(%esp)
     1ce:	d9 cd                	fxch   %st(5)
{
	double RectXmin, RectXmax, RectYmin, RectYmax, DifX, DifY, xa, xb, ya, yb;
	double rico, rico2;

	RectXmin = LineX1;
	RectYmin = LineY1;
     1d0:	dd 54 24 10          	fstl   0x10(%esp)
     1d4:	d9 cd                	fxch   %st(5)
     1d6:	f2 0f 10 7c 24 10    	movsd  0x10(%esp),%xmm7
     1dc:	e9 5d fe ff ff       	jmp    3e <_RectTestLine+0x3e>
	RectXmax = LineX2;
     1e1:	d9 c1                	fld    %st(1)
int32 RectTestLine(double LineX1, double LineY1, double LineX2, double LineY2)
{
	double RectXmin, RectXmax, RectYmin, RectYmax, DifX, DifY, xa, xb, ya, yb;
	double rico, rico2;

	RectXmin = LineX1;
     1e3:	d9 c1                	fld    %st(1)
     1e5:	d9 cc                	fxch   %st(4)
     1e7:	e9 3a fe ff ff       	jmp    26 <_RectTestLine+0x26>
     1ec:	8d 74 26 00          	lea    0x0(%esi,%eiz,1),%esi
     1f0:	d9 cc                	fxch   %st(4)
     1f2:	eb 02                	jmp    1f6 <_RectTestLine+0x1f6>
     1f4:	d9 cc                	fxch   %st(4)


	if ((RectXmax < SearchMaxX) && (RectXmin > SearchMinX) && (RectYmax < SearchMaxY) && (RectYmin > SearchMinY))
		return 1;

	if (RectXmin == RectXmax)
     1f6:	db e9                	fucomi %st(1),%st
     1f8:	7a 66                	jp     260 <_RectTestLine+0x260>
     1fa:	75 64                	jne    260 <_RectTestLine+0x260>
     1fc:	dd dc                	fstp   %st(4)
     1fe:	dd d8                	fstp   %st(0)
     200:	dd d8                	fstp   %st(0)
     202:	dd d8                	fstp   %st(0)
     204:	dd d9                	fstp   %st(1)
	{
		if ((RectXmin > SearchMinX) && (RectXmin < SearchMaxX))
     206:	f2 0f 11 54 24 10    	movsd  %xmm2,0x10(%esp)
     20c:	dd 44 24 10          	fldl   0x10(%esp)
     210:	df e9                	fucomip %st(1),%st
     212:	dd d8                	fstp   %st(0)
     214:	0f 86 cb 01 00 00    	jbe    3e5 <_RectTestLine+0x3e5>
     21a:	84 c9                	test   %cl,%cl
     21c:	0f 84 c3 01 00 00    	je     3e5 <_RectTestLine+0x3e5>
		{
			if ((RectYmax > SearchMinY) || (RectYmin < SearchMaxY))
     222:	f2 0f 11 64 24 10    	movsd  %xmm4,0x10(%esp)
     228:	dd 44 24 10          	fldl   0x10(%esp)
     22c:	dd 44 24 08          	fldl   0x8(%esp)
	if ((RectXmax < SearchMinX) || (RectXmin > SearchMaxX) || (RectYmax < SearchMinY) || (RectYmin > SearchMaxY))
		return 0;


	if ((RectXmax < SearchMaxX) && (RectXmin > SearchMinX) && (RectYmax < SearchMaxY) && (RectYmin > SearchMinY))
		return 1;
     230:	b8 01 00 00 00       	mov    $0x1,%eax

	if (RectXmin == RectXmax)
	{
		if ((RectXmin > SearchMinX) && (RectXmin < SearchMaxX))
		{
			if ((RectYmax > SearchMinY) || (RectYmin < SearchMaxY))
     235:	df e9                	fucomip %st(1),%st
     237:	dd d8                	fstp   %st(0)
     239:	77 88                	ja     1c3 <_RectTestLine+0x1c3>
     23b:	f2 0f 11 74 24 10    	movsd  %xmm6,0x10(%esp)
     241:	dd 44 24 10          	fldl   0x10(%esp)
	rico2 = (rico2 - LineX1) / (LineY2 - LineY1);
	xa = ((SearchMinY - LineY1) * rico2) + LineX1;
	xb = ((SearchMaxY - LineY1) * rico2) + LineX1;

	if (((xa > SearchMinX) && (xa < SearchMaxX)) || ((xb > SearchMinX) && (xb < SearchMaxX)))
		return 1;
     245:	31 c0                	xor    %eax,%eax

	if (RectXmin == RectXmax)
	{
		if ((RectXmin > SearchMinX) && (RectXmin < SearchMaxX))
		{
			if ((RectYmax > SearchMinY) || (RectYmin < SearchMaxY))
     247:	f2 0f 11 7c 24 10    	movsd  %xmm7,0x10(%esp)
     24d:	dd 44 24 10          	fldl   0x10(%esp)
     251:	d9 c9                	fxch   %st(1)
	rico2 = (rico2 - LineX1) / (LineY2 - LineY1);
	xa = ((SearchMinY - LineY1) * rico2) + LineX1;
	xb = ((SearchMaxY - LineY1) * rico2) + LineX1;

	if (((xa > SearchMinX) && (xa < SearchMaxX)) || ((xb > SearchMinX) && (xb < SearchMaxX)))
		return 1;
     253:	df e9                	fucomip %st(1),%st
     255:	dd d8                	fstp   %st(0)
     257:	0f 97 c0             	seta   %al
     25a:	e9 64 ff ff ff       	jmp    1c3 <_RectTestLine+0x1c3>
     25f:	90                   	nop
		}

		return 0;
	}

	if (RectYmin == RectYmax)
     260:	f2 0f 11 7c 24 10    	movsd  %xmm7,0x10(%esp)
     266:	dd 44 24 10          	fldl   0x10(%esp)
     26a:	dd 44 24 08          	fldl   0x8(%esp)
     26e:	d9 c9                	fxch   %st(1)
     270:	df e9                	fucomip %st(1),%st
     272:	dd d8                	fstp   %st(0)
     274:	7a 0c                	jp     282 <_RectTestLine+0x282>
     276:	0f 84 04 01 00 00    	je     380 <_RectTestLine+0x380>
     27c:	dd d8                	fstp   %st(0)
     27e:	dd d8                	fstp   %st(0)
     280:	eb 04                	jmp    286 <_RectTestLine+0x286>
     282:	dd d8                	fstp   %st(0)
     284:	dd d8                	fstp   %st(0)

		return 0;

	}

	DifX = LineX2 - LineX1;
     286:	dc e9                	fsubr  %st,%st(1)
     288:	d9 ca                	fxch   %st(2)
	DifY = LineY2 - LineY1;
     28a:	d8 e3                	fsub   %st(3),%st
     28c:	d9 c9                	fxch   %st(1)

	if (DifX == DifY)
     28e:	db e9                	fucomi %st(1),%st
     290:	0f 8a 5a 01 00 00    	jp     3f0 <_RectTestLine+0x3f0>
     296:	0f 85 54 01 00 00    	jne    3f0 <_RectTestLine+0x3f0>
     29c:	dd d8                	fstp   %st(0)
     29e:	dd d8                	fstp   %st(0)
	{
		ya = SearchMinX - LineX1 + LineY1;
     2a0:	dd 54 24 10          	fstl   0x10(%esp)
     2a4:	d9 c9                	fxch   %st(1)
     2a6:	f2 0f 10 7c 24 10    	movsd  0x10(%esp),%xmm7
     2ac:	dd 54 24 10          	fstl   0x10(%esp)
     2b0:	f2 0f 10 c8          	movsd  %xmm0,%xmm1
     2b4:	f2 0f 5c cf          	subsd  %xmm7,%xmm1
     2b8:	f2 0f 10 7c 24 10    	movsd  0x10(%esp),%xmm7
     2be:	f2 0f 58 cf          	addsd  %xmm7,%xmm1
		xa = SearchMinY - LineY1 + LineX1;
		yb = SearchMaxX - LineX1 + LineY1;
		xb = SearchMaxY - LineY1 + LineX1;

		if (((ya > SearchMinY) && (ya < SearchMaxY)) || ((yb > SearchMinY) && (yb < SearchMaxY))
     2c2:	66 0f 2e cc          	ucomisd %xmm4,%xmm1
     2c6:	76 13                	jbe    2db <_RectTestLine+0x2db>
	if ((RectXmax < SearchMinX) || (RectXmin > SearchMaxX) || (RectYmax < SearchMinY) || (RectYmin > SearchMaxY))
		return 0;


	if ((RectXmax < SearchMaxX) && (RectXmin > SearchMinX) && (RectYmax < SearchMaxY) && (RectYmin > SearchMinY))
		return 1;
     2c8:	b8 01 00 00 00       	mov    $0x1,%eax
		ya = SearchMinX - LineX1 + LineY1;
		xa = SearchMinY - LineY1 + LineX1;
		yb = SearchMaxX - LineX1 + LineY1;
		xb = SearchMaxY - LineY1 + LineX1;

		if (((ya > SearchMinY) && (ya < SearchMaxY)) || ((yb > SearchMinY) && (yb < SearchMaxY))
     2cd:	66 0f 2e f1          	ucomisd %xmm1,%xmm6
     2d1:	0f 87 aa fe ff ff    	ja     181 <_RectTestLine+0x181>
     2d7:	d9 c9                	fxch   %st(1)
     2d9:	eb 02                	jmp    2dd <_RectTestLine+0x2dd>
     2db:	d9 c9                	fxch   %st(1)

	if (DifX == DifY)
	{
		ya = SearchMinX - LineX1 + LineY1;
		xa = SearchMinY - LineY1 + LineX1;
		yb = SearchMaxX - LineX1 + LineY1;
     2dd:	dd 54 24 10          	fstl   0x10(%esp)
     2e1:	d9 c9                	fxch   %st(1)
     2e3:	f2 0f 10 7c 24 10    	movsd  0x10(%esp),%xmm7
     2e9:	dd 54 24 10          	fstl   0x10(%esp)
     2ed:	f2 0f 10 ca          	movsd  %xmm2,%xmm1
     2f1:	f2 0f 5c cf          	subsd  %xmm7,%xmm1
     2f5:	f2 0f 10 7c 24 10    	movsd  0x10(%esp),%xmm7
     2fb:	f2 0f 58 cf          	addsd  %xmm7,%xmm1
		xb = SearchMaxY - LineY1 + LineX1;

		if (((ya > SearchMinY) && (ya < SearchMaxY)) || ((yb > SearchMinY) && (yb < SearchMaxY))
     2ff:	66 0f 2e cc          	ucomisd %xmm4,%xmm1
     303:	76 0f                	jbe    314 <_RectTestLine+0x314>
	if ((RectXmax < SearchMinX) || (RectXmin > SearchMaxX) || (RectYmax < SearchMinY) || (RectYmin > SearchMaxY))
		return 0;


	if ((RectXmax < SearchMaxX) && (RectXmin > SearchMinX) && (RectYmax < SearchMaxY) && (RectYmin > SearchMinY))
		return 1;
     305:	b8 01 00 00 00       	mov    $0x1,%eax
		ya = SearchMinX - LineX1 + LineY1;
		xa = SearchMinY - LineY1 + LineX1;
		yb = SearchMaxX - LineX1 + LineY1;
		xb = SearchMaxY - LineY1 + LineX1;

		if (((ya > SearchMinY) && (ya < SearchMaxY)) || ((yb > SearchMinY) && (yb < SearchMaxY))
     30a:	66 0f 2e f1          	ucomisd %xmm1,%xmm6
     30e:	0f 87 73 fe ff ff    	ja     187 <_RectTestLine+0x187>
	DifY = LineY2 - LineY1;

	if (DifX == DifY)
	{
		ya = SearchMinX - LineX1 + LineY1;
		xa = SearchMinY - LineY1 + LineX1;
     314:	dd 54 24 10          	fstl   0x10(%esp)
     318:	d9 c9                	fxch   %st(1)
     31a:	f2 0f 10 7c 24 10    	movsd  0x10(%esp),%xmm7
     320:	dd 54 24 10          	fstl   0x10(%esp)
     324:	f2 0f 5c e7          	subsd  %xmm7,%xmm4
     328:	f2 0f 10 7c 24 10    	movsd  0x10(%esp),%xmm7
     32e:	f2 0f 58 e7          	addsd  %xmm7,%xmm4
		yb = SearchMaxX - LineX1 + LineY1;
		xb = SearchMaxY - LineY1 + LineX1;

		if (((ya > SearchMinY) && (ya < SearchMaxY)) || ((yb > SearchMinY) && (yb < SearchMaxY))
		        || ((xa > SearchMinX) && (xa < SearchMaxX)) || ((xb > SearchMinX) && (xb < SearchMaxX)))
     332:	66 0f 2e e0          	ucomisd %xmm0,%xmm4
     336:	76 13                	jbe    34b <_RectTestLine+0x34b>
	if ((RectXmax < SearchMinX) || (RectXmin > SearchMaxX) || (RectYmax < SearchMinY) || (RectYmin > SearchMaxY))
		return 0;


	if ((RectXmax < SearchMaxX) && (RectXmin > SearchMinX) && (RectYmax < SearchMaxY) && (RectYmin > SearchMinY))
		return 1;
     338:	b8 01 00 00 00       	mov    $0x1,%eax
		xa = SearchMinY - LineY1 + LineX1;
		yb = SearchMaxX - LineX1 + LineY1;
		xb = SearchMaxY - LineY1 + LineX1;

		if (((ya > SearchMinY) && (ya < SearchMaxY)) || ((yb > SearchMinY) && (yb < SearchMaxY))
		        || ((xa > SearchMinX) && (xa < SearchMaxX)) || ((xb > SearchMinX) && (xb < SearchMaxX)))
     33d:	66 0f 2e d4          	ucomisd %xmm4,%xmm2
     341:	0f 87 46 fe ff ff    	ja     18d <_RectTestLine+0x18d>
     347:	d9 c9                	fxch   %st(1)
     349:	eb 02                	jmp    34d <_RectTestLine+0x34d>
     34b:	d9 c9                	fxch   %st(1)
	if (DifX == DifY)
	{
		ya = SearchMinX - LineX1 + LineY1;
		xa = SearchMinY - LineY1 + LineX1;
		yb = SearchMaxX - LineX1 + LineY1;
		xb = SearchMaxY - LineY1 + LineX1;
     34d:	dd 5c 24 10          	fstpl  0x10(%esp)
     351:	f2 0f 10 7c 24 10    	movsd  0x10(%esp),%xmm7
     357:	f2 0f 5c f7          	subsd  %xmm7,%xmm6
		return 1;

	rico2 = LineX2;
	rico2 = (rico2 - LineX1) / (LineY2 - LineY1);
	xa = ((SearchMinY - LineY1) * rico2) + LineX1;
	xb = ((SearchMaxY - LineY1) * rico2) + LineX1;
     35b:	dd 5c 24 10          	fstpl  0x10(%esp)
     35f:	f2 0f 10 7c 24 10    	movsd  0x10(%esp),%xmm7
     365:	f2 0f 58 f7          	addsd  %xmm7,%xmm6

	if (((xa > SearchMinX) && (xa < SearchMaxX)) || ((xb > SearchMinX) && (xb < SearchMaxX)))
     369:	66 0f 2e f0          	ucomisd %xmm0,%xmm6
     36d:	0f 97 c0             	seta   %al
     370:	31 d2                	xor    %edx,%edx
     372:	66 0f 2e d6          	ucomisd %xmm6,%xmm2
     376:	0f 97 c2             	seta   %dl
		RectYmin = LineY2;
		RectYmax = LineY1;
	}

	if ((RectXmax < SearchMinX) || (RectXmin > SearchMaxX) || (RectYmax < SearchMinY) || (RectYmin > SearchMaxY))
		return 0;
     379:	21 d0                	and    %edx,%eax
     37b:	e9 43 fe ff ff       	jmp    1c3 <_RectTestLine+0x1c3>
     380:	dd dc                	fstp   %st(4)
     382:	dd dc                	fstp   %st(4)
     384:	dd d8                	fstp   %st(0)
     386:	dd d8                	fstp   %st(0)
		return 0;
	}

	if (RectYmin == RectYmax)
	{
		if ((RectYmin > SearchMinY) && (RectYmin < SearchMaxY))
     388:	f2 0f 11 74 24 10    	movsd  %xmm6,0x10(%esp)
     38e:	dd 44 24 10          	fldl   0x10(%esp)
     392:	f2 0f 11 7c 24 10    	movsd  %xmm7,0x10(%esp)
     398:	dd 44 24 10          	fldl   0x10(%esp)
     39c:	d9 c9                	fxch   %st(1)
     39e:	df e9                	fucomip %st(1),%st
     3a0:	dd d8                	fstp   %st(0)
     3a2:	76 37                	jbe    3db <_RectTestLine+0x3db>
     3a4:	84 d2                	test   %dl,%dl
     3a6:	74 39                	je     3e1 <_RectTestLine+0x3e1>
		{
			if ((RectXmax > SearchMinX) || (RectXmin < SearchMaxX))
     3a8:	f2 0f 11 44 24 10    	movsd  %xmm0,0x10(%esp)
     3ae:	dd 44 24 10          	fldl   0x10(%esp)
     3b2:	d9 ca                	fxch   %st(2)
	if ((RectXmax < SearchMinX) || (RectXmin > SearchMaxX) || (RectYmax < SearchMinY) || (RectYmin > SearchMaxY))
		return 0;


	if ((RectXmax < SearchMaxX) && (RectXmin > SearchMinX) && (RectYmax < SearchMaxY) && (RectYmin > SearchMinY))
		return 1;
     3b4:	b8 01 00 00 00       	mov    $0x1,%eax

	if (RectYmin == RectYmax)
	{
		if ((RectYmin > SearchMinY) && (RectYmin < SearchMaxY))
		{
			if ((RectXmax > SearchMinX) || (RectXmin < SearchMaxX))
     3b9:	df ea                	fucomip %st(2),%st
     3bb:	dd d9                	fstp   %st(1)
     3bd:	0f 87 d0 fd ff ff    	ja     193 <_RectTestLine+0x193>
	rico2 = (rico2 - LineX1) / (LineY2 - LineY1);
	xa = ((SearchMinY - LineY1) * rico2) + LineX1;
	xb = ((SearchMaxY - LineY1) * rico2) + LineX1;

	if (((xa > SearchMinX) && (xa < SearchMaxX)) || ((xb > SearchMinX) && (xb < SearchMaxX)))
		return 1;
     3c3:	31 c0                	xor    %eax,%eax

	if (RectYmin == RectYmax)
	{
		if ((RectYmin > SearchMinY) && (RectYmin < SearchMaxY))
		{
			if ((RectXmax > SearchMinX) || (RectXmin < SearchMaxX))
     3c5:	f2 0f 11 54 24 10    	movsd  %xmm2,0x10(%esp)
     3cb:	dd 44 24 10          	fldl   0x10(%esp)
	rico2 = (rico2 - LineX1) / (LineY2 - LineY1);
	xa = ((SearchMinY - LineY1) * rico2) + LineX1;
	xb = ((SearchMaxY - LineY1) * rico2) + LineX1;

	if (((xa > SearchMinX) && (xa < SearchMaxX)) || ((xb > SearchMinX) && (xb < SearchMaxX)))
		return 1;
     3cf:	df e9                	fucomip %st(1),%st
     3d1:	dd d8                	fstp   %st(0)
     3d3:	0f 97 c0             	seta   %al
     3d6:	e9 e8 fd ff ff       	jmp    1c3 <_RectTestLine+0x1c3>
     3db:	dd d8                	fstp   %st(0)
     3dd:	dd d8                	fstp   %st(0)
     3df:	eb 04                	jmp    3e5 <_RectTestLine+0x3e5>
     3e1:	dd d8                	fstp   %st(0)
     3e3:	dd d8                	fstp   %st(0)
		{
			if ((RectYmax > SearchMinY) || (RectYmin < SearchMaxY))
				return 1;
		}

		return 0;
     3e5:	31 c0                	xor    %eax,%eax
     3e7:	e9 d7 fd ff ff       	jmp    1c3 <_RectTestLine+0x1c3>
     3ec:	8d 74 26 00          	lea    0x0(%esi,%eiz,1),%esi
			return 1;

		return 0;
	}

	if (DifX == -DifY)
     3f0:	d9 c1                	fld    %st(1)
     3f2:	d9 e0                	fchs   
     3f4:	df e9                	fucomip %st(1),%st
     3f6:	0f 8a 00 01 00 00    	jp     4fc <_RectTestLine+0x4fc>
     3fc:	0f 85 fe 00 00 00    	jne    500 <_RectTestLine+0x500>
     402:	dd d8                	fstp   %st(0)
     404:	dd d8                	fstp   %st(0)
	{
		ya = -SearchMinX + LineX1 + LineY1;
     406:	dd 54 24 10          	fstl   0x10(%esp)
     40a:	d9 c9                	fxch   %st(1)
     40c:	0f 57 0d 10 00 00 00 	xorps  0x10,%xmm1
     413:	f2 0f 10 7c 24 10    	movsd  0x10(%esp),%xmm7
     419:	dd 54 24 10          	fstl   0x10(%esp)
     41d:	f3 0f 5a c9          	cvtss2sd %xmm1,%xmm1
     421:	f2 0f 58 cf          	addsd  %xmm7,%xmm1
     425:	f2 0f 10 7c 24 10    	movsd  0x10(%esp),%xmm7
     42b:	f2 0f 58 cf          	addsd  %xmm7,%xmm1
		xa = -SearchMinY + LineY1 + LineX1;
		yb = -SearchMaxX + LineX1 + LineY1;
		xb = -SearchMaxY + LineY1 + LineX1;

		if (((ya > SearchMinY) && (ya < SearchMaxY)) || ((yb > SearchMinY) && (yb < SearchMaxY))
     42f:	66 0f 2e cc          	ucomisd %xmm4,%xmm1
     433:	76 13                	jbe    448 <_RectTestLine+0x448>
	if ((RectXmax < SearchMinX) || (RectXmin > SearchMaxX) || (RectYmax < SearchMinY) || (RectYmin > SearchMaxY))
		return 0;


	if ((RectXmax < SearchMaxX) && (RectXmin > SearchMinX) && (RectYmax < SearchMaxY) && (RectYmin > SearchMinY))
		return 1;
     435:	b8 01 00 00 00       	mov    $0x1,%eax
		ya = -SearchMinX + LineX1 + LineY1;
		xa = -SearchMinY + LineY1 + LineX1;
		yb = -SearchMaxX + LineX1 + LineY1;
		xb = -SearchMaxY + LineY1 + LineX1;

		if (((ya > SearchMinY) && (ya < SearchMaxY)) || ((yb > SearchMinY) && (yb < SearchMaxY))
     43a:	66 0f 2e f1          	ucomisd %xmm1,%xmm6
     43e:	0f 87 53 fd ff ff    	ja     197 <_RectTestLine+0x197>
     444:	d9 c9                	fxch   %st(1)
     446:	eb 02                	jmp    44a <_RectTestLine+0x44a>
     448:	d9 c9                	fxch   %st(1)

	if (DifX == -DifY)
	{
		ya = -SearchMinX + LineX1 + LineY1;
		xa = -SearchMinY + LineY1 + LineX1;
		yb = -SearchMaxX + LineX1 + LineY1;
     44a:	dd 54 24 10          	fstl   0x10(%esp)
     44e:	d9 c9                	fxch   %st(1)
     450:	0f 57 1d 10 00 00 00 	xorps  0x10,%xmm3
     457:	f2 0f 10 7c 24 10    	movsd  0x10(%esp),%xmm7
     45d:	f3 0f 10 cb          	movss  %xmm3,%xmm1
     461:	dd 54 24 10          	fstl   0x10(%esp)
     465:	f3 0f 5a c9          	cvtss2sd %xmm1,%xmm1
     469:	f2 0f 58 cf          	addsd  %xmm7,%xmm1
     46d:	f2 0f 10 7c 24 10    	movsd  0x10(%esp),%xmm7
     473:	f2 0f 58 cf          	addsd  %xmm7,%xmm1
		xb = -SearchMaxY + LineY1 + LineX1;

		if (((ya > SearchMinY) && (ya < SearchMaxY)) || ((yb > SearchMinY) && (yb < SearchMaxY))
     477:	66 0f 2e cc          	ucomisd %xmm4,%xmm1
     47b:	76 0f                	jbe    48c <_RectTestLine+0x48c>
	if ((RectXmax < SearchMinX) || (RectXmin > SearchMaxX) || (RectYmax < SearchMinY) || (RectYmin > SearchMaxY))
		return 0;


	if ((RectXmax < SearchMaxX) && (RectXmin > SearchMinX) && (RectYmax < SearchMaxY) && (RectYmin > SearchMinY))
		return 1;
     47d:	b8 01 00 00 00       	mov    $0x1,%eax
		ya = -SearchMinX + LineX1 + LineY1;
		xa = -SearchMinY + LineY1 + LineX1;
		yb = -SearchMaxX + LineX1 + LineY1;
		xb = -SearchMaxY + LineY1 + LineX1;

		if (((ya > SearchMinY) && (ya < SearchMaxY)) || ((yb > SearchMinY) && (yb < SearchMaxY))
     482:	66 0f 2e f1          	ucomisd %xmm1,%xmm6
     486:	0f 87 11 fd ff ff    	ja     19d <_RectTestLine+0x19d>
	}

	if (DifX == -DifY)
	{
		ya = -SearchMinX + LineX1 + LineY1;
		xa = -SearchMinY + LineY1 + LineX1;
     48c:	dd 54 24 10          	fstl   0x10(%esp)
     490:	d9 c9                	fxch   %st(1)
     492:	0f 57 2d 10 00 00 00 	xorps  0x10,%xmm5
     499:	f2 0f 10 7c 24 10    	movsd  0x10(%esp),%xmm7
     49f:	f3 0f 10 cd          	movss  %xmm5,%xmm1
     4a3:	dd 54 24 10          	fstl   0x10(%esp)
     4a7:	f3 0f 5a c9          	cvtss2sd %xmm1,%xmm1
     4ab:	f2 0f 58 cf          	addsd  %xmm7,%xmm1
     4af:	f2 0f 10 7c 24 10    	movsd  0x10(%esp),%xmm7
     4b5:	f2 0f 58 cf          	addsd  %xmm7,%xmm1
		yb = -SearchMaxX + LineX1 + LineY1;
		xb = -SearchMaxY + LineY1 + LineX1;

		if (((ya > SearchMinY) && (ya < SearchMaxY)) || ((yb > SearchMinY) && (yb < SearchMaxY))
		        || ((xa > SearchMinX) && (xa < SearchMaxX)) || ((xb > SearchMinX) && (xb < SearchMaxX)))
     4b9:	66 0f 2e c8          	ucomisd %xmm0,%xmm1
     4bd:	76 13                	jbe    4d2 <_RectTestLine+0x4d2>
	if ((RectXmax < SearchMinX) || (RectXmin > SearchMaxX) || (RectYmax < SearchMinY) || (RectYmin > SearchMaxY))
		return 0;


	if ((RectXmax < SearchMaxX) && (RectXmin > SearchMinX) && (RectYmax < SearchMaxY) && (RectYmin > SearchMinY))
		return 1;
     4bf:	b8 01 00 00 00       	mov    $0x1,%eax
		xa = -SearchMinY + LineY1 + LineX1;
		yb = -SearchMaxX + LineX1 + LineY1;
		xb = -SearchMaxY + LineY1 + LineX1;

		if (((ya > SearchMinY) && (ya < SearchMaxY)) || ((yb > SearchMinY) && (yb < SearchMaxY))
		        || ((xa > SearchMinX) && (xa < SearchMaxX)) || ((xb > SearchMinX) && (xb < SearchMaxX)))
     4c4:	66 0f 2e d1          	ucomisd %xmm1,%xmm2
     4c8:	0f 87 d5 fc ff ff    	ja     1a3 <_RectTestLine+0x1a3>
     4ce:	d9 c9                	fxch   %st(1)
     4d0:	eb 02                	jmp    4d4 <_RectTestLine+0x4d4>
     4d2:	d9 c9                	fxch   %st(1)
	if (DifX == -DifY)
	{
		ya = -SearchMinX + LineX1 + LineY1;
		xa = -SearchMinY + LineY1 + LineX1;
		yb = -SearchMaxX + LineX1 + LineY1;
		xb = -SearchMaxY + LineY1 + LineX1;
     4d4:	f3 0f 10 7c 24 04    	movss  0x4(%esp),%xmm7
     4da:	dd 5c 24 10          	fstpl  0x10(%esp)
     4de:	0f 57 3d 10 00 00 00 	xorps  0x10,%xmm7
     4e5:	f3 0f 10 f7          	movss  %xmm7,%xmm6
     4e9:	f2 0f 10 7c 24 10    	movsd  0x10(%esp),%xmm7
     4ef:	f3 0f 5a f6          	cvtss2sd %xmm6,%xmm6
     4f3:	f2 0f 58 f7          	addsd  %xmm7,%xmm6
     4f7:	e9 5f fe ff ff       	jmp    35b <_RectTestLine+0x35b>
     4fc:	d9 c9                	fxch   %st(1)
     4fe:	eb 02                	jmp    502 <_RectTestLine+0x502>
     500:	d9 c9                	fxch   %st(1)
		return 0;

	}

	rico = LineY2;
	rico = (rico - LineY1) / (LineX2 - LineX1);
     502:	dd 54 24 10          	fstl   0x10(%esp)
     506:	d9 c9                	fxch   %st(1)
     508:	f2 0f 10 5c 24 10    	movsd  0x10(%esp),%xmm3
     50e:	dd 54 24 10          	fstl   0x10(%esp)
     512:	d9 ca                	fxch   %st(2)
     514:	f2 0f 10 7c 24 10    	movsd  0x10(%esp),%xmm7
	ya = ((SearchMinX - LineX1) * rico) + LineY1;
     51a:	dd 54 24 10          	fstl   0x10(%esp)
     51e:	d9 cb                	fxch   %st(3)
		return 0;

	}

	rico = LineY2;
	rico = (rico - LineY1) / (LineX2 - LineX1);
     520:	f2 0f 5e df          	divsd  %xmm7,%xmm3
	ya = ((SearchMinX - LineX1) * rico) + LineY1;
     524:	f2 0f 10 7c 24 10    	movsd  0x10(%esp),%xmm7
     52a:	dd 54 24 10          	fstl   0x10(%esp)
     52e:	f2 0f 10 c8          	movsd  %xmm0,%xmm1
     532:	f2 0f 5c cf          	subsd  %xmm7,%xmm1
     536:	f2 0f 10 7c 24 10    	movsd  0x10(%esp),%xmm7
     53c:	f2 0f 59 cb          	mulsd  %xmm3,%xmm1
     540:	f2 0f 58 cf          	addsd  %xmm7,%xmm1
	yb = ((SearchMaxX - LineX1) * rico) + LineY1;

	if (((ya > SearchMinY) && (ya < SearchMaxY)) || ((yb > SearchMinY) && (yb < SearchMaxY)))
     544:	66 0f 2e cc          	ucomisd %xmm4,%xmm1
     548:	76 13                	jbe    55d <_RectTestLine+0x55d>
	if ((RectXmax < SearchMinX) || (RectXmin > SearchMaxX) || (RectYmax < SearchMinY) || (RectYmin > SearchMaxY))
		return 0;


	if ((RectXmax < SearchMaxX) && (RectXmin > SearchMinX) && (RectYmax < SearchMaxY) && (RectYmin > SearchMinY))
		return 1;
     54a:	b8 01 00 00 00       	mov    $0x1,%eax
	rico = LineY2;
	rico = (rico - LineY1) / (LineX2 - LineX1);
	ya = ((SearchMinX - LineX1) * rico) + LineY1;
	yb = ((SearchMaxX - LineX1) * rico) + LineY1;

	if (((ya > SearchMinY) && (ya < SearchMaxY)) || ((yb > SearchMinY) && (yb < SearchMaxY)))
     54f:	66 0f 2e f1          	ucomisd %xmm1,%xmm6
     553:	0f 87 50 fc ff ff    	ja     1a9 <_RectTestLine+0x1a9>
     559:	d9 cb                	fxch   %st(3)
     55b:	eb 02                	jmp    55f <_RectTestLine+0x55f>
     55d:	d9 cb                	fxch   %st(3)
	}

	rico = LineY2;
	rico = (rico - LineY1) / (LineX2 - LineX1);
	ya = ((SearchMinX - LineX1) * rico) + LineY1;
	yb = ((SearchMaxX - LineX1) * rico) + LineY1;
     55f:	dd 54 24 10          	fstl   0x10(%esp)
     563:	d9 cb                	fxch   %st(3)
     565:	f2 0f 10 7c 24 10    	movsd  0x10(%esp),%xmm7
     56b:	dd 54 24 10          	fstl   0x10(%esp)
     56f:	f2 0f 10 ca          	movsd  %xmm2,%xmm1
     573:	f2 0f 5c cf          	subsd  %xmm7,%xmm1
     577:	f2 0f 10 7c 24 10    	movsd  0x10(%esp),%xmm7
     57d:	f2 0f 59 d9          	mulsd  %xmm1,%xmm3
     581:	f2 0f 58 df          	addsd  %xmm7,%xmm3

	if (((ya > SearchMinY) && (ya < SearchMaxY)) || ((yb > SearchMinY) && (yb < SearchMaxY)))
     585:	66 0f 2e dc          	ucomisd %xmm4,%xmm3
     589:	76 13                	jbe    59e <_RectTestLine+0x59e>
	if ((RectXmax < SearchMinX) || (RectXmin > SearchMaxX) || (RectYmax < SearchMinY) || (RectYmin > SearchMaxY))
		return 0;


	if ((RectXmax < SearchMaxX) && (RectXmin > SearchMinX) && (RectYmax < SearchMaxY) && (RectYmin > SearchMinY))
		return 1;
     58b:	b8 01 00 00 00       	mov    $0x1,%eax
	rico = LineY2;
	rico = (rico - LineY1) / (LineX2 - LineX1);
	ya = ((SearchMinX - LineX1) * rico) + LineY1;
	yb = ((SearchMaxX - LineX1) * rico) + LineY1;

	if (((ya > SearchMinY) && (ya < SearchMaxY)) || ((yb > SearchMinY) && (yb < SearchMaxY)))
     590:	66 0f 2e f3          	ucomisd %xmm3,%xmm6
     594:	0f 87 19 fc ff ff    	ja     1b3 <_RectTestLine+0x1b3>
     59a:	d9 ca                	fxch   %st(2)
     59c:	eb 02                	jmp    5a0 <_RectTestLine+0x5a0>
     59e:	d9 ca                	fxch   %st(2)
		return 1;

	rico2 = LineX2;
	rico2 = (rico2 - LineX1) / (LineY2 - LineY1);
     5a0:	de f1                	fdivp  %st,%st(1)
     5a2:	d9 c9                	fxch   %st(1)
	xa = ((SearchMinY - LineY1) * rico2) + LineX1;
     5a4:	dd 54 24 10          	fstl   0x10(%esp)
     5a8:	d9 c9                	fxch   %st(1)
     5aa:	f2 0f 10 7c 24 10    	movsd  0x10(%esp),%xmm7
     5b0:	dd 54 24 10          	fstl   0x10(%esp)
     5b4:	d9 ca                	fxch   %st(2)
     5b6:	f2 0f 5c e7          	subsd  %xmm7,%xmm4
     5ba:	f2 0f 10 7c 24 10    	movsd  0x10(%esp),%xmm7
     5c0:	dd 54 24 10          	fstl   0x10(%esp)
     5c4:	f2 0f 59 e7          	mulsd  %xmm7,%xmm4
     5c8:	f2 0f 10 7c 24 10    	movsd  0x10(%esp),%xmm7
     5ce:	f2 0f 58 e7          	addsd  %xmm7,%xmm4
	xb = ((SearchMaxY - LineY1) * rico2) + LineX1;

	if (((xa > SearchMinX) && (xa < SearchMaxX)) || ((xb > SearchMinX) && (xb < SearchMaxX)))
     5d2:	66 0f 2e e0          	ucomisd %xmm0,%xmm4
     5d6:	76 13                	jbe    5eb <_RectTestLine+0x5eb>
	if ((RectXmax < SearchMinX) || (RectXmin > SearchMaxX) || (RectYmax < SearchMinY) || (RectYmin > SearchMaxY))
		return 0;


	if ((RectXmax < SearchMaxX) && (RectXmin > SearchMinX) && (RectYmax < SearchMaxY) && (RectYmin > SearchMinY))
		return 1;
     5d8:	b8 01 00 00 00       	mov    $0x1,%eax
	rico2 = LineX2;
	rico2 = (rico2 - LineX1) / (LineY2 - LineY1);
	xa = ((SearchMinY - LineY1) * rico2) + LineX1;
	xb = ((SearchMaxY - LineY1) * rico2) + LineX1;

	if (((xa > SearchMinX) && (xa < SearchMaxX)) || ((xb > SearchMinX) && (xb < SearchMaxX)))
     5dd:	66 0f 2e d4          	ucomisd %xmm4,%xmm2
     5e1:	0f 87 d6 fb ff ff    	ja     1bd <_RectTestLine+0x1bd>
     5e7:	d9 c9                	fxch   %st(1)
     5e9:	eb 02                	jmp    5ed <_RectTestLine+0x5ed>
     5eb:	d9 c9                	fxch   %st(1)
		return 1;

	rico2 = LineX2;
	rico2 = (rico2 - LineX1) / (LineY2 - LineY1);
	xa = ((SearchMinY - LineY1) * rico2) + LineX1;
	xb = ((SearchMaxY - LineY1) * rico2) + LineX1;
     5ed:	dd 5c 24 10          	fstpl  0x10(%esp)
     5f1:	d9 c9                	fxch   %st(1)
     5f3:	f2 0f 10 7c 24 10    	movsd  0x10(%esp),%xmm7
     5f9:	dd 5c 24 10          	fstpl  0x10(%esp)
     5fd:	f2 0f 5c f7          	subsd  %xmm7,%xmm6
     601:	f2 0f 10 7c 24 10    	movsd  0x10(%esp),%xmm7
     607:	f2 0f 59 f7          	mulsd  %xmm7,%xmm6
     60b:	e9 4b fd ff ff       	jmp    35b <_RectTestLine+0x35b>

00000610 <_RectTestCircleOutline>:
// ***************************************************************************************************
// ***************************************************************************************************
// ***************************************************************************************************

int32 RectTestCircleOutline(double CircleX, double CircleY, double CircleThickness, int32 CircleMode)
{
     610:	83 ec 4c             	sub    $0x4c,%esp
	double CircleXmin, CircleXmax, CircleYmin, CircleYmax, xa, ya;
	double r, rxmin, rymin, rxmax, rymax;

	CircleThickness = CircleThickness / 2;
     613:	dd 05 20 00 00 00    	fldl   0x20
// ***************************************************************************************************
// ***************************************************************************************************
// ***************************************************************************************************

int32 RectTestCircleOutline(double CircleX, double CircleY, double CircleThickness, int32 CircleMode)
{
     619:	f2 0f 10 44 24 50    	movsd  0x50(%esp),%xmm0
     61f:	8b 44 24 68          	mov    0x68(%esp),%eax
	double CircleXmin, CircleXmax, CircleYmin, CircleYmax, xa, ya;
	double r, rxmin, rymin, rxmax, rymax;

	CircleThickness = CircleThickness / 2;
     623:	dc 4c 24 60          	fmull  0x60(%esp)
// ***************************************************************************************************
// ***************************************************************************************************
// ***************************************************************************************************

int32 RectTestCircleOutline(double CircleX, double CircleY, double CircleThickness, int32 CircleMode)
{
     627:	f2 0f 10 4c 24 58    	movsd  0x58(%esp),%xmm1
	CircleXmax = CircleX;
	CircleYmin = CircleY;
	CircleYmax = CircleY;

	if ((CircleMode & 0xf0) > 0)
		CircleXmin = CircleX - CircleThickness;
     62d:	f2 0f 10 f0          	movsd  %xmm0,%xmm6
	CircleXmin = CircleX;
	CircleXmax = CircleX;
	CircleYmin = CircleY;
	CircleYmax = CircleY;

	if ((CircleMode & 0xf0) > 0)
     631:	a8 f0                	test   $0xf0,%al
     633:	74 0e                	je     643 <_RectTestCircleOutline+0x33>
		CircleXmin = CircleX - CircleThickness;
     635:	dd 54 24 10          	fstl   0x10(%esp)
     639:	f2 0f 10 6c 24 10    	movsd  0x10(%esp),%xmm5
     63f:	f2 0f 5c f5          	subsd  %xmm5,%xmm6

	if ((CircleMode & 0x3c) > 0)
		CircleYmin = CircleY - CircleThickness;
     643:	f2 0f 11 4c 24 10    	movsd  %xmm1,0x10(%esp)
	CircleYmax = CircleY;

	if ((CircleMode & 0xf0) > 0)
		CircleXmin = CircleX - CircleThickness;

	if ((CircleMode & 0x3c) > 0)
     649:	a8 3c                	test   $0x3c,%al
		CircleYmin = CircleY - CircleThickness;
     64b:	dd 44 24 10          	fldl   0x10(%esp)
	CircleYmax = CircleY;

	if ((CircleMode & 0xf0) > 0)
		CircleXmin = CircleX - CircleThickness;

	if ((CircleMode & 0x3c) > 0)
     64f:	74 02                	je     653 <_RectTestCircleOutline+0x43>
		CircleYmin = CircleY - CircleThickness;
     651:	d8 e1                	fsub   %st(1),%st

	if ((CircleMode & 0x0f) > 0)
     653:	a8 0f                	test   $0xf,%al
     655:	0f 84 b5 01 00 00    	je     810 <_RectTestCircleOutline+0x200>
     65b:	d9 c9                	fxch   %st(1)
		CircleXmax = CircleX + CircleThickness;
     65d:	dd 54 24 10          	fstl   0x10(%esp)
     661:	f2 0f 10 64 24 10    	movsd  0x10(%esp),%xmm4
     667:	f2 0f 58 e0          	addsd  %xmm0,%xmm4

	if ((CircleMode & 0xc3) > 0)
     66b:	a8 c3                	test   $0xc3,%al
     66d:	0f 84 93 01 00 00    	je     806 <_RectTestCircleOutline+0x1f6>
		CircleYmax = CircleY + CircleThickness;
     673:	dd 54 24 10          	fstl   0x10(%esp)
     677:	f2 0f 10 7c 24 10    	movsd  0x10(%esp),%xmm7
     67d:	f2 0f 58 f9          	addsd  %xmm1,%xmm7

	if ((CircleXmax < SearchMinX) || (CircleXmin > SearchMaxX) || (CircleYmax < SearchMinY)
     681:	f3 0f 5a 15 00 00 00 	cvtss2sd 0x0,%xmm2
     688:	00 
     689:	66 0f 2e d4          	ucomisd %xmm4,%xmm2
     68d:	0f 87 4d 01 00 00    	ja     7e0 <_RectTestCircleOutline+0x1d0>
     693:	f3 0f 5a 1d 00 00 00 	cvtss2sd 0x0,%xmm3
     69a:	00 
     69b:	66 0f 2e f3          	ucomisd %xmm3,%xmm6
     69f:	0f 87 41 01 00 00    	ja     7e6 <_RectTestCircleOutline+0x1d6>
     6a5:	f3 0f 5a 2d 00 00 00 	cvtss2sd 0x0,%xmm5
     6ac:	00 
     6ad:	66 0f 2e ef          	ucomisd %xmm7,%xmm5
     6b1:	0f 87 39 01 00 00    	ja     7f0 <_RectTestCircleOutline+0x1e0>
	        || (CircleYmin > SearchMaxY))
     6b7:	d9 05 00 00 00 00    	flds   0x0
     6bd:	d9 ca                	fxch   %st(2)
     6bf:	db ea                	fucomi %st(2),%st
     6c1:	0f 87 2f 01 00 00    	ja     7f6 <_RectTestCircleOutline+0x1e6>
		return 0;

	if ((CircleXmax < SearchMaxX) && (CircleXmin > SearchMinX) && (CircleYmax < SearchMaxY)
	        && (CircleYmin > SearchMinY))
     6c7:	f2 0f 11 6c 24 10    	movsd  %xmm5,0x10(%esp)
     6cd:	dd 44 24 10          	fldl   0x10(%esp)
     6d1:	d9 c9                	fxch   %st(1)
     6d3:	df e9                	fucomip %st(1),%st
     6d5:	dd d8                	fstp   %st(0)
     6d7:	0f 97 c2             	seta   %dl

	if ((CircleXmax < SearchMinX) || (CircleXmin > SearchMaxX) || (CircleYmax < SearchMinY)
	        || (CircleYmin > SearchMaxY))
		return 0;

	if ((CircleXmax < SearchMaxX) && (CircleXmin > SearchMinX) && (CircleYmax < SearchMaxY)
     6da:	66 0f 2e f2          	ucomisd %xmm2,%xmm6
     6de:	0f 97 c0             	seta   %al
     6e1:	21 d0                	and    %edx,%eax
     6e3:	66 0f 2e dc          	ucomisd %xmm4,%xmm3
     6e7:	0f 97 c2             	seta   %dl
	        && (CircleYmin > SearchMinY))
     6ea:	84 d0                	test   %dl,%al
     6ec:	0f 84 2e 01 00 00    	je     820 <_RectTestCircleOutline+0x210>
     6f2:	f2 0f 11 7c 24 10    	movsd  %xmm7,0x10(%esp)
     6f8:	dd 44 24 10          	fldl   0x10(%esp)
     6fc:	d9 ca                	fxch   %st(2)
     6fe:	df ea                	fucomip %st(2),%st
     700:	dd d9                	fstp   %st(1)
     702:	0f 86 1a 01 00 00    	jbe    822 <_RectTestCircleOutline+0x212>
     708:	dd d8                	fstp   %st(0)
     70a:	eb 06                	jmp    712 <_RectTestCircleOutline+0x102>
     70c:	8d 74 26 00          	lea    0x0(%esi,%eiz,1),%esi
     710:	dd d8                	fstp   %st(0)
		return 1;
     712:	b8 01 00 00 00       	mov    $0x1,%eax
     717:	e9 e6 00 00 00       	jmp    802 <_RectTestCircleOutline+0x1f2>
     71c:	8d 74 26 00          	lea    0x0(%esi,%eiz,1),%esi
     720:	f3 0f 5a 1d 00 00 00 	cvtss2sd 0x0,%xmm3
     727:	00 
		if (((CircleY - ya > SearchMinY) && (CircleY - ya < SearchMaxY))
		        || ((CircleY + ya > SearchMinY) && (CircleY + ya < SearchMaxY)))
			return 1;
	}

	rymin = SearchMinY - CircleY;
     728:	f2 0f 5c e9          	subsd  %xmm1,%xmm5
     72c:	f2 0f 11 6c 24 10    	movsd  %xmm5,0x10(%esp)
     732:	dd 44 24 10          	fldl   0x10(%esp)
	rymin = r - rymin * rymin;
     736:	d8 c8                	fmul   %st(0),%st
     738:	d9 c9                	fxch   %st(1)
	rymax = SearchMaxY - CircleY;
     73a:	f2 0f 5c d9          	subsd  %xmm1,%xmm3
     73e:	f2 0f 10 cb          	movsd  %xmm3,%xmm1
	rymax = r - rymax * rymax;
     742:	f2 0f 59 cb          	mulsd  %xmm3,%xmm1
		        || ((CircleY + ya > SearchMinY) && (CircleY + ya < SearchMaxY)))
			return 1;
	}

	rymin = SearchMinY - CircleY;
	rymin = r - rymin * rymin;
     746:	dd 54 24 10          	fstl   0x10(%esp)
     74a:	d9 c9                	fxch   %st(1)
     74c:	f2 0f 10 54 24 10    	movsd  0x10(%esp),%xmm2
     752:	dd 5c 24 10          	fstpl  0x10(%esp)
     756:	f2 0f 10 6c 24 10    	movsd  0x10(%esp),%xmm5
	rymax = SearchMaxY - CircleY;
	rymax = r - rymax * rymax;
     75c:	dd 5c 24 10          	fstpl  0x10(%esp)
		        || ((CircleY + ya > SearchMinY) && (CircleY + ya < SearchMaxY)))
			return 1;
	}

	rymin = SearchMinY - CircleY;
	rymin = r - rymin * rymin;
     760:	f2 0f 5c d5          	subsd  %xmm5,%xmm2
	rymax = SearchMaxY - CircleY;
	rymax = r - rymax * rymax;
     764:	f2 0f 10 6c 24 10    	movsd  0x10(%esp),%xmm5
     76a:	f2 0f 5c e9          	subsd  %xmm1,%xmm5
     76e:	f2 0f 10 cd          	movsd  %xmm5,%xmm1

	if (rymin >= 0)
     772:	66 0f 2e d4          	ucomisd %xmm4,%xmm2
     776:	72 58                	jb     7d0 <_RectTestCircleOutline+0x1c0>
	{
		xa = sqrt(rymin);
     778:	f2 0f 51 da          	sqrtsd %xmm2,%xmm3
     77c:	66 0f 2e db          	ucomisd %xmm3,%xmm3
     780:	0f 8a df 02 00 00    	jp     a65 <_RectTestCircleOutline+0x455>

		if (((CircleX - xa > SearchMinX) && (CircleX - xa < SearchMaxX))
     786:	f2 0f 10 e8          	movsd  %xmm0,%xmm5
     78a:	f3 0f 5a 15 00 00 00 	cvtss2sd 0x0,%xmm2
     791:	00 
     792:	f2 0f 5c eb          	subsd  %xmm3,%xmm5
     796:	66 0f 2e ea          	ucomisd %xmm2,%xmm5
     79a:	76 12                	jbe    7ae <_RectTestCircleOutline+0x19e>
     79c:	f3 0f 5a 35 00 00 00 	cvtss2sd 0x0,%xmm6
     7a3:	00 
     7a4:	66 0f 2e f5          	ucomisd %xmm5,%xmm6
     7a8:	0f 87 64 ff ff ff    	ja     712 <_RectTestCircleOutline+0x102>
		        || ((CircleX + xa > SearchMinX) && (CircleX + xa < SearchMaxX)))
     7ae:	f2 0f 58 d8          	addsd  %xmm0,%xmm3
     7b2:	66 0f 2e da          	ucomisd %xmm2,%xmm3
     7b6:	76 18                	jbe    7d0 <_RectTestCircleOutline+0x1c0>
     7b8:	f3 0f 5a 15 00 00 00 	cvtss2sd 0x0,%xmm2
     7bf:	00 
     7c0:	66 0f 2e d3          	ucomisd %xmm3,%xmm2
     7c4:	0f 87 48 ff ff ff    	ja     712 <_RectTestCircleOutline+0x102>
     7ca:	8d b6 00 00 00 00    	lea    0x0(%esi),%esi
			return 1;
	}

	if (rymax >= 0)
     7d0:	66 0f 2e cc          	ucomisd %xmm4,%xmm1
     7d4:	0f 83 37 01 00 00    	jae    911 <_RectTestCircleOutline+0x301>
     7da:	eb 24                	jmp    800 <_RectTestCircleOutline+0x1f0>
     7dc:	8d 74 26 00          	lea    0x0(%esi,%eiz,1),%esi
     7e0:	dd d8                	fstp   %st(0)
     7e2:	dd d8                	fstp   %st(0)
     7e4:	eb 1a                	jmp    800 <_RectTestCircleOutline+0x1f0>
     7e6:	dd d8                	fstp   %st(0)
     7e8:	dd d8                	fstp   %st(0)
     7ea:	eb 14                	jmp    800 <_RectTestCircleOutline+0x1f0>
     7ec:	8d 74 26 00          	lea    0x0(%esi,%eiz,1),%esi
     7f0:	dd d8                	fstp   %st(0)
     7f2:	dd d8                	fstp   %st(0)
     7f4:	eb 0a                	jmp    800 <_RectTestCircleOutline+0x1f0>
     7f6:	dd d8                	fstp   %st(0)
     7f8:	dd d8                	fstp   %st(0)
     7fa:	dd d8                	fstp   %st(0)
     7fc:	8d 74 26 00          	lea    0x0(%esi,%eiz,1),%esi
	if ((CircleMode & 0xc3) > 0)
		CircleYmax = CircleY + CircleThickness;

	if ((CircleXmax < SearchMinX) || (CircleXmin > SearchMaxX) || (CircleYmax < SearchMinY)
	        || (CircleYmin > SearchMaxY))
		return 0;
     800:	31 c0                	xor    %eax,%eax
			return 1;
	}

	return 0;

}
     802:	83 c4 4c             	add    $0x4c,%esp
     805:	c3                   	ret    

	CircleThickness = CircleThickness / 2;
	CircleXmin = CircleX;
	CircleXmax = CircleX;
	CircleYmin = CircleY;
	CircleYmax = CircleY;
     806:	f2 0f 10 f9          	movsd  %xmm1,%xmm7
     80a:	e9 72 fe ff ff       	jmp    681 <_RectTestCircleOutline+0x71>
     80f:	90                   	nop
     810:	d9 c9                	fxch   %st(1)
	double CircleXmin, CircleXmax, CircleYmin, CircleYmax, xa, ya;
	double r, rxmin, rymin, rxmax, rymax;

	CircleThickness = CircleThickness / 2;
	CircleXmin = CircleX;
	CircleXmax = CircleX;
     812:	f2 0f 10 e0          	movsd  %xmm0,%xmm4
     816:	e9 50 fe ff ff       	jmp    66b <_RectTestCircleOutline+0x5b>
     81b:	90                   	nop
     81c:	8d 74 26 00          	lea    0x0(%esi,%eiz,1),%esi
     820:	dd d9                	fstp   %st(1)
	if ((CircleXmax < SearchMaxX) && (CircleXmin > SearchMinX) && (CircleYmax < SearchMaxY)
	        && (CircleYmin > SearchMinY))
		return 1;

	r = CircleThickness;
	r = r * r;
     822:	d9 c0                	fld    %st(0)
     824:	de c9                	fmulp  %st,%st(1)
	rxmin = SearchMinX - CircleX;
     826:	f2 0f 5c d0          	subsd  %xmm0,%xmm2
     82a:	f2 0f 11 54 24 10    	movsd  %xmm2,0x10(%esp)
	rxmin = r - rxmin * rxmin;
	rxmax = SearchMaxX - CircleX;
     830:	f2 0f 5c d8          	subsd  %xmm0,%xmm3
	        && (CircleYmin > SearchMinY))
		return 1;

	r = CircleThickness;
	r = r * r;
	rxmin = SearchMinX - CircleX;
     834:	dd 44 24 10          	fldl   0x10(%esp)
	rxmin = r - rxmin * rxmin;
     838:	d8 c8                	fmul   %st(0),%st
     83a:	d9 c9                	fxch   %st(1)
	rxmax = SearchMaxX - CircleX;
	rxmax = r - rxmax * rxmax;

	if (rxmin >= 0)
     83c:	66 0f 57 e4          	xorpd  %xmm4,%xmm4
		return 1;

	r = CircleThickness;
	r = r * r;
	rxmin = SearchMinX - CircleX;
	rxmin = r - rxmin * rxmin;
     840:	dd 54 24 10          	fstl   0x10(%esp)
     844:	d9 c9                	fxch   %st(1)
     846:	f2 0f 10 54 24 10    	movsd  0x10(%esp),%xmm2
     84c:	dd 5c 24 10          	fstpl  0x10(%esp)
     850:	f2 0f 10 7c 24 10    	movsd  0x10(%esp),%xmm7
	rxmax = SearchMaxX - CircleX;
     856:	f2 0f 11 5c 24 10    	movsd  %xmm3,0x10(%esp)
     85c:	dd 44 24 10          	fldl   0x10(%esp)
	rxmax = r - rxmax * rxmax;
     860:	d8 c8                	fmul   %st(0),%st
     862:	d9 c9                	fxch   %st(1)
		return 1;

	r = CircleThickness;
	r = r * r;
	rxmin = SearchMinX - CircleX;
	rxmin = r - rxmin * rxmin;
     864:	f2 0f 5c d7          	subsd  %xmm7,%xmm2
	rxmax = SearchMaxX - CircleX;
	rxmax = r - rxmax * rxmax;

	if (rxmin >= 0)
     868:	66 0f 2e d4          	ucomisd %xmm4,%xmm2
	r = CircleThickness;
	r = r * r;
	rxmin = SearchMinX - CircleX;
	rxmin = r - rxmin * rxmin;
	rxmax = SearchMaxX - CircleX;
	rxmax = r - rxmax * rxmax;
     86c:	dd 54 24 10          	fstl   0x10(%esp)
     870:	d9 c9                	fxch   %st(1)
     872:	f2 0f 10 5c 24 10    	movsd  0x10(%esp),%xmm3
     878:	dd 5c 24 10          	fstpl  0x10(%esp)
     87c:	f2 0f 10 7c 24 10    	movsd  0x10(%esp),%xmm7
     882:	f2 0f 5c df          	subsd  %xmm7,%xmm3

	if (rxmin >= 0)
     886:	72 3c                	jb     8c4 <_RectTestCircleOutline+0x2b4>
	{
		ya = sqrt(rxmin);
     888:	f2 0f 51 f2          	sqrtsd %xmm2,%xmm6
     88c:	66 0f 2e f6          	ucomisd %xmm6,%xmm6
     890:	0f 8a 04 01 00 00    	jp     99a <_RectTestCircleOutline+0x38a>

		if (((CircleY - ya > SearchMinY) && (CircleY - ya < SearchMaxY))
     896:	f2 0f 10 d1          	movsd  %xmm1,%xmm2
     89a:	f2 0f 5c d6          	subsd  %xmm6,%xmm2
     89e:	66 0f 2e d5          	ucomisd %xmm5,%xmm2
     8a2:	76 12                	jbe    8b6 <_RectTestCircleOutline+0x2a6>
     8a4:	f3 0f 5a 3d 00 00 00 	cvtss2sd 0x0,%xmm7
     8ab:	00 
     8ac:	66 0f 2e fa          	ucomisd %xmm2,%xmm7
     8b0:	0f 87 5a fe ff ff    	ja     710 <_RectTestCircleOutline+0x100>
		        || ((CircleY + ya > SearchMinY) && (CircleY + ya < SearchMaxY)))
     8b6:	f2 0f 58 f1          	addsd  %xmm1,%xmm6
     8ba:	66 0f 2e f5          	ucomisd %xmm5,%xmm6
     8be:	0f 87 bd 00 00 00    	ja     981 <_RectTestCircleOutline+0x371>
			return 1;
	}

	if (rxmax >= 0)
     8c4:	66 0f 2e dc          	ucomisd %xmm4,%xmm3
     8c8:	0f 82 52 fe ff ff    	jb     720 <_RectTestCircleOutline+0x110>
	{
		ya = sqrt(rxmax);
     8ce:	f2 0f 51 d3          	sqrtsd %xmm3,%xmm2
     8d2:	66 0f 2e d2          	ucomisd %xmm2,%xmm2
     8d6:	0f 8a 17 01 00 00    	jp     9f3 <_RectTestCircleOutline+0x3e3>

		if (((CircleY - ya > SearchMinY) && (CircleY - ya < SearchMaxY))
     8dc:	f2 0f 10 f1          	movsd  %xmm1,%xmm6
     8e0:	f2 0f 5c f2          	subsd  %xmm2,%xmm6
     8e4:	66 0f 2e f5          	ucomisd %xmm5,%xmm6
     8e8:	f3 0f 5a 1d 00 00 00 	cvtss2sd 0x0,%xmm3
     8ef:	00 
     8f0:	77 7e                	ja     970 <_RectTestCircleOutline+0x360>
		        || ((CircleY + ya > SearchMinY) && (CircleY + ya < SearchMaxY)))
     8f2:	f2 0f 58 d1          	addsd  %xmm1,%xmm2
     8f6:	66 0f 2e d5          	ucomisd %xmm5,%xmm2
     8fa:	0f 86 28 fe ff ff    	jbe    728 <_RectTestCircleOutline+0x118>
     900:	66 0f 2e da          	ucomisd %xmm2,%xmm3
     904:	0f 86 1e fe ff ff    	jbe    728 <_RectTestCircleOutline+0x118>
     90a:	dd d8                	fstp   %st(0)
     90c:	e9 01 fe ff ff       	jmp    712 <_RectTestCircleOutline+0x102>
			return 1;
	}

	if (rymax >= 0)
	{
		xa = sqrt(rymax);
     911:	f2 0f 51 d1          	sqrtsd %xmm1,%xmm2
     915:	66 0f 2e d2          	ucomisd %xmm2,%xmm2
     919:	0f 8a 21 01 00 00    	jp     a40 <_RectTestCircleOutline+0x430>

		if (((CircleX - xa > SearchMinX) && (CircleX - xa < SearchMaxX))
     91f:	f2 0f 10 d8          	movsd  %xmm0,%xmm3
     923:	f3 0f 5a 0d 00 00 00 	cvtss2sd 0x0,%xmm1
     92a:	00 
     92b:	f2 0f 5c da          	subsd  %xmm2,%xmm3
     92f:	66 0f 2e d9          	ucomisd %xmm1,%xmm3
     933:	76 12                	jbe    947 <_RectTestCircleOutline+0x337>
     935:	f3 0f 5a 25 00 00 00 	cvtss2sd 0x0,%xmm4
     93c:	00 
     93d:	66 0f 2e e3          	ucomisd %xmm3,%xmm4
     941:	0f 87 cb fd ff ff    	ja     712 <_RectTestCircleOutline+0x102>
		        || ((CircleX + xa > SearchMinX) && (CircleX + xa < SearchMaxX)))
     947:	f2 0f 58 c2          	addsd  %xmm2,%xmm0
     94b:	66 0f 2e c1          	ucomisd %xmm1,%xmm0
     94f:	0f 86 ab fe ff ff    	jbe    800 <_RectTestCircleOutline+0x1f0>
     955:	f3 0f 5a 0d 00 00 00 	cvtss2sd 0x0,%xmm1
     95c:	00 
	if ((CircleMode & 0xc3) > 0)
		CircleYmax = CircleY + CircleThickness;

	if ((CircleXmax < SearchMinX) || (CircleXmin > SearchMaxX) || (CircleYmax < SearchMinY)
	        || (CircleYmin > SearchMaxY))
		return 0;
     95d:	31 c0                	xor    %eax,%eax
     95f:	66 0f 2e c8          	ucomisd %xmm0,%xmm1
     963:	0f 97 c0             	seta   %al
     966:	e9 97 fe ff ff       	jmp    802 <_RectTestCircleOutline+0x1f2>
     96b:	90                   	nop
     96c:	8d 74 26 00          	lea    0x0(%esi,%eiz,1),%esi

	if (rxmax >= 0)
	{
		ya = sqrt(rxmax);

		if (((CircleY - ya > SearchMinY) && (CircleY - ya < SearchMaxY))
     970:	66 0f 2e de          	ucomisd %xmm6,%xmm3
     974:	0f 86 78 ff ff ff    	jbe    8f2 <_RectTestCircleOutline+0x2e2>
     97a:	dd d8                	fstp   %st(0)
     97c:	e9 91 fd ff ff       	jmp    712 <_RectTestCircleOutline+0x102>
	if (rxmin >= 0)
	{
		ya = sqrt(rxmin);

		if (((CircleY - ya > SearchMinY) && (CircleY - ya < SearchMaxY))
		        || ((CircleY + ya > SearchMinY) && (CircleY + ya < SearchMaxY)))
     981:	f3 0f 5a 15 00 00 00 	cvtss2sd 0x0,%xmm2
     988:	00 
     989:	66 0f 2e d6          	ucomisd %xmm6,%xmm2
     98d:	0f 86 31 ff ff ff    	jbe    8c4 <_RectTestCircleOutline+0x2b4>
     993:	dd d8                	fstp   %st(0)
     995:	e9 78 fd ff ff       	jmp    712 <_RectTestCircleOutline+0x102>
     99a:	dd 5c 24 18          	fstpl  0x18(%esp)
     99e:	f2 0f 11 64 24 38    	movsd  %xmm4,0x38(%esp)
     9a4:	f2 0f 11 4c 24 30    	movsd  %xmm1,0x30(%esp)
     9aa:	f2 0f 11 44 24 28    	movsd  %xmm0,0x28(%esp)
     9b0:	f2 0f 11 5c 24 20    	movsd  %xmm3,0x20(%esp)
	rxmax = SearchMaxX - CircleX;
	rxmax = r - rxmax * rxmax;

	if (rxmin >= 0)
	{
		ya = sqrt(rxmin);
     9b6:	f2 0f 11 14 24       	movsd  %xmm2,(%esp)
     9bb:	e8 00 00 00 00       	call   9c0 <_RectTestCircleOutline+0x3b0>
     9c0:	f3 0f 5a 2d 00 00 00 	cvtss2sd 0x0,%xmm5
     9c7:	00 
     9c8:	dd 5c 24 10          	fstpl  0x10(%esp)
     9cc:	f2 0f 10 64 24 38    	movsd  0x38(%esp),%xmm4
     9d2:	f2 0f 10 74 24 10    	movsd  0x10(%esp),%xmm6
     9d8:	f2 0f 10 4c 24 30    	movsd  0x30(%esp),%xmm1
     9de:	f2 0f 10 44 24 28    	movsd  0x28(%esp),%xmm0
     9e4:	f2 0f 10 5c 24 20    	movsd  0x20(%esp),%xmm3
     9ea:	dd 44 24 18          	fldl   0x18(%esp)
     9ee:	e9 a3 fe ff ff       	jmp    896 <_RectTestCircleOutline+0x286>
     9f3:	dd 5c 24 18          	fstpl  0x18(%esp)
     9f7:	f2 0f 11 64 24 30    	movsd  %xmm4,0x30(%esp)
     9fd:	f2 0f 11 4c 24 28    	movsd  %xmm1,0x28(%esp)
     a03:	f2 0f 11 44 24 20    	movsd  %xmm0,0x20(%esp)
			return 1;
	}

	if (rxmax >= 0)
	{
		ya = sqrt(rxmax);
     a09:	f2 0f 11 1c 24       	movsd  %xmm3,(%esp)
     a0e:	e8 00 00 00 00       	call   a13 <_RectTestCircleOutline+0x403>
     a13:	f3 0f 5a 2d 00 00 00 	cvtss2sd 0x0,%xmm5
     a1a:	00 
     a1b:	dd 5c 24 10          	fstpl  0x10(%esp)
     a1f:	f2 0f 10 64 24 30    	movsd  0x30(%esp),%xmm4
     a25:	f2 0f 10 54 24 10    	movsd  0x10(%esp),%xmm2
     a2b:	f2 0f 10 4c 24 28    	movsd  0x28(%esp),%xmm1
     a31:	f2 0f 10 44 24 20    	movsd  0x20(%esp),%xmm0
     a37:	dd 44 24 18          	fldl   0x18(%esp)
     a3b:	e9 9c fe ff ff       	jmp    8dc <_RectTestCircleOutline+0x2cc>
     a40:	f2 0f 11 44 24 18    	movsd  %xmm0,0x18(%esp)
			return 1;
	}

	if (rymax >= 0)
	{
		xa = sqrt(rymax);
     a46:	f2 0f 11 0c 24       	movsd  %xmm1,(%esp)
     a4b:	e8 00 00 00 00       	call   a50 <_RectTestCircleOutline+0x440>
     a50:	f2 0f 10 44 24 18    	movsd  0x18(%esp),%xmm0
     a56:	dd 5c 24 10          	fstpl  0x10(%esp)
     a5a:	f2 0f 10 54 24 10    	movsd  0x10(%esp),%xmm2
     a60:	e9 ba fe ff ff       	jmp    91f <_RectTestCircleOutline+0x30f>
     a65:	f2 0f 11 64 24 28    	movsd  %xmm4,0x28(%esp)
     a6b:	f2 0f 11 44 24 20    	movsd  %xmm0,0x20(%esp)
     a71:	f2 0f 11 6c 24 18    	movsd  %xmm5,0x18(%esp)
	rymax = SearchMaxY - CircleY;
	rymax = r - rymax * rymax;

	if (rymin >= 0)
	{
		xa = sqrt(rymin);
     a77:	f2 0f 11 14 24       	movsd  %xmm2,(%esp)
     a7c:	e8 00 00 00 00       	call   a81 <_RectTestCircleOutline+0x471>
     a81:	f2 0f 10 64 24 28    	movsd  0x28(%esp),%xmm4
     a87:	dd 5c 24 10          	fstpl  0x10(%esp)
     a8b:	f2 0f 10 44 24 20    	movsd  0x20(%esp),%xmm0
     a91:	f2 0f 10 5c 24 10    	movsd  0x10(%esp),%xmm3
     a97:	f2 0f 10 4c 24 18    	movsd  0x18(%esp),%xmm1
     a9d:	e9 e4 fc ff ff       	jmp    786 <_RectTestCircleOutline+0x176>
     aa2:	8d b4 26 00 00 00 00 	lea    0x0(%esi,%eiz,1),%esi
     aa9:	8d bc 27 00 00 00 00 	lea    0x0(%edi,%eiz,1),%edi

00000ab0 <_RectTestCircle>:
// ***************************************************************************************************
// ***************************************************************************************************
// ***************************************************************************************************

int32 RectTestCircle(double CircleX, double CircleY, double CircleThickness, int32 CircleMode)
{
     ab0:	83 ec 1c             	sub    $0x1c,%esp
	double CircleXmin, CircleXmax, CircleYmin, CircleYmax, CircleThickness2;
	double r, rxmin, rymin, rxmax, rymax;

	CircleThickness2 = CircleThickness / 2;
     ab3:	f2 0f 10 05 20 00 00 	movsd  0x20,%xmm0
     aba:	00 
// ***************************************************************************************************
// ***************************************************************************************************
// ***************************************************************************************************

int32 RectTestCircle(double CircleX, double CircleY, double CircleThickness, int32 CircleMode)
{
     abb:	f2 0f 10 54 24 20    	movsd  0x20(%esp),%xmm2
     ac1:	f2 0f 10 6c 24 30    	movsd  0x30(%esp),%xmm5
     ac7:	8b 54 24 38          	mov    0x38(%esp),%edx
     acb:	f2 0f 10 4c 24 28    	movsd  0x28(%esp),%xmm1
	double CircleXmin, CircleXmax, CircleYmin, CircleYmax, CircleThickness2;
	double r, rxmin, rymin, rxmax, rymax;

	CircleThickness2 = CircleThickness / 2;
     ad1:	f2 0f 59 c5          	mulsd  %xmm5,%xmm0
	CircleYmin = CircleY;
	CircleXmax = CircleX;
	CircleYmax = CircleY;

	if ((CircleMode & 0xf0) > 0)
		CircleXmin = CircleX - CircleThickness2;
     ad5:	f2 0f 10 fa          	movsd  %xmm2,%xmm7
	CircleXmin = CircleX;
	CircleYmin = CircleY;
	CircleXmax = CircleX;
	CircleYmax = CircleY;

	if ((CircleMode & 0xf0) > 0)
     ad9:	f6 c2 f0             	test   $0xf0,%dl
     adc:	74 04                	je     ae2 <_RectTestCircle+0x32>
		CircleXmin = CircleX - CircleThickness2;
     ade:	f2 0f 5c f8          	subsd  %xmm0,%xmm7

	if ((CircleMode & 0x3c) > 0)
     ae2:	f6 c2 3c             	test   $0x3c,%dl
     ae5:	0f 84 c5 01 00 00    	je     cb0 <_RectTestCircle+0x200>
		CircleYmin = CircleY - CircleThickness2;
     aeb:	f2 0f 10 f1          	movsd  %xmm1,%xmm6
     aef:	f2 0f 5c f0          	subsd  %xmm0,%xmm6
     af3:	f2 0f 11 74 24 08    	movsd  %xmm6,0x8(%esp)
     af9:	dd 44 24 08          	fldl   0x8(%esp)

	if ((CircleMode & 0x0f) > 0)
		CircleXmax = CircleX + CircleThickness2;
     afd:	f2 0f 10 e2          	movsd  %xmm2,%xmm4
		CircleXmin = CircleX - CircleThickness2;

	if ((CircleMode & 0x3c) > 0)
		CircleYmin = CircleY - CircleThickness2;

	if ((CircleMode & 0x0f) > 0)
     b01:	f6 c2 0f             	test   $0xf,%dl
     b04:	74 04                	je     b0a <_RectTestCircle+0x5a>
		CircleXmax = CircleX + CircleThickness2;
     b06:	f2 0f 58 e0          	addsd  %xmm0,%xmm4

	if ((CircleMode & 0xc3) > 0)
     b0a:	f6 c2 c3             	test   $0xc3,%dl
     b0d:	0f 84 8d 01 00 00    	je     ca0 <_RectTestCircle+0x1f0>
		CircleYmax = CircleY + CircleThickness2;
     b13:	f2 0f 10 d9          	movsd  %xmm1,%xmm3
     b17:	f2 0f 58 d8          	addsd  %xmm0,%xmm3
     b1b:	f2 0f 11 5c 24 08    	movsd  %xmm3,0x8(%esp)
     b21:	dd 44 24 08          	fldl   0x8(%esp)

	if ((CircleXmax < SearchMinX) || (CircleXmin > SearchMaxX) || (CircleYmax < SearchMinY)
     b25:	f3 0f 5a 1d 00 00 00 	cvtss2sd 0x0,%xmm3
     b2c:	00 
     b2d:	66 0f 2e dc          	ucomisd %xmm4,%xmm3
     b31:	0f 87 31 01 00 00    	ja     c68 <_RectTestCircle+0x1b8>
     b37:	d9 05 00 00 00 00    	flds   0x0
     b3d:	f2 0f 11 7c 24 08    	movsd  %xmm7,0x8(%esp)
     b43:	dd 44 24 08          	fldl   0x8(%esp)
     b47:	df e9                	fucomip %st(1),%st
     b49:	0f 87 21 01 00 00    	ja     c70 <_RectTestCircle+0x1c0>
     b4f:	f3 0f 5a 35 00 00 00 	cvtss2sd 0x0,%xmm6
     b56:	00 
     b57:	f2 0f 11 74 24 08    	movsd  %xmm6,0x8(%esp)
     b5d:	dd 44 24 08          	fldl   0x8(%esp)
     b61:	db ea                	fucomi %st(2),%st
     b63:	0f 87 0f 01 00 00    	ja     c78 <_RectTestCircle+0x1c8>
	        || (CircleYmin > SearchMaxY))
     b69:	d9 05 00 00 00 00    	flds   0x0
     b6f:	d9 cc                	fxch   %st(4)
     b71:	db ec                	fucomi %st(4),%st
     b73:	0f 87 09 01 00 00    	ja     c82 <_RectTestCircle+0x1d2>
		return 0;

	if ((CircleXmax <= SearchMaxX) && (CircleXmin >= SearchMinX) && (CircleYmax <= SearchMaxY)
	        && (CircleYmin >= SearchMinY))
     b79:	df e9                	fucomip %st(1),%st
     b7b:	dd d8                	fstp   %st(0)

	if ((CircleXmax < SearchMinX) || (CircleXmin > SearchMaxX) || (CircleYmax < SearchMinY)
	        || (CircleYmin > SearchMaxY))
		return 0;

	if ((CircleXmax <= SearchMaxX) && (CircleXmin >= SearchMinX) && (CircleYmax <= SearchMaxY)
     b7d:	f2 0f 11 64 24 08    	movsd  %xmm4,0x8(%esp)
	        && (CircleYmin >= SearchMinY))
     b83:	0f 93 c1             	setae  %cl

	if ((CircleXmax < SearchMinX) || (CircleXmin > SearchMaxX) || (CircleYmax < SearchMinY)
	        || (CircleYmin > SearchMaxY))
		return 0;

	if ((CircleXmax <= SearchMaxX) && (CircleXmin >= SearchMinX) && (CircleYmax <= SearchMaxY)
     b86:	dd 44 24 08          	fldl   0x8(%esp)
     b8a:	d9 c9                	fxch   %st(1)
     b8c:	66 0f 2e fb          	ucomisd %xmm3,%xmm7
     b90:	0f 93 c0             	setae  %al
     b93:	21 c8                	and    %ecx,%eax
     b95:	db e9                	fucomi %st(1),%st
     b97:	dd d9                	fstp   %st(1)
     b99:	0f 93 c1             	setae  %cl
	        && (CircleYmin >= SearchMinY))
     b9c:	84 c8                	test   %cl,%al
     b9e:	74 15                	je     bb5 <_RectTestCircle+0x105>
     ba0:	d9 ca                	fxch   %st(2)
		return 1;
     ba2:	b8 01 00 00 00       	mov    $0x1,%eax
	if ((CircleXmax < SearchMinX) || (CircleXmin > SearchMaxX) || (CircleYmax < SearchMinY)
	        || (CircleYmin > SearchMaxY))
		return 0;

	if ((CircleXmax <= SearchMaxX) && (CircleXmin >= SearchMinX) && (CircleYmax <= SearchMaxY)
	        && (CircleYmin >= SearchMinY))
     ba7:	db e9                	fucomi %st(1),%st
     ba9:	dd d9                	fstp   %st(1)
     bab:	0f 83 e3 00 00 00    	jae    c94 <_RectTestCircle+0x1e4>
     bb1:	d9 c9                	fxch   %st(1)
     bb3:	eb 02                	jmp    bb7 <_RectTestCircle+0x107>
     bb5:	dd d9                	fstp   %st(1)
		return 1;

	r = CircleThickness2;
	r = r * r;

	rxmin = SearchMinX - CircleX;
     bb7:	f2 0f 5c da          	subsd  %xmm2,%xmm3
	rxmin = rxmin * rxmin;
     bbb:	f2 0f 59 db          	mulsd  %xmm3,%xmm3
	rxmax = SearchMaxX - CircleX;
	rxmax = rxmax * rxmax;
	rymin = SearchMinY - CircleY;
     bbf:	f2 0f 5c f1          	subsd  %xmm1,%xmm6
	rymin = rymin * rymin;
     bc3:	f2 0f 59 f6          	mulsd  %xmm6,%xmm6
	rymax = SearchMaxY - CircleY;
	rymax = rymax * rymax;

	if (rxmin + rymin < r)
     bc7:	f2 0f 10 e3          	movsd  %xmm3,%xmm4
	if ((CircleXmax <= SearchMaxX) && (CircleXmin >= SearchMinX) && (CircleYmax <= SearchMaxY)
	        && (CircleYmin >= SearchMinY))
		return 1;

	r = CircleThickness2;
	r = r * r;
     bcb:	f2 0f 59 c0          	mulsd  %xmm0,%xmm0
	rymin = SearchMinY - CircleY;
	rymin = rymin * rymin;
	rymax = SearchMaxY - CircleY;
	rymax = rymax * rymax;

	if (rxmin + rymin < r)
     bcf:	f2 0f 58 e6          	addsd  %xmm6,%xmm4
     bd3:	66 0f 2e c4          	ucomisd %xmm4,%xmm0
     bd7:	0f 87 e3 00 00 00    	ja     cc0 <_RectTestCircle+0x210>
	rxmin = rxmin * rxmin;
	rxmax = SearchMaxX - CircleX;
	rxmax = rxmax * rxmax;
	rymin = SearchMinY - CircleY;
	rymin = rymin * rymin;
	rymax = SearchMaxY - CircleY;
     bdd:	f2 0f 11 4c 24 08    	movsd  %xmm1,0x8(%esp)
     be3:	dd 44 24 08          	fldl   0x8(%esp)
     be7:	de ea                	fsubrp %st,%st(2)
     be9:	d9 c9                	fxch   %st(1)
	rymax = rymax * rymax;
     beb:	d8 c8                	fmul   %st(0),%st

	if (rxmin + rymin < r)
		return 1;

	if (rxmin + rymax < r)
     bed:	dd 54 24 08          	fstl   0x8(%esp)
     bf1:	f2 0f 10 7c 24 08    	movsd  0x8(%esp),%xmm7
     bf7:	f2 0f 58 df          	addsd  %xmm7,%xmm3
     bfb:	66 0f 2e c3          	ucomisd %xmm3,%xmm0
     bff:	0f 87 c1 00 00 00    	ja     cc6 <_RectTestCircle+0x216>
	r = CircleThickness2;
	r = r * r;

	rxmin = SearchMinX - CircleX;
	rxmin = rxmin * rxmin;
	rxmax = SearchMaxX - CircleX;
     c05:	f2 0f 11 54 24 08    	movsd  %xmm2,0x8(%esp)
     c0b:	dd 44 24 08          	fldl   0x8(%esp)
     c0f:	de ea                	fsubrp %st,%st(2)
     c11:	d9 c9                	fxch   %st(1)
	rxmax = rxmax * rxmax;
     c13:	d8 c8                	fmul   %st(0),%st
		return 1;

	if (rxmin + rymax < r)
		return 1;

	if (rxmax + rymin < r)
     c15:	dd 54 24 08          	fstl   0x8(%esp)
     c19:	f2 0f 10 7c 24 08    	movsd  0x8(%esp),%xmm7
     c1f:	f2 0f 58 f7          	addsd  %xmm7,%xmm6
     c23:	66 0f 2e c6          	ucomisd %xmm6,%xmm0
     c27:	0f 87 a3 00 00 00    	ja     cd0 <_RectTestCircle+0x220>
		return 1;

	if (rxmax + rymax < r)
     c2d:	de c1                	faddp  %st,%st(1)
     c2f:	f2 0f 11 44 24 08    	movsd  %xmm0,0x8(%esp)
	        || (CircleYmin > SearchMaxY))
		return 0;

	if ((CircleXmax <= SearchMaxX) && (CircleXmin >= SearchMinX) && (CircleYmax <= SearchMaxY)
	        && (CircleYmin >= SearchMinY))
		return 1;
     c35:	b8 01 00 00 00       	mov    $0x1,%eax
		return 1;

	if (rxmax + rymin < r)
		return 1;

	if (rxmax + rymax < r)
     c3a:	dd 44 24 08          	fldl   0x8(%esp)
     c3e:	df e9                	fucomip %st(1),%st
     c40:	dd d8                	fstp   %st(0)
     c42:	77 54                	ja     c98 <_RectTestCircle+0x1e8>
		return 1;

	return RectTestCircleOutline(CircleX, CircleY, CircleThickness, (uint8) CircleMode);
     c44:	81 e2 ff 00 00 00    	and    $0xff,%edx
     c4a:	f2 0f 11 6c 24 30    	movsd  %xmm5,0x30(%esp)
     c50:	89 54 24 38          	mov    %edx,0x38(%esp)
     c54:	f2 0f 11 4c 24 28    	movsd  %xmm1,0x28(%esp)
     c5a:	f2 0f 11 54 24 20    	movsd  %xmm2,0x20(%esp)

}
     c60:	83 c4 1c             	add    $0x1c,%esp
		return 1;

	if (rxmax + rymax < r)
		return 1;

	return RectTestCircleOutline(CircleX, CircleY, CircleThickness, (uint8) CircleMode);
     c63:	e9 a8 f9 ff ff       	jmp    610 <_RectTestCircleOutline>
     c68:	dd d8                	fstp   %st(0)
     c6a:	dd d8                	fstp   %st(0)
     c6c:	eb 22                	jmp    c90 <_RectTestCircle+0x1e0>
     c6e:	66 90                	xchg   %ax,%ax
     c70:	dd d8                	fstp   %st(0)
     c72:	dd d8                	fstp   %st(0)
     c74:	dd d8                	fstp   %st(0)
     c76:	eb 18                	jmp    c90 <_RectTestCircle+0x1e0>
     c78:	dd d8                	fstp   %st(0)
     c7a:	dd d8                	fstp   %st(0)
     c7c:	dd d8                	fstp   %st(0)
     c7e:	dd d8                	fstp   %st(0)
     c80:	eb 0e                	jmp    c90 <_RectTestCircle+0x1e0>
     c82:	dd d8                	fstp   %st(0)
     c84:	dd d8                	fstp   %st(0)
     c86:	dd d8                	fstp   %st(0)
     c88:	dd d8                	fstp   %st(0)
     c8a:	dd d8                	fstp   %st(0)
     c8c:	8d 74 26 00          	lea    0x0(%esi,%eiz,1),%esi
	if ((CircleMode & 0xc3) > 0)
		CircleYmax = CircleY + CircleThickness2;

	if ((CircleXmax < SearchMinX) || (CircleXmin > SearchMaxX) || (CircleYmax < SearchMinY)
	        || (CircleYmin > SearchMaxY))
		return 0;
     c90:	31 c0                	xor    %eax,%eax
     c92:	eb 04                	jmp    c98 <_RectTestCircle+0x1e8>
     c94:	dd d8                	fstp   %st(0)
     c96:	dd d8                	fstp   %st(0)
	if (rxmax + rymax < r)
		return 1;

	return RectTestCircleOutline(CircleX, CircleY, CircleThickness, (uint8) CircleMode);

}
     c98:	83 c4 1c             	add    $0x1c,%esp
     c9b:	c3                   	ret    
     c9c:	8d 74 26 00          	lea    0x0(%esi,%eiz,1),%esi

	CircleThickness2 = CircleThickness / 2;
	CircleXmin = CircleX;
	CircleYmin = CircleY;
	CircleXmax = CircleX;
	CircleYmax = CircleY;
     ca0:	f2 0f 11 4c 24 08    	movsd  %xmm1,0x8(%esp)
     ca6:	dd 44 24 08          	fldl   0x8(%esp)
     caa:	e9 76 fe ff ff       	jmp    b25 <_RectTestCircle+0x75>
     caf:	90                   	nop
	double CircleXmin, CircleXmax, CircleYmin, CircleYmax, CircleThickness2;
	double r, rxmin, rymin, rxmax, rymax;

	CircleThickness2 = CircleThickness / 2;
	CircleXmin = CircleX;
	CircleYmin = CircleY;
     cb0:	f2 0f 11 4c 24 08    	movsd  %xmm1,0x8(%esp)
     cb6:	dd 44 24 08          	fldl   0x8(%esp)
     cba:	e9 3e fe ff ff       	jmp    afd <_RectTestCircle+0x4d>
     cbf:	90                   	nop
     cc0:	dd d8                	fstp   %st(0)
     cc2:	dd d8                	fstp   %st(0)
     cc4:	eb 0e                	jmp    cd4 <_RectTestCircle+0x224>
     cc6:	dd d8                	fstp   %st(0)
     cc8:	dd d8                	fstp   %st(0)
     cca:	eb 08                	jmp    cd4 <_RectTestCircle+0x224>
     ccc:	8d 74 26 00          	lea    0x0(%esi,%eiz,1),%esi
     cd0:	dd d8                	fstp   %st(0)
     cd2:	dd d8                	fstp   %st(0)
	        || (CircleYmin > SearchMaxY))
		return 0;

	if ((CircleXmax <= SearchMaxX) && (CircleXmin >= SearchMinX) && (CircleYmax <= SearchMaxY)
	        && (CircleYmin >= SearchMinY))
		return 1;
     cd4:	b8 01 00 00 00       	mov    $0x1,%eax
	if (rxmax + rymax < r)
		return 1;

	return RectTestCircleOutline(CircleX, CircleY, CircleThickness, (uint8) CircleMode);

}
     cd9:	83 c4 1c             	add    $0x1c,%esp
     cdc:	c3                   	ret    
     cdd:	8d 76 00             	lea    0x0(%esi),%esi

00000ce0 <_GetMinMaxArc>:
// ***************************************************************************************************
// ***************************************************************************************************

void GetMinMaxArc(double ArcX, double ArcY, double ArcWidth, double ArcHeight, double StartDiffX, double StartDiffY,
                  double EndDiffX, double EndDiffY, double *ArcXmin, double *ArcYmin, double *ArcXmax, double *ArcYmax)
{
     ce0:	55                   	push   %ebp
     ce1:	89 e5                	mov    %esp,%ebp
     ce3:	57                   	push   %edi
     ce4:	56                   	push   %esi
     ce5:	53                   	push   %ebx
     ce6:	83 e4 f0             	and    $0xfffffff0,%esp
     ce9:	83 ec 60             	sub    $0x60,%esp
     cec:	f2 0f 10 75 08       	movsd  0x8(%ebp),%xmm6
     cf1:	f2 0f 10 4d 28       	movsd  0x28(%ebp),%xmm1
     cf6:	f2 0f 11 74 24 50    	movsd  %xmm6,0x50(%esp)
	double ArcThickness2;
	double StartAngle, StartX, StartY, EndX, EndY, EndAngle, DiffAngle, rico;
	int32 StartPos, ok;

	ArcThickness2 = ArcWidth / 2;
     cfc:	f2 0f 10 1d 20 00 00 	movsd  0x20,%xmm3
     d03:	00 
// ***************************************************************************************************
// ***************************************************************************************************

void GetMinMaxArc(double ArcX, double ArcY, double ArcWidth, double ArcHeight, double StartDiffX, double StartDiffY,
                  double EndDiffX, double EndDiffY, double *ArcXmin, double *ArcYmin, double *ArcXmax, double *ArcYmax)
{
     d04:	f2 0f 10 75 10       	movsd  0x10(%ebp),%xmm6
	double StartAngle, StartX, StartY, EndX, EndY, EndAngle, DiffAngle, rico;
	int32 StartPos, ok;

	ArcThickness2 = ArcWidth / 2;

	if (StartDiffX == 0.0)
     d09:	66 0f 57 c0          	xorpd  %xmm0,%xmm0
// ***************************************************************************************************
// ***************************************************************************************************

void GetMinMaxArc(double ArcX, double ArcY, double ArcWidth, double ArcHeight, double StartDiffX, double StartDiffY,
                  double EndDiffX, double EndDiffY, double *ArcXmin, double *ArcYmin, double *ArcXmax, double *ArcYmax)
{
     d0d:	f2 0f 11 74 24 48    	movsd  %xmm6,0x48(%esp)
     d13:	f2 0f 10 55 30       	movsd  0x30(%ebp),%xmm2
     d18:	f2 0f 10 7d 38       	movsd  0x38(%ebp),%xmm7
     d1d:	f2 0f 10 65 40       	movsd  0x40(%ebp),%xmm4
     d22:	8b 7d 48             	mov    0x48(%ebp),%edi
     d25:	8b 75 4c             	mov    0x4c(%ebp),%esi
     d28:	8b 5d 50             	mov    0x50(%ebp),%ebx
	double ArcThickness2;
	double StartAngle, StartX, StartY, EndX, EndY, EndAngle, DiffAngle, rico;
	int32 StartPos, ok;

	ArcThickness2 = ArcWidth / 2;
     d2b:	f2 0f 59 5d 18       	mulsd  0x18(%ebp),%xmm3

	if (StartDiffX == 0.0)
     d30:	66 0f 2e c8          	ucomisd %xmm0,%xmm1
     d34:	0f 8a 18 04 00 00    	jp     1152 <_GetMinMaxArc+0x472>
     d3a:	0f 85 12 04 00 00    	jne    1152 <_GetMinMaxArc+0x472>
	{
		StartX = StartDiffX;
		StartY = ArcThickness2;
     d40:	f2 0f 10 eb          	movsd  %xmm3,%xmm5
     d44:	66 0f 57 2d 00 00 00 	xorpd  0x0,%xmm5
     d4b:	00 
     d4c:	f2 0f c2 d0 01       	cmpltsd %xmm0,%xmm2
     d51:	66 0f 54 ea          	andpd  %xmm2,%xmm5
     d55:	66 0f 55 d3          	andnpd %xmm3,%xmm2
     d59:	66 0f 56 d5          	orpd   %xmm5,%xmm2
     d5d:	f2 0f 11 54 24 58    	movsd  %xmm2,0x58(%esp)
			StartX = -StartX;

		StartY = rico * StartX;
	}

	if (EndDiffX == 0.0)
     d63:	66 0f 2e f8          	ucomisd %xmm0,%xmm7
     d67:	0f 8a 85 03 00 00    	jp     10f2 <_GetMinMaxArc+0x412>
     d6d:	0f 85 7f 03 00 00    	jne    10f2 <_GetMinMaxArc+0x412>
	{
		EndX = EndDiffX;
		EndY = ArcThickness2;
     d73:	f2 0f 10 eb          	movsd  %xmm3,%xmm5
     d77:	66 0f 57 2d 00 00 00 	xorpd  0x0,%xmm5
     d7e:	00 
     d7f:	f2 0f c2 e0 01       	cmpltsd %xmm0,%xmm4
     d84:	66 0f 54 ec          	andpd  %xmm4,%xmm5
     d88:	66 0f 55 e3          	andnpd %xmm3,%xmm4
     d8c:	66 0f 56 e5          	orpd   %xmm5,%xmm4
     d90:	f2 0f 10 d4          	movsd  %xmm4,%xmm2
			EndX = -EndX;

		EndY = rico * EndX;
	}

	if (StartX != 0.0)
     d94:	66 0f 2e c8          	ucomisd %xmm0,%xmm1
     d98:	7a 06                	jp     da0 <_GetMinMaxArc+0xc0>
     d9a:	0f 84 f0 01 00 00    	je     f90 <_GetMinMaxArc+0x2b0>
	{
		StartAngle = atan(StartY / StartX) * 180 / PI;
     da0:	f2 0f 10 64 24 58    	movsd  0x58(%esp),%xmm4
     da6:	f2 0f 11 44 24 18    	movsd  %xmm0,0x18(%esp)
     dac:	f2 0f 11 7c 24 20    	movsd  %xmm7,0x20(%esp)
     db2:	f2 0f 11 5c 24 28    	movsd  %xmm3,0x28(%esp)
     db8:	f2 0f 5e e1          	divsd  %xmm1,%xmm4
     dbc:	f2 0f 11 54 24 30    	movsd  %xmm2,0x30(%esp)
     dc2:	f2 0f 11 4c 24 38    	movsd  %xmm1,0x38(%esp)
     dc8:	f2 0f 11 24 24       	movsd  %xmm4,(%esp)
     dcd:	e8 00 00 00 00       	call   dd2 <_GetMinMaxArc+0xf2>
     dd2:	dd 05 40 00 00 00    	fldl   0x40
     dd8:	dc c9                	fmul   %st,%st(1)
     dda:	d9 c9                	fxch   %st(1)

		if (StartAngle < 0.0)
     ddc:	f2 0f 10 44 24 18    	movsd  0x18(%esp),%xmm0
     de2:	f2 0f 10 4c 24 38    	movsd  0x38(%esp),%xmm1
		EndY = rico * EndX;
	}

	if (StartX != 0.0)
	{
		StartAngle = atan(StartY / StartX) * 180 / PI;
     de8:	dd 5c 24 40          	fstpl  0x40(%esp)
     dec:	f2 0f 10 64 24 40    	movsd  0x40(%esp),%xmm4
     df2:	f2 0f 5e 25 48 00 00 	divsd  0x48,%xmm4
     df9:	00 

		if (StartAngle < 0.0)
     dfa:	f2 0f 10 54 24 30    	movsd  0x30(%esp),%xmm2
     e00:	66 0f 2e c4          	ucomisd %xmm4,%xmm0
     e04:	f2 0f 10 5c 24 28    	movsd  0x28(%esp),%xmm3
     e0a:	f2 0f 10 7c 24 20    	movsd  0x20(%esp),%xmm7
     e10:	0f 87 9e 03 00 00    	ja     11b4 <_GetMinMaxArc+0x4d4>
			StartAngle += 180.0;

		if (StartY < 0)
     e16:	66 0f 2e 44 24 58    	ucomisd 0x58(%esp),%xmm0
     e1c:	0f 87 ac 03 00 00    	ja     11ce <_GetMinMaxArc+0x4ee>
     e22:	dd d8                	fstp   %st(0)
     e24:	eb 02                	jmp    e28 <_GetMinMaxArc+0x148>
     e26:	dd d8                	fstp   %st(0)
			StartAngle = 90.0;
		else
			StartAngle = 270.0;
	}

	if (EndX != 0.0)
     e28:	66 0f 2e f8          	ucomisd %xmm0,%xmm7
     e2c:	7a 06                	jp     e34 <_GetMinMaxArc+0x154>
     e2e:	0f 84 7c 01 00 00    	je     fb0 <_GetMinMaxArc+0x2d0>
	{
		EndAngle = atan(EndY / EndX) * 180 / PI;
     e34:	f2 0f 10 ea          	movsd  %xmm2,%xmm5
     e38:	f2 0f 11 44 24 10    	movsd  %xmm0,0x10(%esp)
     e3e:	f2 0f 5e ef          	divsd  %xmm7,%xmm5
     e42:	f2 0f 11 4c 24 18    	movsd  %xmm1,0x18(%esp)
     e48:	f2 0f 11 5c 24 20    	movsd  %xmm3,0x20(%esp)
     e4e:	f2 0f 11 64 24 28    	movsd  %xmm4,0x28(%esp)
     e54:	f2 0f 11 54 24 30    	movsd  %xmm2,0x30(%esp)
     e5a:	f2 0f 11 7c 24 38    	movsd  %xmm7,0x38(%esp)
     e60:	f2 0f 11 2c 24       	movsd  %xmm5,(%esp)
     e65:	e8 00 00 00 00       	call   e6a <_GetMinMaxArc+0x18a>
     e6a:	dd 05 40 00 00 00    	fldl   0x40
     e70:	dc c9                	fmul   %st,%st(1)
     e72:	d9 c9                	fxch   %st(1)

		if (EndAngle < 0.0)
     e74:	f2 0f 10 44 24 10    	movsd  0x10(%esp),%xmm0
     e7a:	f2 0f 10 7c 24 38    	movsd  0x38(%esp),%xmm7
			StartAngle = 270.0;
	}

	if (EndX != 0.0)
	{
		EndAngle = atan(EndY / EndX) * 180 / PI;
     e80:	dd 5c 24 40          	fstpl  0x40(%esp)
     e84:	f2 0f 10 6c 24 40    	movsd  0x40(%esp),%xmm5
     e8a:	f2 0f 5e 2d 48 00 00 	divsd  0x48,%xmm5
     e91:	00 

		if (EndAngle < 0.0)
     e92:	f2 0f 10 54 24 30    	movsd  0x30(%esp),%xmm2
     e98:	66 0f 2e c5          	ucomisd %xmm5,%xmm0
     e9c:	f2 0f 10 64 24 28    	movsd  0x28(%esp),%xmm4
     ea2:	f2 0f 10 5c 24 20    	movsd  0x20(%esp),%xmm3
     ea8:	f2 0f 10 4c 24 18    	movsd  0x18(%esp),%xmm1
     eae:	0f 87 4c 03 00 00    	ja     1200 <_GetMinMaxArc+0x520>
			EndAngle += 180.0;

		if (EndY < 0)
     eb4:	66 0f 2e c2          	ucomisd %xmm2,%xmm0
     eb8:	0f 87 5a 03 00 00    	ja     1218 <_GetMinMaxArc+0x538>
     ebe:	dd d8                	fstp   %st(0)
     ec0:	eb 02                	jmp    ec4 <_GetMinMaxArc+0x1e4>
     ec2:	dd d8                	fstp   %st(0)
			EndAngle = 90.0;
		else
			EndAngle = 270.0;
	}

	DiffAngle = EndAngle - StartAngle;
     ec4:	f2 0f 10 f5          	movsd  %xmm5,%xmm6
     ec8:	f2 0f 5c f4          	subsd  %xmm4,%xmm6

	if (DiffAngle < 0)
     ecc:	66 0f 2e c6          	ucomisd %xmm6,%xmm0
     ed0:	0f 87 fe 00 00 00    	ja     fd4 <_GetMinMaxArc+0x2f4>
		DiffAngle += 360.0;

	*ArcXmin = ArcX + StartX;
     ed6:	f2 0f 10 44 24 50    	movsd  0x50(%esp),%xmm0
     edc:	f2 0f 58 c8          	addsd  %xmm0,%xmm1
	*ArcXmin = min(*ArcXmin, ArcX + EndX);
     ee0:	f2 0f 58 f8          	addsd  %xmm0,%xmm7
     ee4:	f2 0f 10 c7          	movsd  %xmm7,%xmm0
     ee8:	f2 0f 10 f9          	movsd  %xmm1,%xmm7
     eec:	f2 0f 5d f8          	minsd  %xmm0,%xmm7
	*ArcXmax = ArcX + StartX;
	*ArcXmax = max(*ArcXmax, ArcX + EndX);
     ef0:	f2 0f 5f c8          	maxsd  %xmm0,%xmm1

	if (DiffAngle < 0)
		DiffAngle += 360.0;

	*ArcXmin = ArcX + StartX;
	*ArcXmin = min(*ArcXmin, ArcX + EndX);
     ef4:	f2 0f 11 3f          	movsd  %xmm7,(%edi)
	*ArcXmax = ArcX + StartX;
	*ArcXmax = max(*ArcXmax, ArcX + EndX);
	*ArcYmin = ArcY + StartY;
     ef8:	f2 0f 10 44 24 58    	movsd  0x58(%esp),%xmm0
		DiffAngle += 360.0;

	*ArcXmin = ArcX + StartX;
	*ArcXmin = min(*ArcXmin, ArcX + EndX);
	*ArcXmax = ArcX + StartX;
	*ArcXmax = max(*ArcXmax, ArcX + EndX);
     efe:	f2 0f 11 0b          	movsd  %xmm1,(%ebx)
	*ArcYmin = ArcY + StartY;
     f02:	f2 0f 10 4c 24 48    	movsd  0x48(%esp),%xmm1
     f08:	f2 0f 58 c1          	addsd  %xmm1,%xmm0
	*ArcYmin = min(*ArcYmin, ArcY + EndY);
     f0c:	f2 0f 58 d1          	addsd  %xmm1,%xmm2
	*ArcYmax = ArcY + StartY;
	*ArcYmax = max(*ArcYmax, ArcY + EndY);
     f10:	8b 45 54             	mov    0x54(%ebp),%eax
	*ArcXmin = ArcX + StartX;
	*ArcXmin = min(*ArcXmin, ArcX + EndX);
	*ArcXmax = ArcX + StartX;
	*ArcXmax = max(*ArcXmax, ArcX + EndX);
	*ArcYmin = ArcY + StartY;
	*ArcYmin = min(*ArcYmin, ArcY + EndY);
     f13:	f2 0f 10 c8          	movsd  %xmm0,%xmm1
	*ArcYmax = ArcY + StartY;
	*ArcYmax = max(*ArcYmax, ArcY + EndY);
	ok = 1;

	if (DiffAngle < 91)
     f17:	f2 0f 10 3d 58 00 00 	movsd  0x58,%xmm7
     f1e:	00 
	*ArcXmin = ArcX + StartX;
	*ArcXmin = min(*ArcXmin, ArcX + EndX);
	*ArcXmax = ArcX + StartX;
	*ArcXmax = max(*ArcXmax, ArcX + EndX);
	*ArcYmin = ArcY + StartY;
	*ArcYmin = min(*ArcYmin, ArcY + EndY);
     f1f:	f2 0f 5d ca          	minsd  %xmm2,%xmm1
	*ArcYmax = ArcY + StartY;
	*ArcYmax = max(*ArcYmax, ArcY + EndY);
     f23:	f2 0f 5f c2          	maxsd  %xmm2,%xmm0
	*ArcXmin = ArcX + StartX;
	*ArcXmin = min(*ArcXmin, ArcX + EndX);
	*ArcXmax = ArcX + StartX;
	*ArcXmax = max(*ArcXmax, ArcX + EndX);
	*ArcYmin = ArcY + StartY;
	*ArcYmin = min(*ArcYmin, ArcY + EndY);
     f27:	f2 0f 11 0e          	movsd  %xmm1,(%esi)
	*ArcYmax = ArcY + StartY;
	*ArcYmax = max(*ArcYmax, ArcY + EndY);
	ok = 1;

	if (DiffAngle < 91)
     f2b:	66 0f 2e fe          	ucomisd %xmm6,%xmm7
	*ArcXmax = ArcX + StartX;
	*ArcXmax = max(*ArcXmax, ArcX + EndX);
	*ArcYmin = ArcY + StartY;
	*ArcYmin = min(*ArcYmin, ArcY + EndY);
	*ArcYmax = ArcY + StartY;
	*ArcYmax = max(*ArcYmax, ArcY + EndY);
     f2f:	f2 0f 11 00          	movsd  %xmm0,(%eax)
	ok = 1;

	if (DiffAngle < 91)
     f33:	0f 86 a8 00 00 00    	jbe    fe1 <_GetMinMaxArc+0x301>
	{
		StartPos = (int32) (StartAngle / 45);
     f39:	f2 0f 5e 25 60 00 00 	divsd  0x60,%xmm4
     f40:	00 
     f41:	f2 0f 2c c4          	cvttsd2si %xmm4,%eax
		StartPos *= 45;
     f45:	8d 14 40             	lea    (%eax,%eax,2),%edx
     f48:	89 d0                	mov    %edx,%eax
     f4a:	c1 e0 04             	shl    $0x4,%eax
     f4d:	29 d0                	sub    %edx,%eax

		switch (StartPos)
     f4f:	3d 87 00 00 00       	cmp    $0x87,%eax
     f54:	0f 84 f9 02 00 00    	je     1253 <_GetMinMaxArc+0x573>
     f5a:	0f 8e 70 01 00 00    	jle    10d0 <_GetMinMaxArc+0x3f0>
     f60:	3d e1 00 00 00       	cmp    $0xe1,%eax
     f65:	0f 84 41 03 00 00    	je     12ac <_GetMinMaxArc+0x5cc>
	if (DiffAngle > 269)
	{
		StartPos = (int32) (EndAngle / 45);
		StartPos *= 45;

		switch (StartPos)
     f6b:	3d 3b 01 00 00       	cmp    $0x13b,%eax
     f70:	75 12                	jne    f84 <_GetMinMaxArc+0x2a4>
				*ArcXmax = max(*ArcXmax, ArcX + ArcThickness2);

			break;

		case 270:
			*ArcXmax = max(*ArcXmax, ArcX + ArcThickness2);
     f72:	f2 0f 10 03          	movsd  (%ebx),%xmm0
     f76:	f2 0f 58 5c 24 50    	addsd  0x50(%esp),%xmm3
     f7c:	f2 0f 5f c3          	maxsd  %xmm3,%xmm0
     f80:	f2 0f 11 03          	movsd  %xmm0,(%ebx)
				*ArcYmax = max(*ArcYmax, ArcY + ArcThickness2);

			break;
		}
	}
}
     f84:	8d 65 f4             	lea    -0xc(%ebp),%esp
     f87:	5b                   	pop    %ebx
     f88:	5e                   	pop    %esi
     f89:	5f                   	pop    %edi
     f8a:	5d                   	pop    %ebp
     f8b:	c3                   	ret    
     f8c:	8d 74 26 00          	lea    0x0(%esi,%eiz,1),%esi
		if (StartY < 0)
			StartAngle += 180.0;
	}
	else
	{
		if (StartY > 0)
     f90:	f2 0f 10 74 24 58    	movsd  0x58(%esp),%xmm6
     f96:	66 0f 2e f0          	ucomisd %xmm0,%xmm6
     f9a:	0f 86 41 02 00 00    	jbe    11e1 <_GetMinMaxArc+0x501>
			StartAngle = 90.0;
     fa0:	f2 0f 10 25 28 00 00 	movsd  0x28,%xmm4
     fa7:	00 
     fa8:	e9 7b fe ff ff       	jmp    e28 <_GetMinMaxArc+0x148>
     fad:	8d 76 00             	lea    0x0(%esi),%esi
		if (EndY < 0)
			EndAngle += 180.0;
	}
	else
	{
		if (EndY > 0)
     fb0:	66 0f 2e d0          	ucomisd %xmm0,%xmm2
     fb4:	0f 86 36 02 00 00    	jbe    11f0 <_GetMinMaxArc+0x510>
			EndAngle = 90.0;
     fba:	f2 0f 10 2d 28 00 00 	movsd  0x28,%xmm5
     fc1:	00 
		else
			EndAngle = 270.0;
	}

	DiffAngle = EndAngle - StartAngle;
     fc2:	f2 0f 10 f5          	movsd  %xmm5,%xmm6
     fc6:	f2 0f 5c f4          	subsd  %xmm4,%xmm6

	if (DiffAngle < 0)
     fca:	66 0f 2e c6          	ucomisd %xmm6,%xmm0
     fce:	0f 86 02 ff ff ff    	jbe    ed6 <_GetMinMaxArc+0x1f6>
		DiffAngle += 360.0;
     fd4:	f2 0f 58 35 50 00 00 	addsd  0x50,%xmm6
     fdb:	00 
     fdc:	e9 f5 fe ff ff       	jmp    ed6 <_GetMinMaxArc+0x1f6>
		}

		return;
	}

	if (DiffAngle > 269)
     fe1:	66 0f 2e 35 68 00 00 	ucomisd 0x68,%xmm6
     fe8:	00 
     fe9:	0f 87 97 00 00 00    	ja     1086 <_GetMinMaxArc+0x3a6>
		}

		return;
	}

	if ((DiffAngle > 90) && (DiffAngle < 181))
     fef:	66 0f 2e 35 28 00 00 	ucomisd 0x28,%xmm6
     ff6:	00 
     ff7:	0f 86 74 02 00 00    	jbe    1271 <_GetMinMaxArc+0x591>
     ffd:	f2 0f 10 3d 70 00 00 	movsd  0x70,%xmm7
    1004:	00 
    1005:	66 0f 2e fe          	ucomisd %xmm6,%xmm7
    1009:	0f 86 62 02 00 00    	jbe    1271 <_GetMinMaxArc+0x591>
	{
		StartPos = (int32) (StartAngle / 45);
    100f:	f2 0f 5e 25 60 00 00 	divsd  0x60,%xmm4
    1016:	00 
    1017:	f2 0f 2c c4          	cvttsd2si %xmm4,%eax
		StartPos *= 45;
    101b:	8d 14 40             	lea    (%eax,%eax,2),%edx
    101e:	89 d0                	mov    %edx,%eax
    1020:	c1 e0 04             	shl    $0x4,%eax
    1023:	29 d0                	sub    %edx,%eax

		switch (StartPos)
    1025:	3d 87 00 00 00       	cmp    $0x87,%eax
    102a:	0f 84 c1 03 00 00    	je     13f1 <_GetMinMaxArc+0x711>
    1030:	0f 8e 0e 03 00 00    	jle    1344 <_GetMinMaxArc+0x664>
    1036:	3d e1 00 00 00       	cmp    $0xe1,%eax
    103b:	0f 84 2f 03 00 00    	je     1370 <_GetMinMaxArc+0x690>
    1041:	0f 8e 5a 02 00 00    	jle    12a1 <_GetMinMaxArc+0x5c1>
    1047:	3d 0e 01 00 00       	cmp    $0x10e,%eax
    104c:	0f 84 20 ff ff ff    	je     f72 <_GetMinMaxArc+0x292>
    1052:	3d 3b 01 00 00       	cmp    $0x13b,%eax
    1057:	0f 85 27 ff ff ff    	jne    f84 <_GetMinMaxArc+0x2a4>
		case 270:
			*ArcXmax = max(*ArcXmax, ArcX + ArcThickness2);
			break;

		case 315:
			*ArcXmax = max(*ArcXmax, ArcX + ArcThickness2);
    105d:	f2 0f 10 4c 24 50    	movsd  0x50(%esp),%xmm1
    1063:	f2 0f 10 03          	movsd  (%ebx),%xmm0
    1067:	f2 0f 58 cb          	addsd  %xmm3,%xmm1
    106b:	f2 0f 5f c1          	maxsd  %xmm1,%xmm0
    106f:	f2 0f 11 03          	movsd  %xmm0,(%ebx)

			if (DiffAngle > 135)
    1073:	66 0f 2e 35 78 00 00 	ucomisd 0x78,%xmm6
    107a:	00 
    107b:	0f 87 a9 02 00 00    	ja     132a <_GetMinMaxArc+0x64a>
    1081:	e9 fe fe ff ff       	jmp    f84 <_GetMinMaxArc+0x2a4>
		return;
	}

	if (DiffAngle > 269)
	{
		StartPos = (int32) (EndAngle / 45);
    1086:	f2 0f 5e 2d 60 00 00 	divsd  0x60,%xmm5
    108d:	00 
    108e:	f2 0f 2c c5          	cvttsd2si %xmm5,%eax
		StartPos *= 45;
    1092:	8d 14 40             	lea    (%eax,%eax,2),%edx
    1095:	89 d0                	mov    %edx,%eax
    1097:	c1 e0 04             	shl    $0x4,%eax
    109a:	29 d0                	sub    %edx,%eax

		switch (StartPos)
    109c:	3d 87 00 00 00       	cmp    $0x87,%eax
    10a1:	0f 84 ac 01 00 00    	je     1253 <_GetMinMaxArc+0x573>
    10a7:	7e 27                	jle    10d0 <_GetMinMaxArc+0x3f0>
    10a9:	3d e1 00 00 00       	cmp    $0xe1,%eax
    10ae:	0f 85 b7 fe ff ff    	jne    f6b <_GetMinMaxArc+0x28b>

		case 135:
			*ArcXmin = min(*ArcXmin, ArcX - ArcThickness2);

			if (DiffAngle > 135)
				*ArcYmin = min(*ArcYmin, ArcY - ArcThickness2);
    10b4:	f2 0f 10 7c 24 48    	movsd  0x48(%esp),%xmm7
    10ba:	f2 0f 10 06          	movsd  (%esi),%xmm0
    10be:	f2 0f 5c fb          	subsd  %xmm3,%xmm7
    10c2:	f2 0f 5d c7          	minsd  %xmm7,%xmm0
    10c6:	f2 0f 11 06          	movsd  %xmm0,(%esi)
    10ca:	e9 b5 fe ff ff       	jmp    f84 <_GetMinMaxArc+0x2a4>
    10cf:	90                   	nop
	if (DiffAngle > 269)
	{
		StartPos = (int32) (EndAngle / 45);
		StartPos *= 45;

		switch (StartPos)
    10d0:	83 f8 2d             	cmp    $0x2d,%eax
    10d3:	0f 85 ab fe ff ff    	jne    f84 <_GetMinMaxArc+0x2a4>
		StartPos *= 45;

		switch (StartPos)
		{
		case 0:
			*ArcYmax = max(*ArcYmax, ArcY + ArcThickness2);
    10d9:	f2 0f 58 5c 24 48    	addsd  0x48(%esp),%xmm3
    10df:	8b 45 54             	mov    0x54(%ebp),%eax
    10e2:	f2 0f 5f c3          	maxsd  %xmm3,%xmm0
    10e6:	f2 0f 11 00          	movsd  %xmm0,(%eax)
				*ArcYmax = max(*ArcYmax, ArcY + ArcThickness2);

			break;
		}
	}
}
    10ea:	8d 65 f4             	lea    -0xc(%ebp),%esp
    10ed:	5b                   	pop    %ebx
    10ee:	5e                   	pop    %esi
    10ef:	5f                   	pop    %edi
    10f0:	5d                   	pop    %ebp
    10f1:	c3                   	ret    
		if (EndDiffY < 0)
			EndY *= -1;
	}
	else
	{
		rico = EndDiffY / EndDiffX;
    10f2:	f2 0f 10 d4          	movsd  %xmm4,%xmm2
    10f6:	f2 0f 5e d7          	divsd  %xmm7,%xmm2
		EndX = ArcThickness2 * sqrt(1 / (1 + SQR(rico)));
    10fa:	f2 0f 10 2d 38 00 00 	movsd  0x38,%xmm5
    1101:	00 
    1102:	f2 0f 10 e2          	movsd  %xmm2,%xmm4
    1106:	f2 0f 59 e2          	mulsd  %xmm2,%xmm4
    110a:	f2 0f 58 e5          	addsd  %xmm5,%xmm4
    110e:	f2 0f 5e ec          	divsd  %xmm4,%xmm5
    1112:	f2 0f 10 e5          	movsd  %xmm5,%xmm4
    1116:	f2 0f 51 ed          	sqrtsd %xmm5,%xmm5
    111a:	66 0f 2e ed          	ucomisd %xmm5,%xmm5
    111e:	0f 8a 57 03 00 00    	jp     147b <_GetMinMaxArc+0x79b>
    1124:	f2 0f 59 eb          	mulsd  %xmm3,%xmm5

		if (EndDiffX < 0)
			EndX = -EndX;
    1128:	f2 0f 10 e5          	movsd  %xmm5,%xmm4
    112c:	66 0f 57 25 00 00 00 	xorpd  0x0,%xmm4
    1133:	00 
    1134:	f2 0f c2 f8 05       	cmpnltsd %xmm0,%xmm7
    1139:	66 0f 54 ef          	andpd  %xmm7,%xmm5
    113d:	66 0f 55 fc          	andnpd %xmm4,%xmm7
    1141:	66 0f 56 ef          	orpd   %xmm7,%xmm5

		EndY = rico * EndX;
    1145:	f2 0f 59 d5          	mulsd  %xmm5,%xmm2
    1149:	f2 0f 10 fd          	movsd  %xmm5,%xmm7
    114d:	e9 42 fc ff ff       	jmp    d94 <_GetMinMaxArc+0xb4>
		if (StartDiffY < 0)
			StartY *= -1;
	}
	else
	{
		rico = StartDiffY / StartDiffX;
    1152:	f2 0f 5e d1          	divsd  %xmm1,%xmm2
		StartX = ArcThickness2 * sqrt(1 / (1 + SQR(rico)));
    1156:	f2 0f 10 2d 38 00 00 	movsd  0x38,%xmm5
    115d:	00 
    115e:	f2 0f 10 f2          	movsd  %xmm2,%xmm6
    1162:	f2 0f 59 f2          	mulsd  %xmm2,%xmm6
    1166:	f2 0f 58 f5          	addsd  %xmm5,%xmm6
    116a:	f2 0f 5e ee          	divsd  %xmm6,%xmm5
    116e:	f2 0f 10 f5          	movsd  %xmm5,%xmm6
    1172:	f2 0f 51 ed          	sqrtsd %xmm5,%xmm5
    1176:	66 0f 2e ed          	ucomisd %xmm5,%xmm5
    117a:	0f 8a 9a 02 00 00    	jp     141a <_GetMinMaxArc+0x73a>
    1180:	f2 0f 59 eb          	mulsd  %xmm3,%xmm5

		if (StartDiffX < 0)
			StartX = -StartX;
    1184:	f2 0f 10 f5          	movsd  %xmm5,%xmm6
    1188:	66 0f 57 35 00 00 00 	xorpd  0x0,%xmm6
    118f:	00 
    1190:	f2 0f c2 c8 05       	cmpnltsd %xmm0,%xmm1
    1195:	66 0f 54 e9          	andpd  %xmm1,%xmm5
    1199:	66 0f 55 ce          	andnpd %xmm6,%xmm1
    119d:	66 0f 56 e9          	orpd   %xmm1,%xmm5

		StartY = rico * StartX;
    11a1:	f2 0f 59 d5          	mulsd  %xmm5,%xmm2
    11a5:	f2 0f 11 54 24 58    	movsd  %xmm2,0x58(%esp)
    11ab:	f2 0f 10 cd          	movsd  %xmm5,%xmm1
    11af:	e9 af fb ff ff       	jmp    d63 <_GetMinMaxArc+0x83>
	if (StartX != 0.0)
	{
		StartAngle = atan(StartY / StartX) * 180 / PI;

		if (StartAngle < 0.0)
			StartAngle += 180.0;
    11b4:	dd 54 24 40          	fstl   0x40(%esp)
    11b8:	f2 0f 10 74 24 40    	movsd  0x40(%esp),%xmm6

		if (StartY < 0)
    11be:	66 0f 2e 44 24 58    	ucomisd 0x58(%esp),%xmm0
	if (StartX != 0.0)
	{
		StartAngle = atan(StartY / StartX) * 180 / PI;

		if (StartAngle < 0.0)
			StartAngle += 180.0;
    11c4:	f2 0f 58 e6          	addsd  %xmm6,%xmm4

		if (StartY < 0)
    11c8:	0f 86 58 fc ff ff    	jbe    e26 <_GetMinMaxArc+0x146>
			StartAngle += 180.0;
    11ce:	dd 5c 24 40          	fstpl  0x40(%esp)
    11d2:	f2 0f 10 74 24 40    	movsd  0x40(%esp),%xmm6
    11d8:	f2 0f 58 e6          	addsd  %xmm6,%xmm4
    11dc:	e9 47 fc ff ff       	jmp    e28 <_GetMinMaxArc+0x148>
	else
	{
		if (StartY > 0)
			StartAngle = 90.0;
		else
			StartAngle = 270.0;
    11e1:	f2 0f 10 25 30 00 00 	movsd  0x30,%xmm4
    11e8:	00 
    11e9:	e9 3a fc ff ff       	jmp    e28 <_GetMinMaxArc+0x148>
    11ee:	66 90                	xchg   %ax,%ax
	else
	{
		if (EndY > 0)
			EndAngle = 90.0;
		else
			EndAngle = 270.0;
    11f0:	f2 0f 10 2d 30 00 00 	movsd  0x30,%xmm5
    11f7:	00 
    11f8:	e9 c7 fc ff ff       	jmp    ec4 <_GetMinMaxArc+0x1e4>
    11fd:	8d 76 00             	lea    0x0(%esi),%esi
	if (EndX != 0.0)
	{
		EndAngle = atan(EndY / EndX) * 180 / PI;

		if (EndAngle < 0.0)
			EndAngle += 180.0;
    1200:	dd 54 24 40          	fstl   0x40(%esp)
    1204:	f2 0f 10 74 24 40    	movsd  0x40(%esp),%xmm6

		if (EndY < 0)
    120a:	66 0f 2e c2          	ucomisd %xmm2,%xmm0
	if (EndX != 0.0)
	{
		EndAngle = atan(EndY / EndX) * 180 / PI;

		if (EndAngle < 0.0)
			EndAngle += 180.0;
    120e:	f2 0f 58 ee          	addsd  %xmm6,%xmm5

		if (EndY < 0)
    1212:	0f 86 aa fc ff ff    	jbe    ec2 <_GetMinMaxArc+0x1e2>
			EndAngle += 180.0;
    1218:	dd 5c 24 40          	fstpl  0x40(%esp)
    121c:	f2 0f 10 74 24 40    	movsd  0x40(%esp),%xmm6
    1222:	f2 0f 58 ee          	addsd  %xmm6,%xmm5
    1226:	e9 99 fc ff ff       	jmp    ec4 <_GetMinMaxArc+0x1e4>
    122b:	90                   	nop
    122c:	8d 74 26 00          	lea    0x0(%esi,%eiz,1),%esi
		case 0:
			*ArcYmax = max(*ArcYmax, ArcY + ArcThickness2);
			break;

		case 45:
			*ArcYmax = max(*ArcYmax, ArcY + ArcThickness2);
    1230:	f2 0f 10 4c 24 48    	movsd  0x48(%esp),%xmm1
    1236:	8b 45 54             	mov    0x54(%ebp),%eax
    1239:	f2 0f 58 cb          	addsd  %xmm3,%xmm1
    123d:	f2 0f 5f c1          	maxsd  %xmm1,%xmm0
    1241:	f2 0f 11 00          	movsd  %xmm0,(%eax)

			if (DiffAngle > 135)
    1245:	66 0f 2e 35 78 00 00 	ucomisd 0x78,%xmm6
    124c:	00 
    124d:	0f 86 31 fd ff ff    	jbe    f84 <_GetMinMaxArc+0x2a4>
				*ArcXmin = min(*ArcXmin, ArcX - ArcThickness2);

			break;

		case 90:
			*ArcXmin = min(*ArcXmin, ArcX - ArcThickness2);
    1253:	f2 0f 10 74 24 50    	movsd  0x50(%esp),%xmm6
    1259:	f2 0f 10 07          	movsd  (%edi),%xmm0
    125d:	f2 0f 5c f3          	subsd  %xmm3,%xmm6
    1261:	f2 0f 5d c6          	minsd  %xmm6,%xmm0
    1265:	f2 0f 11 07          	movsd  %xmm0,(%edi)
				*ArcYmax = max(*ArcYmax, ArcY + ArcThickness2);

			break;
		}
	}
}
    1269:	8d 65 f4             	lea    -0xc(%ebp),%esp
    126c:	5b                   	pop    %ebx
    126d:	5e                   	pop    %esi
    126e:	5f                   	pop    %edi
    126f:	5d                   	pop    %ebp
    1270:	c3                   	ret    

		return;
	}
	else
	{
		StartPos = (int32) (EndAngle / 45);
    1271:	f2 0f 5e 2d 60 00 00 	divsd  0x60,%xmm5
    1278:	00 
    1279:	f2 0f 2c c5          	cvttsd2si %xmm5,%eax
		StartPos *= 45;
    127d:	8d 14 40             	lea    (%eax,%eax,2),%edx
    1280:	89 d0                	mov    %edx,%eax
    1282:	c1 e0 04             	shl    $0x4,%eax
    1285:	29 d0                	sub    %edx,%eax

		switch (StartPos)
    1287:	3d 87 00 00 00       	cmp    $0x87,%eax
    128c:	0f 84 0e 01 00 00    	je     13a0 <_GetMinMaxArc+0x6c0>
    1292:	7e 3c                	jle    12d0 <_GetMinMaxArc+0x5f0>
    1294:	3d e1 00 00 00       	cmp    $0xe1,%eax
    1299:	0f 84 d1 00 00 00    	je     1370 <_GetMinMaxArc+0x690>
    129f:	7f 4f                	jg     12f0 <_GetMinMaxArc+0x610>
    12a1:	3d b4 00 00 00       	cmp    $0xb4,%eax
    12a6:	0f 85 d8 fc ff ff    	jne    f84 <_GetMinMaxArc+0x2a4>
				*ArcYmin = min(*ArcYmin, ArcY - ArcThickness2);

			break;

		case 180:
			*ArcYmin = min(*ArcYmin, ArcY - ArcThickness2);
    12ac:	f2 0f 10 74 24 48    	movsd  0x48(%esp),%xmm6
    12b2:	f2 0f 10 06          	movsd  (%esi),%xmm0
    12b6:	f2 0f 5c f3          	subsd  %xmm3,%xmm6
    12ba:	f2 0f 5d c6          	minsd  %xmm6,%xmm0
    12be:	f2 0f 11 06          	movsd  %xmm0,(%esi)
				*ArcYmax = max(*ArcYmax, ArcY + ArcThickness2);

			break;
		}
	}
}
    12c2:	8d 65 f4             	lea    -0xc(%ebp),%esp
    12c5:	5b                   	pop    %ebx
    12c6:	5e                   	pop    %esi
    12c7:	5f                   	pop    %edi
    12c8:	5d                   	pop    %ebp
    12c9:	c3                   	ret    
    12ca:	8d b6 00 00 00 00    	lea    0x0(%esi),%esi
	else
	{
		StartPos = (int32) (EndAngle / 45);
		StartPos *= 45;

		switch (StartPos)
    12d0:	83 f8 2d             	cmp    $0x2d,%eax
    12d3:	0f 84 57 ff ff ff    	je     1230 <_GetMinMaxArc+0x550>
    12d9:	83 f8 5a             	cmp    $0x5a,%eax
    12dc:	0f 84 71 ff ff ff    	je     1253 <_GetMinMaxArc+0x573>
    12e2:	85 c0                	test   %eax,%eax
    12e4:	0f 85 9a fc ff ff    	jne    f84 <_GetMinMaxArc+0x2a4>
    12ea:	e9 ea fd ff ff       	jmp    10d9 <_GetMinMaxArc+0x3f9>
    12ef:	90                   	nop
    12f0:	3d 0e 01 00 00       	cmp    $0x10e,%eax
    12f5:	0f 84 77 fc ff ff    	je     f72 <_GetMinMaxArc+0x292>
    12fb:	3d 3b 01 00 00       	cmp    $0x13b,%eax
    1300:	0f 85 7e fc ff ff    	jne    f84 <_GetMinMaxArc+0x2a4>
		case 270:
			*ArcXmax = max(*ArcXmax, ArcX + ArcThickness2);
			break;

		case 315:
			*ArcXmax = max(*ArcXmax, ArcX + ArcThickness2);
    1306:	f2 0f 10 44 24 50    	movsd  0x50(%esp),%xmm0
    130c:	f2 0f 10 0b          	movsd  (%ebx),%xmm1
    1310:	f2 0f 58 c3          	addsd  %xmm3,%xmm0
    1314:	f2 0f 5f c8          	maxsd  %xmm0,%xmm1
    1318:	f2 0f 11 0b          	movsd  %xmm1,(%ebx)

			if (DiffAngle > 135)
    131c:	66 0f 2e 35 78 00 00 	ucomisd 0x78,%xmm6
    1323:	00 
    1324:	0f 86 5a fc ff ff    	jbe    f84 <_GetMinMaxArc+0x2a4>
				*ArcYmax = max(*ArcYmax, ArcY + ArcThickness2);
    132a:	8b 45 54             	mov    0x54(%ebp),%eax
    132d:	f2 0f 58 5c 24 48    	addsd  0x48(%esp),%xmm3
    1333:	f2 0f 10 00          	movsd  (%eax),%xmm0
    1337:	f2 0f 5f c3          	maxsd  %xmm3,%xmm0
    133b:	f2 0f 11 00          	movsd  %xmm0,(%eax)
    133f:	e9 40 fc ff ff       	jmp    f84 <_GetMinMaxArc+0x2a4>
	if ((DiffAngle > 90) && (DiffAngle < 181))
	{
		StartPos = (int32) (StartAngle / 45);
		StartPos *= 45;

		switch (StartPos)
    1344:	83 f8 2d             	cmp    $0x2d,%eax
    1347:	0f 84 7c 00 00 00    	je     13c9 <_GetMinMaxArc+0x6e9>
    134d:	83 f8 5a             	cmp    $0x5a,%eax
    1350:	75 90                	jne    12e2 <_GetMinMaxArc+0x602>
				*ArcXmin = min(*ArcXmin, ArcX - ArcThickness2);

			break;

		case 90:
			*ArcXmin = min(*ArcXmin, ArcX - ArcThickness2);
    1352:	f2 0f 10 7c 24 50    	movsd  0x50(%esp),%xmm7
    1358:	f2 0f 10 07          	movsd  (%edi),%xmm0
    135c:	f2 0f 5c fb          	subsd  %xmm3,%xmm7
    1360:	f2 0f 5d c7          	minsd  %xmm7,%xmm0
    1364:	f2 0f 11 07          	movsd  %xmm0,(%edi)
			break;
    1368:	e9 17 fc ff ff       	jmp    f84 <_GetMinMaxArc+0x2a4>
    136d:	8d 76 00             	lea    0x0(%esi),%esi
		case 180:
			*ArcYmin = min(*ArcYmin, ArcY - ArcThickness2);
			break;

		case 225:
			*ArcYmin = min(*ArcYmin, ArcY - ArcThickness2);
    1370:	f2 0f 10 4c 24 48    	movsd  0x48(%esp),%xmm1
    1376:	f2 0f 10 06          	movsd  (%esi),%xmm0
    137a:	f2 0f 5c cb          	subsd  %xmm3,%xmm1
    137e:	f2 0f 5d c1          	minsd  %xmm1,%xmm0
    1382:	f2 0f 11 06          	movsd  %xmm0,(%esi)

			if (DiffAngle > 135)
    1386:	66 0f 2e 35 78 00 00 	ucomisd 0x78,%xmm6
    138d:	00 
    138e:	0f 87 de fb ff ff    	ja     f72 <_GetMinMaxArc+0x292>
    1394:	e9 eb fb ff ff       	jmp    f84 <_GetMinMaxArc+0x2a4>
    1399:	8d b4 26 00 00 00 00 	lea    0x0(%esi,%eiz,1),%esi
		case 90:
			*ArcXmin = min(*ArcXmin, ArcX - ArcThickness2);
			break;

		case 135:
			*ArcXmin = min(*ArcXmin, ArcX - ArcThickness2);
    13a0:	f2 0f 10 4c 24 50    	movsd  0x50(%esp),%xmm1
    13a6:	f2 0f 10 07          	movsd  (%edi),%xmm0
    13aa:	f2 0f 5c cb          	subsd  %xmm3,%xmm1
    13ae:	f2 0f 5d c1          	minsd  %xmm1,%xmm0
    13b2:	f2 0f 11 07          	movsd  %xmm0,(%edi)

			if (DiffAngle > 135)
    13b6:	66 0f 2e 35 78 00 00 	ucomisd 0x78,%xmm6
    13bd:	00 
    13be:	0f 87 f0 fc ff ff    	ja     10b4 <_GetMinMaxArc+0x3d4>
    13c4:	e9 bb fb ff ff       	jmp    f84 <_GetMinMaxArc+0x2a4>
		case 0:
			*ArcYmax = max(*ArcYmax, ArcY + ArcThickness2);
			break;

		case 45:
			*ArcYmax = max(*ArcYmax, ArcY + ArcThickness2);
    13c9:	f2 0f 10 4c 24 48    	movsd  0x48(%esp),%xmm1
    13cf:	8b 45 54             	mov    0x54(%ebp),%eax
    13d2:	f2 0f 58 cb          	addsd  %xmm3,%xmm1
    13d6:	f2 0f 5f c1          	maxsd  %xmm1,%xmm0
    13da:	f2 0f 11 00          	movsd  %xmm0,(%eax)

			if (DiffAngle > 135)
    13de:	66 0f 2e 35 78 00 00 	ucomisd 0x78,%xmm6
    13e5:	00 
    13e6:	0f 87 66 ff ff ff    	ja     1352 <_GetMinMaxArc+0x672>
    13ec:	e9 93 fb ff ff       	jmp    f84 <_GetMinMaxArc+0x2a4>
		case 90:
			*ArcXmin = min(*ArcXmin, ArcX - ArcThickness2);
			break;

		case 135:
			*ArcXmin = min(*ArcXmin, ArcX - ArcThickness2);
    13f1:	f2 0f 10 4c 24 50    	movsd  0x50(%esp),%xmm1
    13f7:	f2 0f 10 07          	movsd  (%edi),%xmm0
    13fb:	f2 0f 5c cb          	subsd  %xmm3,%xmm1
    13ff:	f2 0f 5d c1          	minsd  %xmm1,%xmm0
    1403:	f2 0f 11 07          	movsd  %xmm0,(%edi)

			if (DiffAngle > 135)
    1407:	66 0f 2e 35 78 00 00 	ucomisd 0x78,%xmm6
    140e:	00 
    140f:	0f 87 97 fe ff ff    	ja     12ac <_GetMinMaxArc+0x5cc>
    1415:	e9 6a fb ff ff       	jmp    f84 <_GetMinMaxArc+0x2a4>
    141a:	f2 0f 11 44 24 18    	movsd  %xmm0,0x18(%esp)
    1420:	f2 0f 11 64 24 20    	movsd  %xmm4,0x20(%esp)
    1426:	f2 0f 11 7c 24 28    	movsd  %xmm7,0x28(%esp)
    142c:	f2 0f 11 4c 24 30    	movsd  %xmm1,0x30(%esp)
    1432:	f2 0f 11 54 24 38    	movsd  %xmm2,0x38(%esp)
    1438:	f2 0f 11 5c 24 40    	movsd  %xmm3,0x40(%esp)
			StartY *= -1;
	}
	else
	{
		rico = StartDiffY / StartDiffX;
		StartX = ArcThickness2 * sqrt(1 / (1 + SQR(rico)));
    143e:	f2 0f 11 34 24       	movsd  %xmm6,(%esp)
    1443:	e8 00 00 00 00       	call   1448 <_GetMinMaxArc+0x768>
    1448:	f2 0f 10 44 24 18    	movsd  0x18(%esp),%xmm0
    144e:	dd 5c 24 58          	fstpl  0x58(%esp)
    1452:	f2 0f 10 64 24 20    	movsd  0x20(%esp),%xmm4
    1458:	f2 0f 10 6c 24 58    	movsd  0x58(%esp),%xmm5
    145e:	f2 0f 10 7c 24 28    	movsd  0x28(%esp),%xmm7
    1464:	f2 0f 10 4c 24 30    	movsd  0x30(%esp),%xmm1
    146a:	f2 0f 10 54 24 38    	movsd  0x38(%esp),%xmm2
    1470:	f2 0f 10 5c 24 40    	movsd  0x40(%esp),%xmm3
    1476:	e9 05 fd ff ff       	jmp    1180 <_GetMinMaxArc+0x4a0>
    147b:	f2 0f 11 44 24 18    	movsd  %xmm0,0x18(%esp)
    1481:	f2 0f 11 7c 24 20    	movsd  %xmm7,0x20(%esp)
    1487:	f2 0f 11 4c 24 28    	movsd  %xmm1,0x28(%esp)
    148d:	f2 0f 11 54 24 30    	movsd  %xmm2,0x30(%esp)
    1493:	f2 0f 11 5c 24 38    	movsd  %xmm3,0x38(%esp)
			EndY *= -1;
	}
	else
	{
		rico = EndDiffY / EndDiffX;
		EndX = ArcThickness2 * sqrt(1 / (1 + SQR(rico)));
    1499:	f2 0f 11 24 24       	movsd  %xmm4,(%esp)
    149e:	e8 00 00 00 00       	call   14a3 <_GetMinMaxArc+0x7c3>
    14a3:	f2 0f 10 44 24 18    	movsd  0x18(%esp),%xmm0
    14a9:	dd 5c 24 40          	fstpl  0x40(%esp)
    14ad:	f2 0f 10 7c 24 20    	movsd  0x20(%esp),%xmm7
    14b3:	f2 0f 10 6c 24 40    	movsd  0x40(%esp),%xmm5
    14b9:	f2 0f 10 4c 24 28    	movsd  0x28(%esp),%xmm1
    14bf:	f2 0f 10 54 24 30    	movsd  0x30(%esp),%xmm2
    14c5:	f2 0f 10 5c 24 38    	movsd  0x38(%esp),%xmm3
    14cb:	e9 54 fc ff ff       	jmp    1124 <_GetMinMaxArc+0x444>

000014d0 <_RectTestArc>:
// ***************************************************************************************************
// ***************************************************************************************************

int32 RectTestArc(double ArcX, double ArcY, double ArcWidth, double ArcHeight, double StartDiffX, double StartDiffY,
                  double EndDiffX, double EndDiffY)
{
    14d0:	53                   	push   %ebx
    14d1:	81 ec b8 00 00 00    	sub    $0xb8,%esp
	double StartAngle, StartX, StartY, EndX, EndY, Diam, EndAngle, rico, SearchCentreX, SearchCentreY, SearchCircleDiam;
	int32 StartPos, EndPos;

	ArcThickness2 = ArcWidth / 2;

	ArcXmin = ArcX - ArcWidth * 0.5;
    14d7:	f2 0f 10 05 20 00 00 	movsd  0x20,%xmm0
    14de:	00 
// ***************************************************************************************************
// ***************************************************************************************************

int32 RectTestArc(double ArcX, double ArcY, double ArcWidth, double ArcHeight, double StartDiffX, double StartDiffY,
                  double EndDiffX, double EndDiffY)
{
    14df:	dd 84 24 e0 00 00 00 	fldl   0xe0(%esp)
    14e6:	dd 84 24 e8 00 00 00 	fldl   0xe8(%esp)
    14ed:	dd 84 24 f0 00 00 00 	fldl   0xf0(%esp)
    14f4:	dd 84 24 f8 00 00 00 	fldl   0xf8(%esp)
	ArcYmin = ArcY - ArcHeight * 0.5;
	ArcXmax = ArcX + ArcWidth * 0.5;
	ArcYmax = ArcY + ArcHeight * 0.5;


	if ((ArcXmax < SearchMinX) || (ArcXmin > SearchMaxX) || (ArcYmax < SearchMinY) || (ArcYmin > SearchMaxY))
    14fb:	d9 05 00 00 00 00    	flds   0x0
// ***************************************************************************************************
// ***************************************************************************************************

int32 RectTestArc(double ArcX, double ArcY, double ArcWidth, double ArcHeight, double StartDiffX, double StartDiffY,
                  double EndDiffX, double EndDiffY)
{
    1501:	f2 0f 10 b4 24 c0 00 	movsd  0xc0(%esp),%xmm6
    1508:	00 00 
	ArcYmin = ArcY - ArcHeight * 0.5;
	ArcXmax = ArcX + ArcWidth * 0.5;
	ArcYmax = ArcY + ArcHeight * 0.5;


	if ((ArcXmax < SearchMinX) || (ArcXmin > SearchMaxX) || (ArcYmax < SearchMinY) || (ArcYmin > SearchMaxY))
    150a:	dd 54 24 18          	fstl   0x18(%esp)
// ***************************************************************************************************
// ***************************************************************************************************

int32 RectTestArc(double ArcX, double ArcY, double ArcWidth, double ArcHeight, double StartDiffX, double StartDiffY,
                  double EndDiffX, double EndDiffY)
{
    150e:	f2 0f 11 74 24 28    	movsd  %xmm6,0x28(%esp)
    1514:	f2 0f 10 8c 24 d8 00 	movsd  0xd8(%esp),%xmm1
    151b:	00 00 
    151d:	f2 0f 10 9c 24 d0 00 	movsd  0xd0(%esp),%xmm3
    1524:	00 00 
    1526:	f2 0f 11 4c 24 30    	movsd  %xmm1,0x30(%esp)
    152c:	f2 0f 10 bc 24 c8 00 	movsd  0xc8(%esp),%xmm7
    1533:	00 00 
	double StartAngle, StartX, StartY, EndX, EndY, Diam, EndAngle, rico, SearchCentreX, SearchCentreY, SearchCircleDiam;
	int32 StartPos, EndPos;

	ArcThickness2 = ArcWidth / 2;

	ArcXmin = ArcX - ArcWidth * 0.5;
    1535:	f2 0f 59 c3          	mulsd  %xmm3,%xmm0
// ***************************************************************************************************
// ***************************************************************************************************

int32 RectTestArc(double ArcX, double ArcY, double ArcWidth, double ArcHeight, double StartDiffX, double StartDiffY,
                  double EndDiffX, double EndDiffY)
{
    1539:	f2 0f 11 7c 24 20    	movsd  %xmm7,0x20(%esp)

	ArcThickness2 = ArcWidth / 2;

	ArcXmin = ArcX - ArcWidth * 0.5;
	ArcYmin = ArcY - ArcHeight * 0.5;
	ArcXmax = ArcX + ArcWidth * 0.5;
    153f:	f2 0f 10 ce          	movsd  %xmm6,%xmm1
	ArcYmax = ArcY + ArcHeight * 0.5;


	if ((ArcXmax < SearchMinX) || (ArcXmin > SearchMaxX) || (ArcYmax < SearchMinY) || (ArcYmin > SearchMaxY))
    1543:	f2 0f 10 64 24 18    	movsd  0x18(%esp),%xmm4

	ArcThickness2 = ArcWidth / 2;

	ArcXmin = ArcX - ArcWidth * 0.5;
	ArcYmin = ArcY - ArcHeight * 0.5;
	ArcXmax = ArcX + ArcWidth * 0.5;
    1549:	f2 0f 58 c8          	addsd  %xmm0,%xmm1
	ArcYmax = ArcY + ArcHeight * 0.5;


	if ((ArcXmax < SearchMinX) || (ArcXmin > SearchMaxX) || (ArcYmax < SearchMinY) || (ArcYmin > SearchMaxY))
    154d:	66 0f 2e e1          	ucomisd %xmm1,%xmm4
    1551:	0f 87 9e 03 00 00    	ja     18f5 <_RectTestArc+0x425>
    1557:	d9 05 00 00 00 00    	flds   0x0
	double StartAngle, StartX, StartY, EndX, EndY, Diam, EndAngle, rico, SearchCentreX, SearchCentreY, SearchCircleDiam;
	int32 StartPos, EndPos;

	ArcThickness2 = ArcWidth / 2;

	ArcXmin = ArcX - ArcWidth * 0.5;
    155d:	f2 0f 10 7c 24 28    	movsd  0x28(%esp),%xmm7
	ArcYmin = ArcY - ArcHeight * 0.5;
	ArcXmax = ArcX + ArcWidth * 0.5;
	ArcYmax = ArcY + ArcHeight * 0.5;


	if ((ArcXmax < SearchMinX) || (ArcXmin > SearchMaxX) || (ArcYmax < SearchMinY) || (ArcYmin > SearchMaxY))
    1563:	dd 54 24 18          	fstl   0x18(%esp)
	double StartAngle, StartX, StartY, EndX, EndY, Diam, EndAngle, rico, SearchCentreX, SearchCentreY, SearchCircleDiam;
	int32 StartPos, EndPos;

	ArcThickness2 = ArcWidth / 2;

	ArcXmin = ArcX - ArcWidth * 0.5;
    1567:	f2 0f 5c f8          	subsd  %xmm0,%xmm7
	ArcYmin = ArcY - ArcHeight * 0.5;
	ArcXmax = ArcX + ArcWidth * 0.5;
	ArcYmax = ArcY + ArcHeight * 0.5;


	if ((ArcXmax < SearchMinX) || (ArcXmin > SearchMaxX) || (ArcYmax < SearchMinY) || (ArcYmin > SearchMaxY))
    156b:	66 0f 2e 7c 24 18    	ucomisd 0x18(%esp),%xmm7
    1571:	0f 87 8a 03 00 00    	ja     1901 <_RectTestArc+0x431>
    1577:	d9 05 00 00 00 00    	flds   0x0
	int32 StartPos, EndPos;

	ArcThickness2 = ArcWidth / 2;

	ArcXmin = ArcX - ArcWidth * 0.5;
	ArcYmin = ArcY - ArcHeight * 0.5;
    157d:	f2 0f 10 35 20 00 00 	movsd  0x20,%xmm6
    1584:	00 
	ArcXmax = ArcX + ArcWidth * 0.5;
	ArcYmax = ArcY + ArcHeight * 0.5;


	if ((ArcXmax < SearchMinX) || (ArcXmin > SearchMaxX) || (ArcYmax < SearchMinY) || (ArcYmin > SearchMaxY))
    1585:	dd 54 24 38          	fstl   0x38(%esp)
	int32 StartPos, EndPos;

	ArcThickness2 = ArcWidth / 2;

	ArcXmin = ArcX - ArcWidth * 0.5;
	ArcYmin = ArcY - ArcHeight * 0.5;
    1589:	f2 0f 59 74 24 30    	mulsd  0x30(%esp),%xmm6
	ArcXmax = ArcX + ArcWidth * 0.5;
	ArcYmax = ArcY + ArcHeight * 0.5;
    158f:	f2 0f 10 6c 24 20    	movsd  0x20(%esp),%xmm5
	int32 StartPos, EndPos;

	ArcThickness2 = ArcWidth / 2;

	ArcXmin = ArcX - ArcWidth * 0.5;
	ArcYmin = ArcY - ArcHeight * 0.5;
    1595:	f2 0f 11 74 24 40    	movsd  %xmm6,0x40(%esp)
	ArcXmax = ArcX + ArcWidth * 0.5;
	ArcYmax = ArcY + ArcHeight * 0.5;


	if ((ArcXmax < SearchMinX) || (ArcXmin > SearchMaxX) || (ArcYmax < SearchMinY) || (ArcYmin > SearchMaxY))
    159b:	f2 0f 10 54 24 38    	movsd  0x38(%esp),%xmm2
	ArcThickness2 = ArcWidth / 2;

	ArcXmin = ArcX - ArcWidth * 0.5;
	ArcYmin = ArcY - ArcHeight * 0.5;
	ArcXmax = ArcX + ArcWidth * 0.5;
	ArcYmax = ArcY + ArcHeight * 0.5;
    15a1:	f2 0f 58 ee          	addsd  %xmm6,%xmm5


	if ((ArcXmax < SearchMinX) || (ArcXmin > SearchMaxX) || (ArcYmax < SearchMinY) || (ArcYmin > SearchMaxY))
    15a5:	f2 0f 11 54 24 48    	movsd  %xmm2,0x48(%esp)
	ArcThickness2 = ArcWidth / 2;

	ArcXmin = ArcX - ArcWidth * 0.5;
	ArcYmin = ArcY - ArcHeight * 0.5;
	ArcXmax = ArcX + ArcWidth * 0.5;
	ArcYmax = ArcY + ArcHeight * 0.5;
    15ab:	f2 0f 11 6c 24 58    	movsd  %xmm5,0x58(%esp)


	if ((ArcXmax < SearchMinX) || (ArcXmin > SearchMaxX) || (ArcYmax < SearchMinY) || (ArcYmin > SearchMaxY))
    15b1:	66 0f 2e d5          	ucomisd %xmm5,%xmm2
    15b5:	0f 87 55 03 00 00    	ja     1910 <_RectTestArc+0x440>
	int32 StartPos, EndPos;

	ArcThickness2 = ArcWidth / 2;

	ArcXmin = ArcX - ArcWidth * 0.5;
	ArcYmin = ArcY - ArcHeight * 0.5;
    15bb:	f2 0f 10 54 24 20    	movsd  0x20(%esp),%xmm2
    15c1:	f2 0f 5c d6          	subsd  %xmm6,%xmm2
	ArcXmax = ArcX + ArcWidth * 0.5;
	ArcYmax = ArcY + ArcHeight * 0.5;


	if ((ArcXmax < SearchMinX) || (ArcXmin > SearchMaxX) || (ArcYmax < SearchMinY) || (ArcYmin > SearchMaxY))
    15c5:	f3 0f 10 35 00 00 00 	movss  0x0,%xmm6
    15cc:	00 
	int32 StartPos, EndPos;

	ArcThickness2 = ArcWidth / 2;

	ArcXmin = ArcX - ArcWidth * 0.5;
	ArcYmin = ArcY - ArcHeight * 0.5;
    15cd:	f2 0f 11 54 24 60    	movsd  %xmm2,0x60(%esp)
	ArcXmax = ArcX + ArcWidth * 0.5;
	ArcYmax = ArcY + ArcHeight * 0.5;


	if ((ArcXmax < SearchMinX) || (ArcXmin > SearchMaxX) || (ArcYmax < SearchMinY) || (ArcYmin > SearchMaxY))
    15d3:	f3 0f 11 74 24 38    	movss  %xmm6,0x38(%esp)
    15d9:	d9 44 24 38          	flds   0x38(%esp)
    15dd:	dd 5c 24 50          	fstpl  0x50(%esp)
    15e1:	f2 0f 10 74 24 50    	movsd  0x50(%esp),%xmm6
    15e7:	66 0f 2e d6          	ucomisd %xmm6,%xmm2
    15eb:	0f 87 2f 03 00 00    	ja     1920 <_RectTestArc+0x450>
		return 0;

	if ((ArcXmax < SearchMaxX) && (ArcXmin > SearchMinX) && (ArcYmax < SearchMaxY) && (ArcYmin > SearchMinY))
    15f1:	66 0f 2e 54 24 48    	ucomisd 0x48(%esp),%xmm2
    15f7:	0f 97 c2             	seta   %dl
    15fa:	66 0f 2e f5          	ucomisd %xmm5,%xmm6
    15fe:	0f 97 c0             	seta   %al
    1601:	21 d0                	and    %edx,%eax
    1603:	66 0f 2e fc          	ucomisd %xmm4,%xmm7
    1607:	0f 97 c2             	seta   %dl
    160a:	84 d0                	test   %dl,%al
    160c:	74 19                	je     1627 <_RectTestArc+0x157>
    160e:	f2 0f 10 6c 24 18    	movsd  0x18(%esp),%xmm5
		return 1;
    1614:	b8 01 00 00 00       	mov    $0x1,%eax


	if ((ArcXmax < SearchMinX) || (ArcXmin > SearchMaxX) || (ArcYmax < SearchMinY) || (ArcYmin > SearchMaxY))
		return 0;

	if ((ArcXmax < SearchMaxX) && (ArcXmin > SearchMinX) && (ArcYmax < SearchMaxY) && (ArcYmin > SearchMinY))
    1619:	66 0f 2e e9          	ucomisd %xmm1,%xmm5
    161d:	0f 87 1d 03 00 00    	ja     1940 <_RectTestArc+0x470>
    1623:	d9 c9                	fxch   %st(1)
    1625:	eb 02                	jmp    1629 <_RectTestArc+0x159>
    1627:	d9 c9                	fxch   %st(1)
		return 1;

	SearchCentreX = (SearchMinX + SearchMaxX) * 0.5;
	SearchCentreY = (SearchMinY + SearchMaxY) * 0.5;
	SearchCircleDiam = sqrt(SQR((SearchMaxX - SearchMinX) * 0.5) + SQR((SearchMaxY - SearchMinY) * 0.5));
    1629:	d9 54 24 18          	fsts   0x18(%esp)
    162d:	d9 ca                	fxch   %st(2)
    162f:	f3 0f 10 6c 24 18    	movss  0x18(%esp),%xmm5
    1635:	d9 54 24 18          	fsts   0x18(%esp)
    1639:	f3 0f 10 64 24 18    	movss  0x18(%esp),%xmm4
    163f:	f3 0f 5c ec          	subss  %xmm4,%xmm5
    1643:	f3 0f 11 6c 24 18    	movss  %xmm5,0x18(%esp)
    1649:	d9 44 24 18          	flds   0x18(%esp)
    164d:	f3 0f 10 64 24 38    	movss  0x38(%esp),%xmm4
    1653:	dd 5c 24 18          	fstpl  0x18(%esp)
    1657:	d9 c9                	fxch   %st(1)
    1659:	f2 0f 10 6c 24 18    	movsd  0x18(%esp),%xmm5
    165f:	d9 54 24 18          	fsts   0x18(%esp)
    1663:	f3 0f 10 54 24 18    	movss  0x18(%esp),%xmm2
    1669:	f3 0f 5c e2          	subss  %xmm2,%xmm4
    166d:	f3 0f 11 64 24 18    	movss  %xmm4,0x18(%esp)
    1673:	d9 44 24 18          	flds   0x18(%esp)
    1677:	dc 0d 20 00 00 00    	fmull  0x20
    167d:	f2 0f 59 2d 20 00 00 	mulsd  0x20,%xmm5
    1684:	00 
    1685:	f2 0f 59 ed          	mulsd  %xmm5,%xmm5
    1689:	dd 5c 24 18          	fstpl  0x18(%esp)
    168d:	f2 0f 10 64 24 18    	movsd  0x18(%esp),%xmm4
    1693:	f2 0f 59 e4          	mulsd  %xmm4,%xmm4
    1697:	f2 0f 58 e5          	addsd  %xmm5,%xmm4
    169b:	f2 0f 51 ec          	sqrtsd %xmm4,%xmm5
    169f:	66 0f 2e ed          	ucomisd %xmm5,%xmm5
    16a3:	0f 8a 3b 06 00 00    	jp     1ce4 <_RectTestArc+0x814>
    16a9:	d9 ca                	fxch   %st(2)
		return 0;

	if ((ArcXmax < SearchMaxX) && (ArcXmin > SearchMinX) && (ArcYmax < SearchMaxY) && (ArcYmin > SearchMinY))
		return 1;

	SearchCentreX = (SearchMinX + SearchMaxX) * 0.5;
    16ab:	de c1                	faddp  %st,%st(1)
    16ad:	dc 0d 20 00 00 00    	fmull  0x20
	SearchCentreY = (SearchMinY + SearchMaxY) * 0.5;
	SearchCircleDiam = sqrt(SQR((SearchMaxX - SearchMinX) * 0.5) + SQR((SearchMaxY - SearchMinY) * 0.5));
	Diam = sqrt(SQR(ArcX - SearchCentreX) + SQR(ArcY - SearchCentreY));
    16b3:	dc 6c 24 28          	fsubrl 0x28(%esp)
    16b7:	d9 c9                	fxch   %st(1)

	if ((ArcXmax < SearchMaxX) && (ArcXmin > SearchMinX) && (ArcYmax < SearchMaxY) && (ArcYmin > SearchMinY))
		return 1;

	SearchCentreX = (SearchMinX + SearchMaxX) * 0.5;
	SearchCentreY = (SearchMinY + SearchMaxY) * 0.5;
    16b9:	d8 44 24 38          	fadds  0x38(%esp)
    16bd:	dc 0d 20 00 00 00    	fmull  0x20
	SearchCircleDiam = sqrt(SQR((SearchMaxX - SearchMinX) * 0.5) + SQR((SearchMaxY - SearchMinY) * 0.5));
	Diam = sqrt(SQR(ArcX - SearchCentreX) + SQR(ArcY - SearchCentreY));
    16c3:	dc 6c 24 20          	fsubrl 0x20(%esp)
    16c7:	d9 c9                	fxch   %st(1)
    16c9:	dd 5c 24 18          	fstpl  0x18(%esp)
    16cd:	f2 0f 10 54 24 18    	movsd  0x18(%esp),%xmm2
    16d3:	dd 5c 24 38          	fstpl  0x38(%esp)
    16d7:	f2 0f 59 d2          	mulsd  %xmm2,%xmm2
    16db:	f2 0f 11 54 24 18    	movsd  %xmm2,0x18(%esp)
    16e1:	f2 0f 10 54 24 38    	movsd  0x38(%esp),%xmm2
    16e7:	f2 0f 10 64 24 18    	movsd  0x18(%esp),%xmm4
    16ed:	f2 0f 59 d2          	mulsd  %xmm2,%xmm2
    16f1:	f2 0f 58 e2          	addsd  %xmm2,%xmm4
    16f5:	f2 0f 11 54 24 38    	movsd  %xmm2,0x38(%esp)
    16fb:	f2 0f 10 d4          	movsd  %xmm4,%xmm2
    16ff:	f2 0f 51 e4          	sqrtsd %xmm4,%xmm4
    1703:	66 0f 2e e4          	ucomisd %xmm4,%xmm4
    1707:	0f 8a 94 06 00 00    	jp     1da1 <_RectTestArc+0x8d1>

	if (Diam - SearchCircleDiam > max(ArcWidth, ArcHeight) * 0.5)
    170d:	f2 0f 10 54 24 30    	movsd  0x30(%esp),%xmm2
    1713:	f2 0f c2 d3 01       	cmpltsd %xmm3,%xmm2
    1718:	f2 0f 10 5c 24 40    	movsd  0x40(%esp),%xmm3
    171e:	66 0f 54 c2          	andpd  %xmm2,%xmm0
    1722:	66 0f 55 d3          	andnpd %xmm3,%xmm2
    1726:	f2 0f 5c e5          	subsd  %xmm5,%xmm4
    172a:	66 0f 56 c2          	orpd   %xmm2,%xmm0
    172e:	66 0f 2e e0          	ucomisd %xmm0,%xmm4
    1732:	0f 87 f8 01 00 00    	ja     1930 <_RectTestArc+0x460>
		return 0;

	if (StartDiffX == 0.0)
    1738:	d9 ee                	fldz   
    173a:	d9 cc                	fxch   %st(4)
    173c:	db ec                	fucomi %st(4),%st
    173e:	7a 12                	jp     1752 <_RectTestArc+0x282>
    1740:	0f 84 12 02 00 00    	je     1958 <_RectTestArc+0x488>
    1746:	dd dc                	fstp   %st(4)
    1748:	d9 c9                	fxch   %st(1)
    174a:	d9 ca                	fxch   %st(2)
    174c:	d9 cb                	fxch   %st(3)
    174e:	d9 c9                	fxch   %st(1)
    1750:	eb 0e                	jmp    1760 <_RectTestArc+0x290>
    1752:	dd dc                	fstp   %st(4)
    1754:	d9 c9                	fxch   %st(1)
    1756:	d9 ca                	fxch   %st(2)
    1758:	d9 cb                	fxch   %st(3)
    175a:	d9 c9                	fxch   %st(1)
    175c:	8d 74 26 00          	lea    0x0(%esi,%eiz,1),%esi
    1760:	dd 5c 24 70          	fstpl  0x70(%esp)
    1764:	d9 c9                	fxch   %st(1)
    1766:	f2 0f 11 4c 24 50    	movsd  %xmm1,0x50(%esp)
    176c:	f2 0f 11 7c 24 48    	movsd  %xmm7,0x48(%esp)
    1772:	dd 5c 24 68          	fstpl  0x68(%esp)
		else
			StartAngle = 90.0;
	}
	else
	{
		rico = StartDiffY / StartDiffX;
    1776:	d9 c1                	fld    %st(1)
    1778:	dd 5c 24 40          	fstpl  0x40(%esp)
    177c:	dc f9                	fdivr  %st,%st(1)
    177e:	dd 5c 24 38          	fstpl  0x38(%esp)
		StartAngle = atan(rico) * 180 / PI;
    1782:	dd 14 24             	fstl   (%esp)
    1785:	dd 5c 24 30          	fstpl  0x30(%esp)
    1789:	e8 00 00 00 00       	call   178e <_RectTestArc+0x2be>
    178e:	dc 0d 40 00 00 00    	fmull  0x40

		if (rico > 0.0)
    1794:	f2 0f 10 7c 24 48    	movsd  0x48(%esp),%xmm7
    179a:	f2 0f 10 4c 24 50    	movsd  0x50(%esp),%xmm1
			StartAngle = 90.0;
	}
	else
	{
		rico = StartDiffY / StartDiffX;
		StartAngle = atan(rico) * 180 / PI;
    17a0:	dd 5c 24 18          	fstpl  0x18(%esp)

		if (rico > 0.0)
    17a4:	d9 ee                	fldz   
    17a6:	dd 44 24 30          	fldl   0x30(%esp)
		{
			if (StartDiffX < 0.0)
    17aa:	d9 ee                	fldz   
    17ac:	d9 c9                	fxch   %st(1)
	else
	{
		rico = StartDiffY / StartDiffX;
		StartAngle = atan(rico) * 180 / PI;

		if (rico > 0.0)
    17ae:	df ea                	fucomip %st(2),%st
    17b0:	dd d9                	fstp   %st(1)
    17b2:	dd 44 24 38          	fldl   0x38(%esp)
			StartAngle = 90.0;
	}
	else
	{
		rico = StartDiffY / StartDiffX;
		StartAngle = atan(rico) * 180 / PI;
    17b6:	f2 0f 10 44 24 18    	movsd  0x18(%esp),%xmm0

		if (rico > 0.0)
    17bc:	dd 44 24 40          	fldl   0x40(%esp)
    17c0:	dd 44 24 68          	fldl   0x68(%esp)
			StartAngle = 90.0;
	}
	else
	{
		rico = StartDiffY / StartDiffX;
		StartAngle = atan(rico) * 180 / PI;
    17c4:	f2 0f 5e 05 48 00 00 	divsd  0x48,%xmm0
    17cb:	00 

		if (rico > 0.0)
    17cc:	dd 44 24 70          	fldl   0x70(%esp)
    17d0:	0f 86 ba 03 00 00    	jbe    1b90 <_RectTestArc+0x6c0>
    17d6:	d9 cc                	fxch   %st(4)
		{
			if (StartDiffX < 0.0)
    17d8:	df eb                	fucomip %st(3),%st
    17da:	0f 87 6b 03 00 00    	ja     1b4b <_RectTestArc+0x67b>
    17e0:	d9 c9                	fxch   %st(1)
    17e2:	d9 ca                	fxch   %st(2)
    17e4:	d9 cb                	fxch   %st(3)
    17e6:	f2 0f 5e 05 28 00 00 	divsd  0x28,%xmm0
    17ed:	00 
    17ee:	f2 0f 2c d8          	cvttsd2si %xmm0,%ebx
			else
				StartAngle += 180.0;
		}
	}

	if (EndDiffX == 0.0)
    17f2:	d9 ee                	fldz   
    17f4:	d9 ca                	fxch   %st(2)
    17f6:	db ea                	fucomi %st(2),%st
    17f8:	0f 8a 6c 01 00 00    	jp     196a <_RectTestArc+0x49a>
    17fe:	0f 85 6e 01 00 00    	jne    1972 <_RectTestArc+0x4a2>
    1804:	d9 ca                	fxch   %st(2)
	{
		if (EndDiffY < 0.0)
    1806:	31 c0                	xor    %eax,%eax
    1808:	df e9                	fucomip %st(1),%st
    180a:	d9 cb                	fxch   %st(3)
			else
				EndAngle += 180.0;
		}
	}

	StartX = ArcX + StartDiffX;
    180c:	f2 0f 10 6c 24 28    	movsd  0x28(%esp),%xmm5
    1812:	dd 5c 24 18          	fstpl  0x18(%esp)
    1816:	d9 c9                	fxch   %st(1)
    1818:	f2 0f 10 54 24 18    	movsd  0x18(%esp),%xmm2
	StartY = ArcY + StartDiffY;
    181e:	dd 5c 24 18          	fstpl  0x18(%esp)
    1822:	f2 0f 10 5c 24 18    	movsd  0x18(%esp),%xmm3
	EndX = ArcX + EndDiffX;
    1828:	dd 5c 24 18          	fstpl  0x18(%esp)
    182c:	f2 0f 10 64 24 18    	movsd  0x18(%esp),%xmm4
	EndY = ArcY + EndDiffY;
    1832:	dd 5c 24 18          	fstpl  0x18(%esp)
		}
	}

	if (EndDiffX == 0.0)
	{
		if (EndDiffY < 0.0)
    1836:	0f 97 c0             	seta   %al
			else
				EndAngle += 180.0;
		}
	}

	StartX = ArcX + StartDiffX;
    1839:	f2 0f 58 d5          	addsd  %xmm5,%xmm2
	StartY = ArcY + StartDiffY;
	EndX = ArcX + EndDiffX;
    183d:	f2 0f 58 e5          	addsd  %xmm5,%xmm4
	EndY = ArcY + EndDiffY;
    1841:	f2 0f 10 6c 24 18    	movsd  0x18(%esp),%xmm5
		}
	}

	if (EndDiffX == 0.0)
	{
		if (EndDiffY < 0.0)
    1847:	8d 44 00 01          	lea    0x1(%eax,%eax,1),%eax
	EndX = ArcX + EndDiffX;
	EndY = ArcY + EndDiffY;

	StartPos = (int32) (StartAngle / 90);

	if (StartPos == 4)
    184b:	83 fb 04             	cmp    $0x4,%ebx
				EndAngle += 180.0;
		}
	}

	StartX = ArcX + StartDiffX;
	StartY = ArcY + StartDiffY;
    184e:	f2 0f 58 5c 24 20    	addsd  0x20(%esp),%xmm3
	EndX = ArcX + EndDiffX;
	EndY = ArcY + EndDiffY;
    1854:	f2 0f 58 6c 24 20    	addsd  0x20(%esp),%xmm5

	StartPos = (int32) (StartAngle / 90);

	if (StartPos == 4)
    185a:	0f 84 49 02 00 00    	je     1aa9 <_RectTestArc+0x5d9>
	EndPos = (int32) (EndAngle / 90);

	if (EndPos == 4)
		EndPos = 0;

	switch (StartPos)
    1860:	83 fb 01             	cmp    $0x1,%ebx
    1863:	0f 84 ac 02 00 00    	je     1b15 <_RectTestArc+0x645>
    1869:	0f 8e 67 03 00 00    	jle    1bd6 <_RectTestArc+0x706>
    186f:	83 fb 02             	cmp    $0x2,%ebx
    1872:	0f 84 5f 02 00 00    	je     1ad7 <_RectTestArc+0x607>
    1878:	83 fb 03             	cmp    $0x3,%ebx
    187b:	75 33                	jne    18b0 <_RectTestArc+0x3e0>
		}

		break;

	case 3:
		switch (EndPos)
    187d:	83 f8 01             	cmp    $0x1,%eax
    1880:	0f 84 c0 03 00 00    	je     1c46 <_RectTestArc+0x776>
    1886:	0f 8e a4 05 00 00    	jle    1e30 <_RectTestArc+0x960>
    188c:	83 f8 02             	cmp    $0x2,%eax
    188f:	0f 84 a2 03 00 00    	je     1c37 <_RectTestArc+0x767>
    1895:	83 f8 03             	cmp    $0x3,%eax
    1898:	75 16                	jne    18b0 <_RectTestArc+0x3e0>
    189a:	f2 0f 10 cc          	movsd  %xmm4,%xmm1
    189e:	f2 0f 11 6c 24 58    	movsd  %xmm5,0x58(%esp)
    18a4:	f2 0f 10 fa          	movsd  %xmm2,%xmm7
    18a8:	f2 0f 11 5c 24 60    	movsd  %xmm3,0x60(%esp)
    18ae:	66 90                	xchg   %ax,%ax
		}

		break;
	}

	if ((ArcXmax < SearchMinX) || (ArcXmin > SearchMaxX) || (ArcYmax < SearchMinY) || (ArcYmin > SearchMaxY))
    18b0:	f3 0f 5a 05 00 00 00 	cvtss2sd 0x0,%xmm0
    18b7:	00 
    18b8:	66 0f 2e c1          	ucomisd %xmm1,%xmm0
    18bc:	77 7a                	ja     1938 <_RectTestArc+0x468>
    18be:	f3 0f 5a 05 00 00 00 	cvtss2sd 0x0,%xmm0
    18c5:	00 
    18c6:	66 0f 2e f8          	ucomisd %xmm0,%xmm7
    18ca:	77 6c                	ja     1938 <_RectTestArc+0x468>
    18cc:	f3 0f 5a 05 00 00 00 	cvtss2sd 0x0,%xmm0
    18d3:	00 
    18d4:	66 0f 2e 44 24 58    	ucomisd 0x58(%esp),%xmm0
    18da:	77 5c                	ja     1938 <_RectTestArc+0x468>
    18dc:	f3 0f 5a 05 00 00 00 	cvtss2sd 0x0,%xmm0
    18e3:	00 
    18e4:	f2 0f 10 5c 24 60    	movsd  0x60(%esp),%xmm3
	ArcXmax = ArcX + ArcWidth * 0.5;
	ArcYmax = ArcY + ArcHeight * 0.5;


	if ((ArcXmax < SearchMinX) || (ArcXmin > SearchMaxX) || (ArcYmax < SearchMinY) || (ArcYmin > SearchMaxY))
		return 0;
    18ea:	31 c0                	xor    %eax,%eax
    18ec:	66 0f 2e d8          	ucomisd %xmm0,%xmm3
    18f0:	0f 96 c0             	setbe  %al
    18f3:	eb 5b                	jmp    1950 <_RectTestArc+0x480>
    18f5:	dd d8                	fstp   %st(0)
    18f7:	dd d8                	fstp   %st(0)
    18f9:	dd d8                	fstp   %st(0)
    18fb:	dd d8                	fstp   %st(0)
    18fd:	dd d8                	fstp   %st(0)
    18ff:	eb 37                	jmp    1938 <_RectTestArc+0x468>
    1901:	dd d8                	fstp   %st(0)
    1903:	dd d8                	fstp   %st(0)
    1905:	dd d8                	fstp   %st(0)
    1907:	dd d8                	fstp   %st(0)
    1909:	dd d8                	fstp   %st(0)
    190b:	dd d8                	fstp   %st(0)
    190d:	eb 29                	jmp    1938 <_RectTestArc+0x468>
    190f:	90                   	nop
    1910:	dd d8                	fstp   %st(0)
    1912:	dd d8                	fstp   %st(0)
    1914:	dd d8                	fstp   %st(0)
    1916:	dd d8                	fstp   %st(0)
    1918:	dd d8                	fstp   %st(0)
    191a:	dd d8                	fstp   %st(0)
    191c:	dd d8                	fstp   %st(0)
    191e:	eb 18                	jmp    1938 <_RectTestArc+0x468>
    1920:	dd d8                	fstp   %st(0)
    1922:	dd d8                	fstp   %st(0)
    1924:	dd d8                	fstp   %st(0)
    1926:	dd d8                	fstp   %st(0)
    1928:	dd d8                	fstp   %st(0)
    192a:	dd d8                	fstp   %st(0)
    192c:	dd d8                	fstp   %st(0)
    192e:	eb 08                	jmp    1938 <_RectTestArc+0x468>
    1930:	dd d8                	fstp   %st(0)
    1932:	dd d8                	fstp   %st(0)
    1934:	dd d8                	fstp   %st(0)
    1936:	dd d8                	fstp   %st(0)
    1938:	31 c0                	xor    %eax,%eax
    193a:	eb 14                	jmp    1950 <_RectTestArc+0x480>
    193c:	8d 74 26 00          	lea    0x0(%esi,%eiz,1),%esi
    1940:	dd d8                	fstp   %st(0)
    1942:	dd d8                	fstp   %st(0)
    1944:	dd d8                	fstp   %st(0)
    1946:	dd d8                	fstp   %st(0)
    1948:	dd d8                	fstp   %st(0)
    194a:	dd d8                	fstp   %st(0)
    194c:	dd d8                	fstp   %st(0)
    194e:	66 90                	xchg   %ax,%ax

	if ((ArcXmax < SearchMinX) || (ArcXmin > SearchMaxX) || (ArcYmax < SearchMinY) || (ArcYmin > SearchMaxY))
		return 0;

	return 1;
}
    1950:	81 c4 b8 00 00 00    	add    $0xb8,%esp
    1956:	5b                   	pop    %ebx
    1957:	c3                   	ret    
    1958:	d9 cc                	fxch   %st(4)
	if (Diam - SearchCircleDiam > max(ArcWidth, ArcHeight) * 0.5)
		return 0;

	if (StartDiffX == 0.0)
	{
		if (StartDiffY < 0.0)
    195a:	31 db                	xor    %ebx,%ebx
    195c:	df eb                	fucomip %st(3),%st
    195e:	0f 97 c3             	seta   %bl
    1961:	8d 5c 1b 01          	lea    0x1(%ebx,%ebx,1),%ebx
    1965:	e9 88 fe ff ff       	jmp    17f2 <_RectTestArc+0x322>
    196a:	dd da                	fstp   %st(2)
    196c:	d9 c9                	fxch   %st(1)
    196e:	d9 ca                	fxch   %st(2)
    1970:	eb 06                	jmp    1978 <_RectTestArc+0x4a8>
    1972:	dd da                	fstp   %st(2)
    1974:	d9 c9                	fxch   %st(1)
    1976:	d9 ca                	fxch   %st(2)
    1978:	dd 5c 24 70          	fstpl  0x70(%esp)
    197c:	d9 ca                	fxch   %st(2)
    197e:	f2 0f 11 4c 24 50    	movsd  %xmm1,0x50(%esp)
    1984:	f2 0f 11 7c 24 48    	movsd  %xmm7,0x48(%esp)
    198a:	dd 5c 24 68          	fstpl  0x68(%esp)
		else
			EndAngle = 90.0;
	}
	else
	{
		rico = EndDiffY / EndDiffX;
    198e:	d9 c1                	fld    %st(1)
    1990:	dd 5c 24 40          	fstpl  0x40(%esp)
    1994:	dc f9                	fdivr  %st,%st(1)
    1996:	dd 5c 24 38          	fstpl  0x38(%esp)
		EndAngle = atan(rico) * 180 / PI;
    199a:	dd 14 24             	fstl   (%esp)
    199d:	dd 5c 24 30          	fstpl  0x30(%esp)
    19a1:	e8 00 00 00 00       	call   19a6 <_RectTestArc+0x4d6>
    19a6:	dc 0d 40 00 00 00    	fmull  0x40

		if (rico > 0.0)
    19ac:	f2 0f 10 7c 24 48    	movsd  0x48(%esp),%xmm7
    19b2:	f2 0f 10 4c 24 50    	movsd  0x50(%esp),%xmm1
			EndAngle = 90.0;
	}
	else
	{
		rico = EndDiffY / EndDiffX;
		EndAngle = atan(rico) * 180 / PI;
    19b8:	dd 5c 24 18          	fstpl  0x18(%esp)

		if (rico > 0.0)
    19bc:	d9 ee                	fldz   
    19be:	dd 44 24 30          	fldl   0x30(%esp)
		{
			if (EndDiffX < 0.0)
    19c2:	d9 ee                	fldz   
    19c4:	d9 c9                	fxch   %st(1)
	else
	{
		rico = EndDiffY / EndDiffX;
		EndAngle = atan(rico) * 180 / PI;

		if (rico > 0.0)
    19c6:	df ea                	fucomip %st(2),%st
    19c8:	dd d9                	fstp   %st(1)
    19ca:	dd 44 24 38          	fldl   0x38(%esp)
			EndAngle = 90.0;
	}
	else
	{
		rico = EndDiffY / EndDiffX;
		EndAngle = atan(rico) * 180 / PI;
    19ce:	f2 0f 10 44 24 18    	movsd  0x18(%esp),%xmm0

		if (rico > 0.0)
    19d4:	dd 44 24 40          	fldl   0x40(%esp)
    19d8:	dd 44 24 68          	fldl   0x68(%esp)
			EndAngle = 90.0;
	}
	else
	{
		rico = EndDiffY / EndDiffX;
		EndAngle = atan(rico) * 180 / PI;
    19dc:	f2 0f 5e 05 48 00 00 	divsd  0x48,%xmm0
    19e3:	00 

		if (rico > 0.0)
    19e4:	dd 44 24 70          	fldl   0x70(%esp)
    19e8:	0f 86 82 01 00 00    	jbe    1b70 <_RectTestArc+0x6a0>
    19ee:	d9 cc                	fxch   %st(4)
		{
			if (EndDiffX < 0.0)
    19f0:	df eb                	fucomip %st(3),%st
    19f2:	0f 87 66 01 00 00    	ja     1b5e <_RectTestArc+0x68e>
			else
				EndAngle += 180.0;
		}
	}

	StartX = ArcX + StartDiffX;
    19f8:	dd 5c 24 18          	fstpl  0x18(%esp)
    19fc:	d9 ca                	fxch   %st(2)
    19fe:	f2 0f 10 54 24 18    	movsd  0x18(%esp),%xmm2
	StartY = ArcY + StartDiffY;
    1a04:	dd 5c 24 18          	fstpl  0x18(%esp)
    1a08:	f2 0f 10 5c 24 18    	movsd  0x18(%esp),%xmm3
	EndX = ArcX + EndDiffX;
    1a0e:	dd 5c 24 18          	fstpl  0x18(%esp)
			else
				EndAngle += 180.0;
		}
	}

	StartX = ArcX + StartDiffX;
    1a12:	f2 0f 10 6c 24 28    	movsd  0x28(%esp),%xmm5
	StartY = ArcY + StartDiffY;
	EndX = ArcX + EndDiffX;
    1a18:	f2 0f 10 64 24 18    	movsd  0x18(%esp),%xmm4
	EndY = ArcY + EndDiffY;
    1a1e:	dd 5c 24 18          	fstpl  0x18(%esp)
			else
				EndAngle += 180.0;
		}
	}

	StartX = ArcX + StartDiffX;
    1a22:	f2 0f 58 d5          	addsd  %xmm5,%xmm2
	StartY = ArcY + StartDiffY;
	EndX = ArcX + EndDiffX;
    1a26:	f2 0f 58 e5          	addsd  %xmm5,%xmm4
	StartPos = (int32) (StartAngle / 90);

	if (StartPos == 4)
		StartPos = 0;

	EndPos = (int32) (EndAngle / 90);
    1a2a:	f2 0f 5e 05 28 00 00 	divsd  0x28,%xmm0
    1a31:	00 
	}

	StartX = ArcX + StartDiffX;
	StartY = ArcY + StartDiffY;
	EndX = ArcX + EndDiffX;
	EndY = ArcY + EndDiffY;
    1a32:	f2 0f 10 6c 24 18    	movsd  0x18(%esp),%xmm5
				EndAngle += 180.0;
		}
	}

	StartX = ArcX + StartDiffX;
	StartY = ArcY + StartDiffY;
    1a38:	f2 0f 58 5c 24 20    	addsd  0x20(%esp),%xmm3
	EndX = ArcX + EndDiffX;
	EndY = ArcY + EndDiffY;
    1a3e:	f2 0f 58 6c 24 20    	addsd  0x20(%esp),%xmm5
	StartPos = (int32) (StartAngle / 90);

	if (StartPos == 4)
		StartPos = 0;

	EndPos = (int32) (EndAngle / 90);
    1a44:	f2 0f 2c c0          	cvttsd2si %xmm0,%eax
	EndX = ArcX + EndDiffX;
	EndY = ArcY + EndDiffY;

	StartPos = (int32) (StartAngle / 90);

	if (StartPos == 4)
    1a48:	83 fb 04             	cmp    $0x4,%ebx
    1a4b:	74 53                	je     1aa0 <_RectTestArc+0x5d0>
		StartPos = 0;

	EndPos = (int32) (EndAngle / 90);

	if (EndPos == 4)
    1a4d:	83 f8 04             	cmp    $0x4,%eax
    1a50:	0f 85 0a fe ff ff    	jne    1860 <_RectTestArc+0x390>
		EndPos = 0;

	switch (StartPos)
    1a56:	83 fb 01             	cmp    $0x1,%ebx
    1a59:	0f 84 15 02 00 00    	je     1c74 <_RectTestArc+0x7a4>
    1a5f:	0f 8e 50 01 00 00    	jle    1bb5 <_RectTestArc+0x6e5>
    1a65:	83 fb 02             	cmp    $0x2,%ebx
    1a68:	0f 84 ef 01 00 00    	je     1c5d <_RectTestArc+0x78d>
    1a6e:	83 fb 03             	cmp    $0x3,%ebx
    1a71:	0f 85 39 fe ff ff    	jne    18b0 <_RectTestArc+0x3e0>
    1a77:	f2 0f 11 6c 24 58    	movsd  %xmm5,0x58(%esp)
    1a7d:	f2 0f 11 5c 24 60    	movsd  %xmm3,0x60(%esp)
    1a83:	f2 0f 10 fc          	movsd  %xmm4,%xmm7
			ArcYmax = EndY;
			ArcYmin = StartY;
			break;

		case 0:
			ArcXmin = min(EndX, StartX);
    1a87:	66 0f 2e d4          	ucomisd %xmm4,%xmm2
    1a8b:	0f 87 1f fe ff ff    	ja     18b0 <_RectTestArc+0x3e0>
    1a91:	f2 0f 10 fa          	movsd  %xmm2,%xmm7
    1a95:	e9 16 fe ff ff       	jmp    18b0 <_RectTestArc+0x3e0>
    1a9a:	8d b6 00 00 00 00    	lea    0x0(%esi),%esi
	if (StartPos == 4)
		StartPos = 0;

	EndPos = (int32) (EndAngle / 90);

	if (EndPos == 4)
    1aa0:	83 f8 04             	cmp    $0x4,%eax
    1aa3:	0f 84 14 01 00 00    	je     1bbd <_RectTestArc+0x6ed>
		EndPos = 0;

	switch (StartPos)
	{
	case 0:
		switch (EndPos)
    1aa9:	83 f8 01             	cmp    $0x1,%eax
    1aac:	0f 84 59 01 00 00    	je     1c0b <_RectTestArc+0x73b>
    1ab2:	0f 8e 2b 01 00 00    	jle    1be3 <_RectTestArc+0x713>
    1ab8:	83 f8 02             	cmp    $0x2,%eax
    1abb:	0f 84 67 01 00 00    	je     1c28 <_RectTestArc+0x758>
    1ac1:	83 f8 03             	cmp    $0x3,%eax
    1ac4:	0f 85 e6 fd ff ff    	jne    18b0 <_RectTestArc+0x3e0>
			ArcYmin = EndY;
			break;

		case 3:
//          ArcXmin=EndX;
			ArcXmax = max(StartX, EndX);
    1aca:	f2 0f 10 ca          	movsd  %xmm2,%xmm1
    1ace:	f2 0f 5f cc          	maxsd  %xmm4,%xmm1
    1ad2:	e9 d9 fd ff ff       	jmp    18b0 <_RectTestArc+0x3e0>
		}

		break;

	case 2:
		switch (EndPos)
    1ad7:	83 f8 01             	cmp    $0x1,%eax
    1ada:	0f 84 a3 01 00 00    	je     1c83 <_RectTestArc+0x7b3>
    1ae0:	0f 8e 6f 01 00 00    	jle    1c55 <_RectTestArc+0x785>
    1ae6:	83 f8 02             	cmp    $0x2,%eax
    1ae9:	0f 84 ba 01 00 00    	je     1ca9 <_RectTestArc+0x7d9>
    1aef:	83 f8 03             	cmp    $0x3,%eax
    1af2:	0f 85 b8 fd ff ff    	jne    18b0 <_RectTestArc+0x3e0>
			break;

		case 3:
			ArcXmin = StartX;
			ArcXmax = EndX;
			ArcYmax = max(EndY, StartY);
    1af8:	66 0f 2e eb          	ucomisd %xmm3,%xmm5
    1afc:	0f 87 c0 01 00 00    	ja     1cc2 <_RectTestArc+0x7f2>
    1b02:	f2 0f 11 5c 24 58    	movsd  %xmm3,0x58(%esp)
    1b08:	f2 0f 10 cc          	movsd  %xmm4,%xmm1
    1b0c:	f2 0f 10 fa          	movsd  %xmm2,%xmm7
    1b10:	e9 9b fd ff ff       	jmp    18b0 <_RectTestArc+0x3e0>
		}

		break;

	case 1:
		switch (EndPos)
    1b15:	83 f8 01             	cmp    $0x1,%eax
    1b18:	0f 84 72 01 00 00    	je     1c90 <_RectTestArc+0x7c0>
    1b1e:	0f 8e 48 01 00 00    	jle    1c6c <_RectTestArc+0x79c>
    1b24:	83 f8 02             	cmp    $0x2,%eax
    1b27:	0f 84 bf 00 00 00    	je     1bec <_RectTestArc+0x71c>
    1b2d:	83 f8 03             	cmp    $0x3,%eax
    1b30:	0f 85 7a fd ff ff    	jne    18b0 <_RectTestArc+0x3e0>
		case 3:
//          ArcXmin=EndX;
			ArcXmax = EndX;
			ArcYmax = StartY;
//          ArcYmin=EndY;
			break;
    1b36:	f2 0f 11 5c 24 58    	movsd  %xmm3,0x58(%esp)
    1b3c:	f2 0f 10 cc          	movsd  %xmm4,%xmm1
    1b40:	e9 6b fd ff ff       	jmp    18b0 <_RectTestArc+0x3e0>
    1b45:	d9 ca                	fxch   %st(2)
    1b47:	d9 cb                	fxch   %st(3)
    1b49:	d9 ca                	fxch   %st(2)
		else
		{
			if (StartDiffX > 0.0)
				StartAngle += 360.0;
			else
				StartAngle += 180.0;
    1b4b:	f2 0f 58 05 40 00 00 	addsd  0x40,%xmm0
    1b52:	00 
    1b53:	e9 88 fc ff ff       	jmp    17e0 <_RectTestArc+0x310>
    1b58:	d9 ca                	fxch   %st(2)
    1b5a:	d9 cb                	fxch   %st(3)
    1b5c:	d9 ca                	fxch   %st(2)
		else
		{
			if (EndDiffX > 0.0)
				EndAngle += 360.0;
			else
				EndAngle += 180.0;
    1b5e:	f2 0f 58 05 40 00 00 	addsd  0x40,%xmm0
    1b65:	00 
    1b66:	e9 8d fe ff ff       	jmp    19f8 <_RectTestArc+0x528>
    1b6b:	90                   	nop
    1b6c:	8d 74 26 00          	lea    0x0(%esi,%eiz,1),%esi
    1b70:	d9 cb                	fxch   %st(3)
			if (EndDiffX < 0.0)
				EndAngle += 180.0;
		}
		else
		{
			if (EndDiffX > 0.0)
    1b72:	db ec                	fucomi %st(4),%st
    1b74:	dd dc                	fstp   %st(4)
    1b76:	76 e0                	jbe    1b58 <_RectTestArc+0x688>
    1b78:	d9 ca                	fxch   %st(2)
    1b7a:	d9 cb                	fxch   %st(3)
    1b7c:	d9 ca                	fxch   %st(2)
				EndAngle += 360.0;
    1b7e:	f2 0f 58 05 50 00 00 	addsd  0x50,%xmm0
    1b85:	00 
    1b86:	e9 6d fe ff ff       	jmp    19f8 <_RectTestArc+0x528>
    1b8b:	90                   	nop
    1b8c:	8d 74 26 00          	lea    0x0(%esi,%eiz,1),%esi
    1b90:	d9 cb                	fxch   %st(3)
			if (StartDiffX < 0.0)
				StartAngle += 180.0;
		}
		else
		{
			if (StartDiffX > 0.0)
    1b92:	db ec                	fucomi %st(4),%st
    1b94:	dd dc                	fstp   %st(4)
    1b96:	76 ad                	jbe    1b45 <_RectTestArc+0x675>
    1b98:	d9 c9                	fxch   %st(1)
    1b9a:	d9 ca                	fxch   %st(2)
				StartAngle += 360.0;
    1b9c:	f2 0f 58 05 50 00 00 	addsd  0x50,%xmm0
    1ba3:	00 
    1ba4:	f2 0f 5e 05 28 00 00 	divsd  0x28,%xmm0
    1bab:	00 
    1bac:	f2 0f 2c d8          	cvttsd2si %xmm0,%ebx
    1bb0:	e9 3d fc ff ff       	jmp    17f2 <_RectTestArc+0x322>
	EndPos = (int32) (EndAngle / 90);

	if (EndPos == 4)
		EndPos = 0;

	switch (StartPos)
    1bb5:	85 db                	test   %ebx,%ebx
    1bb7:	0f 85 f3 fc ff ff    	jne    18b0 <_RectTestArc+0x3e0>
		case 0:
			ArcXmin = EndX;
			ArcXmax = StartX;
			ArcYmax = EndY;
			ArcYmin = StartY;
			break;
    1bbd:	f2 0f 11 6c 24 58    	movsd  %xmm5,0x58(%esp)
    1bc3:	f2 0f 11 5c 24 60    	movsd  %xmm3,0x60(%esp)
    1bc9:	f2 0f 10 ca          	movsd  %xmm2,%xmm1
    1bcd:	f2 0f 10 fc          	movsd  %xmm4,%xmm7
    1bd1:	e9 da fc ff ff       	jmp    18b0 <_RectTestArc+0x3e0>
	EndPos = (int32) (EndAngle / 90);

	if (EndPos == 4)
		EndPos = 0;

	switch (StartPos)
    1bd6:	85 db                	test   %ebx,%ebx
    1bd8:	0f 85 d2 fc ff ff    	jne    18b0 <_RectTestArc+0x3e0>
    1bde:	e9 c6 fe ff ff       	jmp    1aa9 <_RectTestArc+0x5d9>
	{
	case 0:
		switch (EndPos)
    1be3:	85 c0                	test   %eax,%eax
    1be5:	74 d6                	je     1bbd <_RectTestArc+0x6ed>
    1be7:	e9 c4 fc ff ff       	jmp    18b0 <_RectTestArc+0x3e0>
    1bec:	f2 0f 11 5c 24 58    	movsd  %xmm3,0x58(%esp)
    1bf2:	f2 0f 11 6c 24 60    	movsd  %xmm5,0x60(%esp)
    1bf8:	f2 0f 10 ca          	movsd  %xmm2,%xmm1
			ArcYmin = EndY;
			break;

		case 2:
//          ArcXmin=EndX;
			ArcXmax = max(StartX, EndX);
    1bfc:	66 0f 2e d4          	ucomisd %xmm4,%xmm2
    1c00:	0f 87 aa fc ff ff    	ja     18b0 <_RectTestArc+0x3e0>
    1c06:	e9 31 ff ff ff       	jmp    1b3c <_RectTestArc+0x66c>

		case 1:
			ArcXmin = EndX;
			ArcXmax = StartX;
//          ArcYmax=EndY;
			ArcYmin = min(EndY, StartY);
    1c0b:	66 0f 2e dd          	ucomisd %xmm5,%xmm3
    1c0f:	0f 87 bc 00 00 00    	ja     1cd1 <_RectTestArc+0x801>
    1c15:	f2 0f 11 5c 24 60    	movsd  %xmm3,0x60(%esp)
    1c1b:	f2 0f 10 ca          	movsd  %xmm2,%xmm1
    1c1f:	f2 0f 10 fc          	movsd  %xmm4,%xmm7
    1c23:	e9 88 fc ff ff       	jmp    18b0 <_RectTestArc+0x3e0>
		EndPos = 0;

	switch (StartPos)
	{
	case 0:
		switch (EndPos)
    1c28:	f2 0f 11 6c 24 60    	movsd  %xmm5,0x60(%esp)
    1c2e:	f2 0f 10 ca          	movsd  %xmm2,%xmm1
    1c32:	e9 79 fc ff ff       	jmp    18b0 <_RectTestArc+0x3e0>
			ArcYmin = StartY;
			break;

		case 2:
//          ArcXmin=EndX;
			ArcYmin = min(StartY, EndY);
    1c37:	f2 0f 5d dd          	minsd  %xmm5,%xmm3
    1c3b:	f2 0f 11 5c 24 60    	movsd  %xmm3,0x60(%esp)
    1c41:	e9 6a fc ff ff       	jmp    18b0 <_RectTestArc+0x3e0>
		case 1:
			ArcXmin = EndX;
//          ArcXmax=StartX;
//          ArcYmax=EndY;
			ArcYmin = StartY;
			break;
    1c46:	f2 0f 11 5c 24 60    	movsd  %xmm3,0x60(%esp)
    1c4c:	f2 0f 10 fc          	movsd  %xmm4,%xmm7
    1c50:	e9 5b fc ff ff       	jmp    18b0 <_RectTestArc+0x3e0>
		}

		break;

	case 2:
		switch (EndPos)
    1c55:	85 c0                	test   %eax,%eax
    1c57:	0f 85 53 fc ff ff    	jne    18b0 <_RectTestArc+0x3e0>
		case 0:
			ArcXmin = StartX;
//          ArcXmax=StartX;
			ArcYmax = EndY;
//          ArcYmin=EndY;
			break;
    1c5d:	f2 0f 11 6c 24 58    	movsd  %xmm5,0x58(%esp)
    1c63:	f2 0f 10 fa          	movsd  %xmm2,%xmm7
    1c67:	e9 44 fc ff ff       	jmp    18b0 <_RectTestArc+0x3e0>
		}

		break;

	case 1:
		switch (EndPos)
    1c6c:	85 c0                	test   %eax,%eax
    1c6e:	0f 85 3c fc ff ff    	jne    18b0 <_RectTestArc+0x3e0>
			break;

		case 0:
//          ArcXmin=EndX;
//          ArcXmax=max(StartX,EndX);
			ArcYmax = max(StartY, EndY);
    1c74:	f2 0f 5f dd          	maxsd  %xmm5,%xmm3
    1c78:	f2 0f 11 5c 24 58    	movsd  %xmm3,0x58(%esp)
    1c7e:	e9 2d fc ff ff       	jmp    18b0 <_RectTestArc+0x3e0>
//          ArcYmin=EndY;
			break;

		case 1:
//          ArcXmin=EndX;
			ArcXmin = min(StartX, EndX);
    1c83:	f2 0f 10 fa          	movsd  %xmm2,%xmm7
    1c87:	f2 0f 5d fc          	minsd  %xmm4,%xmm7
    1c8b:	e9 20 fc ff ff       	jmp    18b0 <_RectTestArc+0x3e0>
		}

		break;

	case 1:
		switch (EndPos)
    1c90:	f2 0f 11 5c 24 58    	movsd  %xmm3,0x58(%esp)
    1c96:	f2 0f 11 6c 24 60    	movsd  %xmm5,0x60(%esp)
    1c9c:	f2 0f 10 ca          	movsd  %xmm2,%xmm1
    1ca0:	f2 0f 10 fc          	movsd  %xmm4,%xmm7
    1ca4:	e9 07 fc ff ff       	jmp    18b0 <_RectTestArc+0x3e0>
		}

		break;

	case 2:
		switch (EndPos)
    1ca9:	f2 0f 11 5c 24 58    	movsd  %xmm3,0x58(%esp)
    1caf:	f2 0f 11 6c 24 60    	movsd  %xmm5,0x60(%esp)
    1cb5:	f2 0f 10 cc          	movsd  %xmm4,%xmm1
    1cb9:	f2 0f 10 fa          	movsd  %xmm2,%xmm7
    1cbd:	e9 ee fb ff ff       	jmp    18b0 <_RectTestArc+0x3e0>
    1cc2:	f2 0f 11 6c 24 58    	movsd  %xmm5,0x58(%esp)
    1cc8:	f2 0f 10 cc          	movsd  %xmm4,%xmm1
    1ccc:	e9 c0 fd ff ff       	jmp    1a91 <_RectTestArc+0x5c1>
    1cd1:	f2 0f 11 6c 24 60    	movsd  %xmm5,0x60(%esp)
    1cd7:	f2 0f 10 ca          	movsd  %xmm2,%xmm1
    1cdb:	f2 0f 10 fc          	movsd  %xmm4,%xmm7
    1cdf:	e9 cc fb ff ff       	jmp    18b0 <_RectTestArc+0x3e0>
    1ce4:	d9 cb                	fxch   %st(3)
    1ce6:	dd 9c 24 a8 00 00 00 	fstpl  0xa8(%esp)
    1ced:	d9 cb                	fxch   %st(3)
    1cef:	f2 0f 11 9c 24 88 00 	movsd  %xmm3,0x88(%esp)
    1cf6:	00 00 
    1cf8:	f2 0f 11 44 24 68    	movsd  %xmm0,0x68(%esp)
    1cfe:	f2 0f 11 4c 24 50    	movsd  %xmm1,0x50(%esp)
    1d04:	f2 0f 11 7c 24 48    	movsd  %xmm7,0x48(%esp)
	if ((ArcXmax < SearchMaxX) && (ArcXmin > SearchMinX) && (ArcYmax < SearchMaxY) && (ArcYmin > SearchMinY))
		return 1;

	SearchCentreX = (SearchMinX + SearchMaxX) * 0.5;
	SearchCentreY = (SearchMinY + SearchMaxY) * 0.5;
	SearchCircleDiam = sqrt(SQR((SearchMaxX - SearchMinX) * 0.5) + SQR((SearchMaxY - SearchMinY) * 0.5));
    1d0a:	f2 0f 11 24 24       	movsd  %xmm4,(%esp)
    1d0f:	dd 9c 24 a0 00 00 00 	fstpl  0xa0(%esp)
    1d16:	d9 cb                	fxch   %st(3)
    1d18:	dd 9c 24 98 00 00 00 	fstpl  0x98(%esp)
    1d1f:	d9 cb                	fxch   %st(3)
    1d21:	dd 9c 24 90 00 00 00 	fstpl  0x90(%esp)
    1d28:	d9 ca                	fxch   %st(2)
    1d2a:	d9 9c 24 80 00 00 00 	fstps  0x80(%esp)
    1d31:	d9 5c 24 78          	fstps  0x78(%esp)
    1d35:	d9 5c 24 70          	fstps  0x70(%esp)
    1d39:	e8 00 00 00 00       	call   1d3e <_RectTestArc+0x86e>
    1d3e:	f2 0f 10 9c 24 88 00 	movsd  0x88(%esp),%xmm3
    1d45:	00 00 
    1d47:	dd 5c 24 18          	fstpl  0x18(%esp)
    1d4b:	dd 84 24 a8 00 00 00 	fldl   0xa8(%esp)
    1d52:	dd 84 24 a0 00 00 00 	fldl   0xa0(%esp)
    1d59:	dd 84 24 98 00 00 00 	fldl   0x98(%esp)
    1d60:	dd 84 24 90 00 00 00 	fldl   0x90(%esp)
    1d67:	d9 84 24 80 00 00 00 	flds   0x80(%esp)
    1d6e:	d9 44 24 78          	flds   0x78(%esp)
    1d72:	f2 0f 10 6c 24 18    	movsd  0x18(%esp),%xmm5
    1d78:	d9 44 24 70          	flds   0x70(%esp)
    1d7c:	d9 c9                	fxch   %st(1)
    1d7e:	d9 cb                	fxch   %st(3)
    1d80:	d9 ce                	fxch   %st(6)
    1d82:	d9 cb                	fxch   %st(3)
    1d84:	d9 cc                	fxch   %st(4)
    1d86:	d9 cd                	fxch   %st(5)
    1d88:	d9 cc                	fxch   %st(4)
    1d8a:	f2 0f 10 44 24 68    	movsd  0x68(%esp),%xmm0
    1d90:	f2 0f 10 4c 24 50    	movsd  0x50(%esp),%xmm1
    1d96:	f2 0f 10 7c 24 48    	movsd  0x48(%esp),%xmm7
    1d9c:	e9 0a f9 ff ff       	jmp    16ab <_RectTestArc+0x1db>
    1da1:	dd 9c 24 88 00 00 00 	fstpl  0x88(%esp)
    1da8:	f2 0f 11 ac 24 90 00 	movsd  %xmm5,0x90(%esp)
    1daf:	00 00 
    1db1:	f2 0f 11 5c 24 68    	movsd  %xmm3,0x68(%esp)
    1db7:	f2 0f 11 44 24 50    	movsd  %xmm0,0x50(%esp)
    1dbd:	f2 0f 11 4c 24 48    	movsd  %xmm1,0x48(%esp)
    1dc3:	f2 0f 11 7c 24 38    	movsd  %xmm7,0x38(%esp)
    1dc9:	dd 9c 24 80 00 00 00 	fstpl  0x80(%esp)
	Diam = sqrt(SQR(ArcX - SearchCentreX) + SQR(ArcY - SearchCentreY));
    1dd0:	f2 0f 11 14 24       	movsd  %xmm2,(%esp)
    1dd5:	dd 5c 24 78          	fstpl  0x78(%esp)
    1dd9:	dd 5c 24 70          	fstpl  0x70(%esp)
    1ddd:	e8 00 00 00 00       	call   1de2 <_RectTestArc+0x912>
    1de2:	f2 0f 10 ac 24 90 00 	movsd  0x90(%esp),%xmm5
    1de9:	00 00 
    1deb:	dd 5c 24 18          	fstpl  0x18(%esp)
    1def:	dd 84 24 88 00 00 00 	fldl   0x88(%esp)
    1df6:	dd 84 24 80 00 00 00 	fldl   0x80(%esp)
    1dfd:	dd 44 24 78          	fldl   0x78(%esp)
    1e01:	f2 0f 10 64 24 18    	movsd  0x18(%esp),%xmm4
    1e07:	dd 44 24 70          	fldl   0x70(%esp)
    1e0b:	d9 cb                	fxch   %st(3)
    1e0d:	d9 c9                	fxch   %st(1)
    1e0f:	d9 ca                	fxch   %st(2)
    1e11:	d9 c9                	fxch   %st(1)
    1e13:	f2 0f 10 5c 24 68    	movsd  0x68(%esp),%xmm3
    1e19:	f2 0f 10 44 24 50    	movsd  0x50(%esp),%xmm0
    1e1f:	f2 0f 10 4c 24 48    	movsd  0x48(%esp),%xmm1
    1e25:	f2 0f 10 7c 24 38    	movsd  0x38(%esp),%xmm7
    1e2b:	e9 dd f8 ff ff       	jmp    170d <_RectTestArc+0x23d>
		}

		break;

	case 3:
		switch (EndPos)
    1e30:	85 c0                	test   %eax,%eax
    1e32:	0f 85 78 fa ff ff    	jne    18b0 <_RectTestArc+0x3e0>
    1e38:	e9 3a fc ff ff       	jmp    1a77 <_RectTestArc+0x5a7>
    1e3d:	8d 76 00             	lea    0x0(%esi),%esi

00001e40 <_RectTestRect>:
// ***************************************************************************************************

int32 RectTestRect(double RectXmin, double RectYmin, double RectXmax, double RectYmax)
{

	if ((RectXmax < SearchMinX) || (RectXmin > SearchMaxX) || (RectYmax < SearchMinY) || (RectYmin > SearchMaxY))
    1e40:	f3 0f 5a 05 00 00 00 	cvtss2sd 0x0,%xmm0
    1e47:	00 
		return 0;
    1e48:	31 c0                	xor    %eax,%eax
// ***************************************************************************************************
// ***************************************************************************************************
// ***************************************************************************************************

int32 RectTestRect(double RectXmin, double RectYmin, double RectXmax, double RectYmax)
{
    1e4a:	f2 0f 10 4c 24 04    	movsd  0x4(%esp),%xmm1
    1e50:	f2 0f 10 5c 24 0c    	movsd  0xc(%esp),%xmm3
    1e56:	f2 0f 10 54 24 1c    	movsd  0x1c(%esp),%xmm2

	if ((RectXmax < SearchMinX) || (RectXmin > SearchMaxX) || (RectYmax < SearchMinY) || (RectYmin > SearchMaxY))
    1e5c:	66 0f 2e 44 24 14    	ucomisd 0x14(%esp),%xmm0
    1e62:	77 2d                	ja     1e91 <_RectTestRect+0x51>
    1e64:	f3 0f 5a 05 00 00 00 	cvtss2sd 0x0,%xmm0
    1e6b:	00 
    1e6c:	66 0f 2e c8          	ucomisd %xmm0,%xmm1
    1e70:	77 1f                	ja     1e91 <_RectTestRect+0x51>
    1e72:	f3 0f 5a 05 00 00 00 	cvtss2sd 0x0,%xmm0
    1e79:	00 
    1e7a:	66 0f 2e c2          	ucomisd %xmm2,%xmm0
    1e7e:	77 11                	ja     1e91 <_RectTestRect+0x51>
    1e80:	f3 0f 5a 05 00 00 00 	cvtss2sd 0x0,%xmm0
    1e87:	00 
		return 0;
    1e88:	31 c0                	xor    %eax,%eax
    1e8a:	66 0f 2e d8          	ucomisd %xmm0,%xmm3
    1e8e:	0f 96 c0             	setbe  %al

	return 1;

}
    1e91:	c3                   	ret    
    1e92:	8d b4 26 00 00 00 00 	lea    0x0(%esi,%eiz,1),%esi
    1e99:	8d bc 27 00 00 00 00 	lea    0x0(%edi,%eiz,1),%edi

00001ea0 <_RectTestRect2>:
// ***************************************************************************************************
// ***************************************************************************************************
// ***************************************************************************************************

int32 RectTestRect2(double RectX, double RectY, double RectWidth, double RectHeight)
{
    1ea0:	83 ec 0c             	sub    $0xc,%esp
	RectYmin = RectY - RectHeight;
	RectXmax = RectX + RectWidth;
	RectYmax = RectY + RectHeight;

	if ((RectXmax < SearchMinX) || (RectXmin > SearchMaxX) || (RectYmax < SearchMinY) || (RectYmin > SearchMaxY))
		return 0;
    1ea3:	31 c0                	xor    %eax,%eax
	RectXmin = RectX - RectWidth;
	RectYmin = RectY - RectHeight;
	RectXmax = RectX + RectWidth;
	RectYmax = RectY + RectHeight;

	if ((RectXmax < SearchMinX) || (RectXmin > SearchMaxX) || (RectYmax < SearchMinY) || (RectYmin > SearchMaxY))
    1ea5:	f3 0f 5a 1d 00 00 00 	cvtss2sd 0x0,%xmm3
    1eac:	00 
// ***************************************************************************************************
// ***************************************************************************************************
// ***************************************************************************************************

int32 RectTestRect2(double RectX, double RectY, double RectWidth, double RectHeight)
{
    1ead:	dd 44 24 28          	fldl   0x28(%esp)
	double RectXmin, RectXmax, RectYmin, RectYmax;

	RectWidth = RectWidth / 2;
    1eb1:	dd 05 20 00 00 00    	fldl   0x20
    1eb7:	dc 4c 24 20          	fmull  0x20(%esp)
// ***************************************************************************************************
// ***************************************************************************************************
// ***************************************************************************************************

int32 RectTestRect2(double RectX, double RectY, double RectWidth, double RectHeight)
{
    1ebb:	f2 0f 10 44 24 10    	movsd  0x10(%esp),%xmm0
    1ec1:	f2 0f 10 4c 24 18    	movsd  0x18(%esp),%xmm1

	RectWidth = RectWidth / 2;
	RectHeight = RectHeight / 2;
	RectXmin = RectX - RectWidth;
	RectYmin = RectY - RectHeight;
	RectXmax = RectX + RectWidth;
    1ec7:	dd 1c 24             	fstpl  (%esp)
    1eca:	f2 0f 10 14 24       	movsd  (%esp),%xmm2
    1ecf:	f2 0f 58 d0          	addsd  %xmm0,%xmm2
	RectYmax = RectY + RectHeight;

	if ((RectXmax < SearchMinX) || (RectXmin > SearchMaxX) || (RectYmax < SearchMinY) || (RectYmin > SearchMaxY))
    1ed3:	66 0f 2e da          	ucomisd %xmm2,%xmm3
    1ed7:	77 5c                	ja     1f35 <_RectTestRect2+0x95>
{
	double RectXmin, RectXmax, RectYmin, RectYmax;

	RectWidth = RectWidth / 2;
	RectHeight = RectHeight / 2;
	RectXmin = RectX - RectWidth;
    1ed9:	f2 0f 10 24 24       	movsd  (%esp),%xmm4
	RectYmin = RectY - RectHeight;
	RectXmax = RectX + RectWidth;
	RectYmax = RectY + RectHeight;

	if ((RectXmax < SearchMinX) || (RectXmin > SearchMaxX) || (RectYmax < SearchMinY) || (RectYmin > SearchMaxY))
    1ede:	f3 0f 5a 15 00 00 00 	cvtss2sd 0x0,%xmm2
    1ee5:	00 
{
	double RectXmin, RectXmax, RectYmin, RectYmax;

	RectWidth = RectWidth / 2;
	RectHeight = RectHeight / 2;
	RectXmin = RectX - RectWidth;
    1ee6:	f2 0f 5c c4          	subsd  %xmm4,%xmm0
	RectYmin = RectY - RectHeight;
	RectXmax = RectX + RectWidth;
	RectYmax = RectY + RectHeight;

	if ((RectXmax < SearchMinX) || (RectXmin > SearchMaxX) || (RectYmax < SearchMinY) || (RectYmin > SearchMaxY))
    1eea:	66 0f 2e c2          	ucomisd %xmm2,%xmm0
    1eee:	77 50                	ja     1f40 <_RectTestRect2+0xa0>
int32 RectTestRect2(double RectX, double RectY, double RectWidth, double RectHeight)
{
	double RectXmin, RectXmax, RectYmin, RectYmax;

	RectWidth = RectWidth / 2;
	RectHeight = RectHeight / 2;
    1ef0:	dc 0d 20 00 00 00    	fmull  0x20
	RectXmin = RectX - RectWidth;
	RectYmin = RectY - RectHeight;
	RectXmax = RectX + RectWidth;
	RectYmax = RectY + RectHeight;

	if ((RectXmax < SearchMinX) || (RectXmin > SearchMaxX) || (RectYmax < SearchMinY) || (RectYmin > SearchMaxY))
    1ef6:	f3 0f 5a 15 00 00 00 	cvtss2sd 0x0,%xmm2
    1efd:	00 
	RectWidth = RectWidth / 2;
	RectHeight = RectHeight / 2;
	RectXmin = RectX - RectWidth;
	RectYmin = RectY - RectHeight;
	RectXmax = RectX + RectWidth;
	RectYmax = RectY + RectHeight;
    1efe:	dd 14 24             	fstl   (%esp)
    1f01:	f2 0f 10 04 24       	movsd  (%esp),%xmm0
    1f06:	f2 0f 58 c1          	addsd  %xmm1,%xmm0

	if ((RectXmax < SearchMinX) || (RectXmin > SearchMaxX) || (RectYmax < SearchMinY) || (RectYmin > SearchMaxY))
    1f0a:	66 0f 2e d0          	ucomisd %xmm0,%xmm2
    1f0e:	77 34                	ja     1f44 <_RectTestRect2+0xa4>
	double RectXmin, RectXmax, RectYmin, RectYmax;

	RectWidth = RectWidth / 2;
	RectHeight = RectHeight / 2;
	RectXmin = RectX - RectWidth;
	RectYmin = RectY - RectHeight;
    1f10:	f2 0f 11 0c 24       	movsd  %xmm1,(%esp)
    1f15:	dd 04 24             	fldl   (%esp)
    1f18:	de e1                	fsubp  %st,%st(1)
	RectXmax = RectX + RectWidth;
	RectYmax = RectY + RectHeight;

	if ((RectXmax < SearchMinX) || (RectXmin > SearchMaxX) || (RectYmax < SearchMinY) || (RectYmin > SearchMaxY))
		return 0;
    1f1a:	31 c0                	xor    %eax,%eax
	RectXmin = RectX - RectWidth;
	RectYmin = RectY - RectHeight;
	RectXmax = RectX + RectWidth;
	RectYmax = RectY + RectHeight;

	if ((RectXmax < SearchMinX) || (RectXmin > SearchMaxX) || (RectYmax < SearchMinY) || (RectYmin > SearchMaxY))
    1f1c:	f3 0f 5a 05 00 00 00 	cvtss2sd 0x0,%xmm0
    1f23:	00 
    1f24:	dd 1c 24             	fstpl  (%esp)
    1f27:	f2 0f 10 2c 24       	movsd  (%esp),%xmm5
		return 0;
    1f2c:	66 0f 2e e8          	ucomisd %xmm0,%xmm5
    1f30:	0f 96 c0             	setbe  %al
    1f33:	eb 11                	jmp    1f46 <_RectTestRect2+0xa6>
    1f35:	dd d8                	fstp   %st(0)
    1f37:	eb 0d                	jmp    1f46 <_RectTestRect2+0xa6>
    1f39:	8d b4 26 00 00 00 00 	lea    0x0(%esi,%eiz,1),%esi
    1f40:	dd d8                	fstp   %st(0)
    1f42:	eb 02                	jmp    1f46 <_RectTestRect2+0xa6>
    1f44:	dd d8                	fstp   %st(0)

	return 1;

}
    1f46:	83 c4 0c             	add    $0xc,%esp
    1f49:	c3                   	ret    
    1f4a:	8d b6 00 00 00 00    	lea    0x0(%esi),%esi

00001f50 <_RectTestRectOutline>:
// ***************************************************************************************************
// ***************************************************************************************************
// ***************************************************************************************************

int32 RectTestRectOutline(double RectX, double RectY, double RectWidth, double RectHeight)
{
    1f50:	57                   	push   %edi
    1f51:	56                   	push   %esi
    1f52:	53                   	push   %ebx
	RectYmin = RectY - RectHeight;
	RectXmax = RectX + RectWidth;
	RectYmax = RectY + RectHeight;

	if ((RectXmax < SearchMinX) || (RectXmin > SearchMaxX) || (RectYmax < SearchMinY) || (RectYmin > SearchMaxY))
		return 0;
    1f53:	31 c0                	xor    %eax,%eax
// ***************************************************************************************************
// ***************************************************************************************************
// ***************************************************************************************************

int32 RectTestRectOutline(double RectX, double RectY, double RectWidth, double RectHeight)
{
    1f55:	83 ec 08             	sub    $0x8,%esp
	RectXmin = RectX - RectWidth;
	RectYmin = RectY - RectHeight;
	RectXmax = RectX + RectWidth;
	RectYmax = RectY + RectHeight;

	if ((RectXmax < SearchMinX) || (RectXmin > SearchMaxX) || (RectYmax < SearchMinY) || (RectYmin > SearchMaxY))
    1f58:	f3 0f 5a 15 00 00 00 	cvtss2sd 0x0,%xmm2
    1f5f:	00 
// ***************************************************************************************************
// ***************************************************************************************************
// ***************************************************************************************************

int32 RectTestRectOutline(double RectX, double RectY, double RectWidth, double RectHeight)
{
    1f60:	dd 44 24 30          	fldl   0x30(%esp)
	double RectXmin, RectXmax, RectYmin, RectYmax;

	RectWidth = RectWidth / 2;
    1f64:	dd 05 20 00 00 00    	fldl   0x20
    1f6a:	dc 4c 24 28          	fmull  0x28(%esp)
// ***************************************************************************************************
// ***************************************************************************************************
// ***************************************************************************************************

int32 RectTestRectOutline(double RectX, double RectY, double RectWidth, double RectHeight)
{
    1f6e:	f2 0f 10 44 24 18    	movsd  0x18(%esp),%xmm0
    1f74:	f2 0f 10 4c 24 20    	movsd  0x20(%esp),%xmm1

	RectWidth = RectWidth / 2;
	RectHeight = RectHeight / 2;
	RectXmin = RectX - RectWidth;
	RectYmin = RectY - RectHeight;
	RectXmax = RectX + RectWidth;
    1f7a:	dd 1c 24             	fstpl  (%esp)
    1f7d:	f2 0f 10 1c 24       	movsd  (%esp),%xmm3
    1f82:	f2 0f 58 d8          	addsd  %xmm0,%xmm3
	RectYmax = RectY + RectHeight;

	if ((RectXmax < SearchMinX) || (RectXmin > SearchMaxX) || (RectYmax < SearchMinY) || (RectYmin > SearchMaxY))
    1f86:	66 0f 2e d3          	ucomisd %xmm3,%xmm2
    1f8a:	0f 87 98 00 00 00    	ja     2028 <_RectTestRectOutline+0xd8>
{
	double RectXmin, RectXmax, RectYmin, RectYmax;

	RectWidth = RectWidth / 2;
	RectHeight = RectHeight / 2;
	RectXmin = RectX - RectWidth;
    1f90:	f2 0f 10 3c 24       	movsd  (%esp),%xmm7
	RectYmin = RectY - RectHeight;
	RectXmax = RectX + RectWidth;
	RectYmax = RectY + RectHeight;

	if ((RectXmax < SearchMinX) || (RectXmin > SearchMaxX) || (RectYmax < SearchMinY) || (RectYmin > SearchMaxY))
    1f95:	f3 0f 5a 25 00 00 00 	cvtss2sd 0x0,%xmm4
    1f9c:	00 
{
	double RectXmin, RectXmax, RectYmin, RectYmax;

	RectWidth = RectWidth / 2;
	RectHeight = RectHeight / 2;
	RectXmin = RectX - RectWidth;
    1f9d:	f2 0f 5c c7          	subsd  %xmm7,%xmm0
	RectYmin = RectY - RectHeight;
	RectXmax = RectX + RectWidth;
	RectYmax = RectY + RectHeight;

	if ((RectXmax < SearchMinX) || (RectXmin > SearchMaxX) || (RectYmax < SearchMinY) || (RectYmin > SearchMaxY))
    1fa1:	66 0f 2e c4          	ucomisd %xmm4,%xmm0
    1fa5:	0f 87 85 00 00 00    	ja     2030 <_RectTestRectOutline+0xe0>
int32 RectTestRectOutline(double RectX, double RectY, double RectWidth, double RectHeight)
{
	double RectXmin, RectXmax, RectYmin, RectYmax;

	RectWidth = RectWidth / 2;
	RectHeight = RectHeight / 2;
    1fab:	dc 0d 20 00 00 00    	fmull  0x20
	RectXmin = RectX - RectWidth;
	RectYmin = RectY - RectHeight;
	RectXmax = RectX + RectWidth;
	RectYmax = RectY + RectHeight;

	if ((RectXmax < SearchMinX) || (RectXmin > SearchMaxX) || (RectYmax < SearchMinY) || (RectYmin > SearchMaxY))
    1fb1:	f3 0f 5a 2d 00 00 00 	cvtss2sd 0x0,%xmm5
    1fb8:	00 
	RectWidth = RectWidth / 2;
	RectHeight = RectHeight / 2;
	RectXmin = RectX - RectWidth;
	RectYmin = RectY - RectHeight;
	RectXmax = RectX + RectWidth;
	RectYmax = RectY + RectHeight;
    1fb9:	dd 14 24             	fstl   (%esp)
    1fbc:	f2 0f 10 34 24       	movsd  (%esp),%xmm6
    1fc1:	f2 0f 58 f1          	addsd  %xmm1,%xmm6

	if ((RectXmax < SearchMinX) || (RectXmin > SearchMaxX) || (RectYmax < SearchMinY) || (RectYmin > SearchMaxY))
    1fc5:	66 0f 2e ee          	ucomisd %xmm6,%xmm5
    1fc9:	77 69                	ja     2034 <_RectTestRectOutline+0xe4>
	double RectXmin, RectXmax, RectYmin, RectYmax;

	RectWidth = RectWidth / 2;
	RectHeight = RectHeight / 2;
	RectXmin = RectX - RectWidth;
	RectYmin = RectY - RectHeight;
    1fcb:	f2 0f 11 0c 24       	movsd  %xmm1,(%esp)
    1fd0:	dd 04 24             	fldl   (%esp)
    1fd3:	de e1                	fsubp  %st,%st(1)
	RectXmax = RectX + RectWidth;
	RectYmax = RectY + RectHeight;

	if ((RectXmax < SearchMinX) || (RectXmin > SearchMaxX) || (RectYmax < SearchMinY) || (RectYmin > SearchMaxY))
    1fd5:	f3 0f 5a 0d 00 00 00 	cvtss2sd 0x0,%xmm1
    1fdc:	00 
	double RectXmin, RectXmax, RectYmin, RectYmax;

	RectWidth = RectWidth / 2;
	RectHeight = RectHeight / 2;
	RectXmin = RectX - RectWidth;
	RectYmin = RectY - RectHeight;
    1fdd:	d9 c0                	fld    %st(0)
	RectXmax = RectX + RectWidth;
	RectYmax = RectY + RectHeight;

	if ((RectXmax < SearchMinX) || (RectXmin > SearchMaxX) || (RectYmax < SearchMinY) || (RectYmin > SearchMaxY))
    1fdf:	dd 14 24             	fstl   (%esp)
    1fe2:	f2 0f 10 3c 24       	movsd  (%esp),%xmm7
    1fe7:	66 0f 2e f9          	ucomisd %xmm1,%xmm7
    1feb:	77 4b                	ja     2038 <_RectTestRectOutline+0xe8>
		return 0;

	if ((RectXmax < SearchMaxX) && (RectXmin > SearchMinX) && (RectYmax < SearchMaxY) && (RectYmin > SearchMinY))
    1fed:	f2 0f 11 2c 24       	movsd  %xmm5,(%esp)
    1ff2:	dd 04 24             	fldl   (%esp)
    1ff5:	d9 c9                	fxch   %st(1)
    1ff7:	66 0f 2e c2          	ucomisd %xmm2,%xmm0
    1ffb:	0f 97 c1             	seta   %cl
    1ffe:	66 0f 2e e3          	ucomisd %xmm3,%xmm4
    2002:	0f 97 c3             	seta   %bl
    2005:	66 0f 2e ce          	ucomisd %xmm6,%xmm1
    2009:	0f 97 c0             	seta   %al
    200c:	df e9                	fucomip %st(1),%st
    200e:	dd d8                	fstp   %st(0)
    2010:	0f 97 c2             	seta   %dl
    2013:	89 c7                	mov    %eax,%edi
    2015:	21 d0                	and    %edx,%eax
    2017:	84 c8                	test   %cl,%al
    2019:	74 3c                	je     2057 <_RectTestRectOutline+0x107>
		return 1;
    201b:	b8 01 00 00 00       	mov    $0x1,%eax
	RectYmax = RectY + RectHeight;

	if ((RectXmax < SearchMinX) || (RectXmin > SearchMaxX) || (RectYmax < SearchMinY) || (RectYmin > SearchMaxY))
		return 0;

	if ((RectXmax < SearchMaxX) && (RectXmin > SearchMinX) && (RectYmax < SearchMaxY) && (RectYmin > SearchMinY))
    2020:	84 db                	test   %bl,%bl
    2022:	74 33                	je     2057 <_RectTestRectOutline+0x107>
    2024:	dd d8                	fstp   %st(0)
    2026:	eb 28                	jmp    2050 <_RectTestRectOutline+0x100>
    2028:	dd d8                	fstp   %st(0)
    202a:	eb 24                	jmp    2050 <_RectTestRectOutline+0x100>
    202c:	8d 74 26 00          	lea    0x0(%esi,%eiz,1),%esi
    2030:	dd d8                	fstp   %st(0)
    2032:	eb 1c                	jmp    2050 <_RectTestRectOutline+0x100>
    2034:	dd d8                	fstp   %st(0)
    2036:	eb 18                	jmp    2050 <_RectTestRectOutline+0x100>
    2038:	dd d8                	fstp   %st(0)
    203a:	dd d8                	fstp   %st(0)
    203c:	eb 12                	jmp    2050 <_RectTestRectOutline+0x100>
    203e:	66 90                	xchg   %ax,%ax
    2040:	dd d8                	fstp   %st(0)
    2042:	eb 0c                	jmp    2050 <_RectTestRectOutline+0x100>
    2044:	dd d8                	fstp   %st(0)
    2046:	eb 08                	jmp    2050 <_RectTestRectOutline+0x100>
    2048:	dd d8                	fstp   %st(0)
    204a:	eb 04                	jmp    2050 <_RectTestRectOutline+0x100>
    204c:	dd d8                	fstp   %st(0)
    204e:	66 90                	xchg   %ax,%ax
			return 1;
	}

	return 0;

}
    2050:	83 c4 08             	add    $0x8,%esp
    2053:	5b                   	pop    %ebx
    2054:	5e                   	pop    %esi
    2055:	5f                   	pop    %edi
    2056:	c3                   	ret    
		return 0;

	if ((RectXmax < SearchMaxX) && (RectXmin > SearchMinX) && (RectYmax < SearchMaxY) && (RectYmin > SearchMinY))
		return 1;

