In archive .\libunzip.a:

api.o:     file format pe-i386


Disassembly of section .text:

00000000 <_UzpVersion@0>:
UzpVer * UZ_EXP UzpVersion()   /* should be pointer to const struct */
{
    static UzpVer version;     /* doesn't change between calls */


    version.structlen = UZPVER_LEN;
   0:	c7 05 00 00 00 00 24 	movl   $0x24,0x0
   7:	00 00 00 

#ifdef BETA
    version.flag = 1;
#else
    version.flag = 0;
   a:	c7 05 04 00 00 00 00 	movl   $0x0,0x4
  11:	00 00 00 
#endif
    version.betalevel = UZ_BETALEVEL;
  14:	c7 05 08 00 00 00 00 	movl   $0x0,0x8
  1b:	00 00 00 
    version.date = UZ_VERSION_DATE;
  1e:	c7 05 0c 00 00 00 01 	movl   $0x1,0xc
  25:	00 00 00 

#ifdef ZLIB_VERSION
    version.zlib_version = ZLIB_VERSION;
    version.flag |= 2;
#else
    version.zlib_version = NULL;
  28:	c7 05 10 00 00 00 00 	movl   $0x0,0x10
  2f:	00 00 00 
#endif

    /* someday each of these may have a separate patchlevel: */
    version.unzip.major = UZ_MAJORVER;
  32:	c6 05 14 00 00 00 05 	movb   $0x5,0x14
    version.unzip.minor = UZ_MINORVER;
  39:	c6 05 15 00 00 00 05 	movb   $0x5,0x15
    version.unzip.patchlevel = UZ_PATCHLEVEL;
  40:	c6 05 16 00 00 00 02 	movb   $0x2,0x16

    version.zipinfo.major = ZI_MAJORVER;
  47:	c6 05 18 00 00 00 02 	movb   $0x2,0x18
    version.zipinfo.minor = ZI_MINORVER;
  4e:	c6 05 19 00 00 00 04 	movb   $0x4,0x19
    version.zipinfo.patchlevel = UZ_PATCHLEVEL;
  55:	c6 05 1a 00 00 00 02 	movb   $0x2,0x1a

    /* these are retained for backward compatibility only: */
    version.os2dll.major = UZ_MAJORVER;
  5c:	c6 05 1c 00 00 00 05 	movb   $0x5,0x1c
    version.os2dll.minor = UZ_MINORVER;
  63:	c6 05 1d 00 00 00 05 	movb   $0x5,0x1d
    version.os2dll.patchlevel = UZ_PATCHLEVEL;
  6a:	c6 05 1e 00 00 00 02 	movb   $0x2,0x1e

    version.windll.major = UZ_MAJORVER;
  71:	c6 05 20 00 00 00 05 	movb   $0x5,0x20
    version.windll.minor = UZ_MINORVER;
  78:	c6 05 21 00 00 00 05 	movb   $0x5,0x21
    version.windll.patchlevel = UZ_PATCHLEVEL;
  7f:	c6 05 22 00 00 00 02 	movb   $0x2,0x22

    return &version;
}
  86:	b8 00 00 00 00       	mov    $0x0,%eax
  8b:	c3                   	ret    
  8c:	8d 74 26 00          	lea    0x0(%esi,%eiz,1),%esi

00000090 <_UzpVersion2@4>:

void UZ_EXP UzpVersion2(UzpVer2 *version)
{
  90:	8b 44 24 04          	mov    0x4(%esp),%eax

    version->structlen = UZPVER_LEN;
  94:	c7 00 24 00 00 00    	movl   $0x24,(%eax)

#ifdef BETA
    version->flag = 1;
#else
    version->flag = 0;
  9a:	c7 40 04 00 00 00 00 	movl   $0x0,0x4(%eax)
#endif
    strcpy(version->betalevel, UZ_BETALEVEL);
  a1:	c6 40 08 00          	movb   $0x0,0x8(%eax)
    strcpy(version->date, UZ_VERSION_DATE);
  a5:	c7 40 12 32 38 20 46 	movl   $0x46203832,0x12(%eax)
  ac:	c7 40 16 65 62 72 75 	movl   $0x75726265,0x16(%eax)
  b3:	c7 40 1a 61 72 79 20 	movl   $0x20797261,0x1a(%eax)
  ba:	c7 40 1e 32 30 30 35 	movl   $0x35303032,0x1e(%eax)
  c1:	c6 40 22 00          	movb   $0x0,0x22(%eax)
    strncpy(version->zlib_version, ZLIB_VERSION,
            sizeof(version->zlib_version) - 1);
    version->zlib_version[sizeof(version->zlib_version) - 1] = '\0';
    version->flag |= 2;
#else
    version->zlib_version[0] = '\0';
  c5:	c6 40 26 00          	movb   $0x0,0x26(%eax)
#endif

    /* someday each of these may have a separate patchlevel: */
    version->unzip.major = UZ_MAJORVER;
  c9:	c6 40 30 05          	movb   $0x5,0x30(%eax)
    version->unzip.minor = UZ_MINORVER;
  cd:	c6 40 31 05          	movb   $0x5,0x31(%eax)
    version->unzip.patchlevel = UZ_PATCHLEVEL;
  d1:	c6 40 32 02          	movb   $0x2,0x32(%eax)

    version->zipinfo.major = ZI_MAJORVER;
  d5:	c6 40 34 02          	movb   $0x2,0x34(%eax)
    version->zipinfo.minor = ZI_MINORVER;
  d9:	c6 40 35 04          	movb   $0x4,0x35(%eax)
    version->zipinfo.patchlevel = UZ_PATCHLEVEL;
  dd:	c6 40 36 02          	movb   $0x2,0x36(%eax)

    /* these are retained for backward compatibility only: */
    version->os2dll.major = UZ_MAJORVER;
  e1:	c6 40 38 05          	movb   $0x5,0x38(%eax)
    version->os2dll.minor = UZ_MINORVER;
  e5:	c6 40 39 05          	movb   $0x5,0x39(%eax)
    version->os2dll.patchlevel = UZ_PATCHLEVEL;
  e9:	c6 40 3a 02          	movb   $0x2,0x3a(%eax)

    version->windll.major = UZ_MAJORVER;
  ed:	c6 40 3c 05          	movb   $0x5,0x3c(%eax)
    version->windll.minor = UZ_MINORVER;
  f1:	c6 40 3d 05          	movb   $0x5,0x3d(%eax)
    version->windll.patchlevel = UZ_PATCHLEVEL;
  f5:	c6 40 3e 02          	movb   $0x2,0x3e(%eax)
  f9:	c2 04 00             	ret    $0x4
  fc:	8d 74 26 00          	lea    0x0(%esi,%eiz,1),%esi

00000100 <_UzpFreeMemBuffer@4>:


#ifndef __16BIT__

void UZ_EXP UzpFreeMemBuffer(UzpBuffer *retstr)
{
 100:	53                   	push   %ebx
 101:	83 ec 18             	sub    $0x18,%esp
 104:	8b 5c 24 20          	mov    0x20(%esp),%ebx
    if (retstr != NULL && retstr->strptr != NULL) {
 108:	85 db                	test   %ebx,%ebx
 10a:	74 1c                	je     128 <_UzpFreeMemBuffer@4+0x28>
 10c:	8b 43 04             	mov    0x4(%ebx),%eax
 10f:	85 c0                	test   %eax,%eax
 111:	74 15                	je     128 <_UzpFreeMemBuffer@4+0x28>
        free(retstr->strptr);
 113:	89 04 24             	mov    %eax,(%esp)
 116:	e8 00 00 00 00       	call   11b <_UzpFreeMemBuffer@4+0x1b>
        retstr->strptr = NULL;
 11b:	c7 43 04 00 00 00 00 	movl   $0x0,0x4(%ebx)
        retstr->strlength = 0;
 122:	c7 03 00 00 00 00    	movl   $0x0,(%ebx)
    }
}
 128:	83 c4 18             	add    $0x18,%esp
 12b:	5b                   	pop    %ebx
 12c:	c2 04 00             	ret    $0x4
 12f:	90                   	nop

00000130 <_setFileNotFound>:
  ---------------------------------------------------------------------------*/


void setFileNotFound(__G)
    __GDEF
{
 130:	8b 44 24 04          	mov    0x4(%esp),%eax
    G.filenotfound++;
 134:	8b 90 9c 00 00 00    	mov    0x9c(%eax),%edx
 13a:	42                   	inc    %edx
 13b:	89 90 9c 00 00 00    	mov    %edx,0x9c(%eax)
 141:	c3                   	ret    
 142:	8d b4 26 00 00 00 00 	lea    0x0(%esi,%eiz,1),%esi
 149:	8d bc 27 00 00 00 00 	lea    0x0(%edi,%eiz,1),%edi

00000150 <_unzipToMemory>:


#ifndef SFX

int unzipToMemory(__GPRO__ char *zip, char *file, UzpBuffer *retstr)
{
 150:	56                   	push   %esi
 151:	53                   	push   %ebx
 152:	83 ec 24             	sub    $0x24,%esp
 155:	8b 5c 24 30          	mov    0x30(%esp),%ebx
    char *incname[2];

    G.process_all_files = FALSE;
    G.extract_flag = TRUE;
    uO.qflag = 2;
    G.wildzipfn = zip;
 159:	8b 44 24 34          	mov    0x34(%esp),%eax


#ifndef SFX

int unzipToMemory(__GPRO__ char *zip, char *file, UzpBuffer *retstr)
{
 15d:	8b 74 24 3c          	mov    0x3c(%esp),%esi
    uO.qflag = 2;
    G.wildzipfn = zip;

    G.pfnames = incname;
    incname[0] = file;
    incname[1] = NULL;
 161:	c7 44 24 1c 00 00 00 	movl   $0x0,0x1c(%esp)
 168:	00 
    char *incname[2];

    G.process_all_files = FALSE;
    G.extract_flag = TRUE;
    uO.qflag = 2;
    G.wildzipfn = zip;
 169:	89 83 00 09 01 00    	mov    %eax,0x10900(%ebx)

    G.pfnames = incname;
 16f:	8d 44 24 18          	lea    0x18(%esp),%eax
 173:	89 83 c0 00 00 00    	mov    %eax,0xc0(%ebx)
int unzipToMemory(__GPRO__ char *zip, char *file, UzpBuffer *retstr)
{
    int r;
    char *incname[2];

    G.process_all_files = FALSE;
 179:	c7 43 74 00 00 00 00 	movl   $0x0,0x74(%ebx)
    G.extract_flag = TRUE;
 180:	c7 83 80 00 00 00 01 	movl   $0x1,0x80(%ebx)
 187:	00 00 00 
    uO.qflag = 2;
 18a:	c7 43 38 02 00 00 00 	movl   $0x2,0x38(%ebx)
    G.wildzipfn = zip;

    G.pfnames = incname;
    incname[0] = file;
 191:	8b 44 24 38          	mov    0x38(%esp),%eax
    incname[1] = NULL;
    G.filespecs = 1;
 195:	c7 43 6c 01 00 00 00 	movl   $0x1,0x6c(%ebx)

    r = process_zipfiles(__G);
 19c:	89 1c 24             	mov    %ebx,(%esp)
    G.extract_flag = TRUE;
    uO.qflag = 2;
    G.wildzipfn = zip;

    G.pfnames = incname;
    incname[0] = file;
 19f:	89 44 24 18          	mov    %eax,0x18(%esp)
    incname[1] = NULL;
    G.filespecs = 1;

    r = process_zipfiles(__G);
 1a3:	e8 00 00 00 00       	call   1a8 <_unzipToMemory+0x58>
    if (retstr) {
 1a8:	85 f6                	test   %esi,%esi
 1aa:	74 11                	je     1bd <_unzipToMemory+0x6d>
        retstr->strptr = (char *)G.redirect_buffer;
 1ac:	8b 93 b4 00 00 00    	mov    0xb4(%ebx),%edx
 1b2:	89 56 04             	mov    %edx,0x4(%esi)
        retstr->strlength = G.redirect_size;
 1b5:	8b 93 b0 00 00 00    	mov    0xb0(%ebx),%edx
 1bb:	89 16                	mov    %edx,(%esi)
    }
    return r;                   /* returns `PK_???' error values */
}
 1bd:	83 c4 24             	add    $0x24,%esp
 1c0:	5b                   	pop    %ebx
 1c1:	5e                   	pop    %esi
 1c2:	c3                   	ret    
 1c3:	8d b6 00 00 00 00    	lea    0x0(%esi),%esi
 1c9:	8d bc 27 00 00 00 00 	lea    0x0(%edi,%eiz,1),%edi

000001d0 <_redirect_outfile>:
#endif /* !SFX */


int redirect_outfile(__G)
     __GDEF
{
 1d0:	56                   	push   %esi
 1d1:	53                   	push   %ebx
 1d2:	83 ec 14             	sub    $0x14,%esp
 1d5:	8b 5c 24 20          	mov    0x20(%esp),%ebx
    if (G.redirect_size != 0 || G.redirect_buffer != NULL)
 1d9:	8b 83 b0 00 00 00    	mov    0xb0(%ebx),%eax
 1df:	85 c0                	test   %eax,%eax
 1e1:	75 0a                	jne    1ed <_redirect_outfile+0x1d>
 1e3:	8b 93 b4 00 00 00    	mov    0xb4(%ebx),%edx
 1e9:	85 d2                	test   %edx,%edx
 1eb:	74 08                	je     1f5 <_redirect_outfile+0x25>
#endif
    if (!G.redirect_buffer)
        return FALSE;
    G.redirect_pointer[G.redirect_size] = '\0';
    return TRUE;
}
 1ed:	83 c4 14             	add    $0x14,%esp

int redirect_outfile(__G)
     __GDEF
{
    if (G.redirect_size != 0 || G.redirect_buffer != NULL)
        return FALSE;
 1f0:	31 c0                	xor    %eax,%eax
#endif
    if (!G.redirect_buffer)
        return FALSE;
    G.redirect_pointer[G.redirect_size] = '\0';
    return TRUE;
}
 1f2:	5b                   	pop    %ebx
 1f3:	5e                   	pop    %esi
 1f4:	c3                   	ret    
{
    if (G.redirect_size != 0 || G.redirect_buffer != NULL)
        return FALSE;

#ifndef NO_SLIDE_REDIR
    G.redirect_slide = !G.pInfo->textmode;
 1f5:	8b 8b d8 08 00 00    	mov    0x8d8(%ebx),%ecx
 1fb:	8a 51 18             	mov    0x18(%ecx),%dl
 1fe:	c0 ea 03             	shr    $0x3,%dl
 201:	83 f2 01             	xor    $0x1,%edx
 204:	83 e2 01             	and    $0x1,%edx
 207:	89 93 a8 00 00 00    	mov    %edx,0xa8(%ebx)
#endif
#if (lenEOL != 1)
    if (G.pInfo->textmode) {
 20d:	f6 41 18 08          	testb  $0x8,0x18(%ecx)
 211:	74 3d                	je     250 <_redirect_outfile+0x80>
        G.redirect_size = G.lrec.ucsize * lenEOL;
 213:	8b 93 24 09 01 00    	mov    0x10924(%ebx),%edx
 219:	8d 34 12             	lea    (%edx,%edx,1),%esi
        if (G.redirect_size < G.lrec.ucsize)
 21c:	39 f2                	cmp    %esi,%edx
 21e:	77 38                	ja     258 <_redirect_outfile+0x88>
            G.redirect_size = ((G.lrec.ucsize > (ulg)-2L) ?
                               G.lrec.ucsize : (ulg)-2L);
    } else
#endif
    {
        G.redirect_size = G.lrec.ucsize;
 220:	89 b3 b0 00 00 00    	mov    %esi,0xb0(%ebx)
 226:	8d 46 01             	lea    0x1(%esi),%eax
    DosAllocMem((void **)&G.redirect_buffer, G.redirect_size+1,
      PAG_READ|PAG_WRITE|PAG_COMMIT);
    G.redirect_pointer = G.redirect_buffer;
#else
    G.redirect_pointer =
      G.redirect_buffer = malloc((extent)(G.redirect_size+1));
 229:	89 04 24             	mov    %eax,(%esp)
 22c:	e8 00 00 00 00       	call   231 <_redirect_outfile+0x61>
 231:	89 83 b4 00 00 00    	mov    %eax,0xb4(%ebx)
#ifdef OS2
    DosAllocMem((void **)&G.redirect_buffer, G.redirect_size+1,
      PAG_READ|PAG_WRITE|PAG_COMMIT);
    G.redirect_pointer = G.redirect_buffer;
#else
    G.redirect_pointer =
 237:	89 83 b8 00 00 00    	mov    %eax,0xb8(%ebx)
      G.redirect_buffer = malloc((extent)(G.redirect_size+1));
#endif
    if (!G.redirect_buffer)
 23d:	85 c0                	test   %eax,%eax
 23f:	74 ac                	je     1ed <_redirect_outfile+0x1d>
        return FALSE;
    G.redirect_pointer[G.redirect_size] = '\0';
 241:	c6 04 30 00          	movb   $0x0,(%eax,%esi,1)
    return TRUE;
}
 245:	83 c4 14             	add    $0x14,%esp
      G.redirect_buffer = malloc((extent)(G.redirect_size+1));
#endif
    if (!G.redirect_buffer)
        return FALSE;
    G.redirect_pointer[G.redirect_size] = '\0';
    return TRUE;
 248:	b8 01 00 00 00       	mov    $0x1,%eax
}
 24d:	5b                   	pop    %ebx
 24e:	5e                   	pop    %esi
 24f:	c3                   	ret    
            G.redirect_size = ((G.lrec.ucsize > (ulg)-2L) ?
                               G.lrec.ucsize : (ulg)-2L);
    } else
#endif
    {
        G.redirect_size = G.lrec.ucsize;
 250:	8b b3 24 09 01 00    	mov    0x10924(%ebx),%esi
 256:	eb c8                	jmp    220 <_redirect_outfile+0x50>
#if (lenEOL != 1)
    if (G.pInfo->textmode) {
        G.redirect_size = G.lrec.ucsize * lenEOL;
        if (G.redirect_size < G.lrec.ucsize)
            G.redirect_size = ((G.lrec.ucsize > (ulg)-2L) ?
                               G.lrec.ucsize : (ulg)-2L);
 258:	b9 ff ff ff ff       	mov    $0xffffffff,%ecx
 25d:	42                   	inc    %edx
 25e:	0f 45 c1             	cmovne %ecx,%eax
 261:	0f 94 c1             	sete   %cl
 264:	81 e1 ff 00 00 00    	and    $0xff,%ecx
 26a:	89 ce                	mov    %ecx,%esi
 26c:	83 ee 02             	sub    $0x2,%esi
#endif
#if (lenEOL != 1)
    if (G.pInfo->textmode) {
        G.redirect_size = G.lrec.ucsize * lenEOL;
        if (G.redirect_size < G.lrec.ucsize)
            G.redirect_size = ((G.lrec.ucsize > (ulg)-2L) ?
 26f:	89 b3 b0 00 00 00    	mov    %esi,0xb0(%ebx)
 275:	eb b2                	jmp    229 <_redirect_outfile+0x59>
 277:	89 f6                	mov    %esi,%esi
 279:	8d bc 27 00 00 00 00 	lea    0x0(%edi,%eiz,1),%edi

00000280 <_writeToMemory>:
}



int writeToMemory(__GPRO__ ZCONST uch *rawbuf, extent size)
{
 280:	57                   	push   %edi
 281:	56                   	push   %esi
 282:	53                   	push   %ebx
 283:	83 ec 10             	sub    $0x10,%esp
 286:	8b 74 24 20          	mov    0x20(%esp),%esi
 28a:	8b 44 24 24          	mov    0x24(%esp),%eax
 28e:	8b 5c 24 28          	mov    0x28(%esp),%ebx
    int errflg = FALSE;

    if ((uch *)rawbuf != G.redirect_pointer) {
 292:	8b 8e b8 00 00 00    	mov    0xb8(%esi),%ecx
 298:	39 c1                	cmp    %eax,%ecx
 29a:	74 4c                	je     2e8 <_writeToMemory+0x68>
        extent redir_avail = (G.redirect_buffer + G.redirect_size) -
 29c:	8b be b4 00 00 00    	mov    0xb4(%esi),%edi
 2a2:	8b 96 b0 00 00 00    	mov    0xb0(%esi),%edx
 2a8:	01 fa                	add    %edi,%edx



int writeToMemory(__GPRO__ ZCONST uch *rawbuf, extent size)
{
    int errflg = FALSE;
 2aa:	31 ff                	xor    %edi,%edi

    if ((uch *)rawbuf != G.redirect_pointer) {
        extent redir_avail = (G.redirect_buffer + G.redirect_size) -
 2ac:	29 ca                	sub    %ecx,%edx
                             G.redirect_pointer;

        /* Check for output buffer overflow */
        if (size > redir_avail) {
 2ae:	39 d3                	cmp    %edx,%ebx
 2b0:	77 2e                	ja     2e0 <_writeToMemory+0x60>
           /* limit transfer data to available space, set error return flag */
           size = redir_avail;
           errflg = TRUE;
        }
        memcpy(G.redirect_pointer, rawbuf, size);
 2b2:	89 0c 24             	mov    %ecx,(%esp)
 2b5:	89 5c 24 08          	mov    %ebx,0x8(%esp)
 2b9:	89 44 24 04          	mov    %eax,0x4(%esp)
 2bd:	e8 00 00 00 00       	call   2c2 <_writeToMemory+0x42>
 2c2:	8b 8e b8 00 00 00    	mov    0xb8(%esi),%ecx
    }
    G.redirect_pointer += size;
 2c8:	01 cb                	add    %ecx,%ebx
    return errflg;
}
 2ca:	89 f8                	mov    %edi,%eax
           size = redir_avail;
           errflg = TRUE;
        }
        memcpy(G.redirect_pointer, rawbuf, size);
    }
    G.redirect_pointer += size;
 2cc:	89 9e b8 00 00 00    	mov    %ebx,0xb8(%esi)
    return errflg;
}
 2d2:	83 c4 10             	add    $0x10,%esp
 2d5:	5b                   	pop    %ebx
 2d6:	5e                   	pop    %esi
 2d7:	5f                   	pop    %edi
 2d8:	c3                   	ret    
 2d9:	8d b4 26 00 00 00 00 	lea    0x0(%esi,%eiz,1),%esi
    if ((uch *)rawbuf != G.redirect_pointer) {
        extent redir_avail = (G.redirect_buffer + G.redirect_size) -
                             G.redirect_pointer;

        /* Check for output buffer overflow */
        if (size > redir_avail) {
 2e0:	89 d3                	mov    %edx,%ebx
           /* limit transfer data to available space, set error return flag */
           size = redir_avail;
           errflg = TRUE;
 2e2:	66 bf 01 00          	mov    $0x1,%di
 2e6:	eb ca                	jmp    2b2 <_writeToMemory+0x32>



int writeToMemory(__GPRO__ ZCONST uch *rawbuf, extent size)
{
    int errflg = FALSE;
 2e8:	31 ff                	xor    %edi,%edi
 2ea:	eb dc                	jmp    2c8 <_writeToMemory+0x48>
 2ec:	8d 74 26 00          	lea    0x0(%esi,%eiz,1),%esi

000002f0 <_close_redirect>:



int close_redirect(__G)
     __GDEF
{
 2f0:	53                   	push   %ebx
 2f1:	83 ec 18             	sub    $0x18,%esp
 2f4:	8b 5c 24 20          	mov    0x20(%esp),%ebx
    if (G.pInfo->textmode) {
 2f8:	8b 83 d8 08 00 00    	mov    0x8d8(%ebx),%eax
 2fe:	f6 40 18 08          	testb  $0x8,0x18(%eax)
 302:	75 0c                	jne    310 <_close_redirect+0x20>
             realloc(G.redirect_buffer, G.redirect_size + 1)) == NULL) {
            G.redirect_size = 0;
            return EOF;
        }
    }
    return 0;
 304:	31 c0                	xor    %eax,%eax
}
 306:	83 c4 18             	add    $0x18,%esp
 309:	5b                   	pop    %ebx
 30a:	c3                   	ret    
 30b:	90                   	nop
 30c:	8d 74 26 00          	lea    0x0(%esi,%eiz,1),%esi

int close_redirect(__G)
     __GDEF
{
    if (G.pInfo->textmode) {
        *G.redirect_pointer = '\0';
 310:	8b 83 b8 00 00 00    	mov    0xb8(%ebx),%eax
 316:	c6 00 00             	movb   $0x0,(%eax)
        G.redirect_size = (ulg)(G.redirect_pointer - G.redirect_buffer);
 319:	8b 93 b4 00 00 00    	mov    0xb4(%ebx),%edx
 31f:	8b 83 b8 00 00 00    	mov    0xb8(%ebx),%eax
 325:	29 d0                	sub    %edx,%eax
 327:	89 83 b0 00 00 00    	mov    %eax,0xb0(%ebx)
        if ((G.redirect_buffer =
             realloc(G.redirect_buffer, G.redirect_size + 1)) == NULL) {
 32d:	40                   	inc    %eax
 32e:	89 44 24 04          	mov    %eax,0x4(%esp)
 332:	89 14 24             	mov    %edx,(%esp)
 335:	e8 00 00 00 00       	call   33a <_close_redirect+0x4a>
     __GDEF
{
    if (G.pInfo->textmode) {
        *G.redirect_pointer = '\0';
        G.redirect_size = (ulg)(G.redirect_pointer - G.redirect_buffer);
        if ((G.redirect_buffer =
 33a:	89 83 b4 00 00 00    	mov    %eax,0xb4(%ebx)
 340:	85 c0                	test   %eax,%eax
 342:	75 c0                	jne    304 <_close_redirect+0x14>
             realloc(G.redirect_buffer, G.redirect_size + 1)) == NULL) {
            G.redirect_size = 0;
 344:	c7 83 b0 00 00 00 00 	movl   $0x0,0xb0(%ebx)
 34b:	00 00 00 
            return EOF;
 34e:	83 c8 ff             	or     $0xffffffff,%eax
 351:	eb b3                	jmp    306 <_close_redirect+0x16>
 353:	8d b6 00 00 00 00    	lea    0x0(%esi),%esi
 359:	8d bc 27 00 00 00 00 	lea    0x0(%edi,%eiz,1),%edi

00000360 <_UzpValidate@8>:
#endif /* !__16BIT__ */



int UZ_EXP UzpValidate(char *archive, int AllCodes)
{
 360:	55                   	push   %ebp
 361:	89 e5                	mov    %esp,%ebp
 363:	56                   	push   %esi
 364:	53                   	push   %ebx
 365:	83 ec 20             	sub    $0x20,%esp
 368:	8b 5d 08             	mov    0x8(%ebp),%ebx
    int retcode;
    CONSTRUCTGLOBALS();
 36b:	e8 00 00 00 00       	call   370 <_UzpValidate@8+0x10>
 370:	89 45 f4             	mov    %eax,-0xc(%ebp)

    uO.jflag = 1;
 373:	c7 40 24 01 00 00 00 	movl   $0x1,0x24(%eax)
    uO.tflag = 1;
 37a:	c7 40 44 01 00 00 00 	movl   $0x1,0x44(%eax)
    uO.overwrite_none = 0;
 381:	c7 40 30 00 00 00 00 	movl   $0x0,0x30(%eax)
    G.extract_flag = (!uO.zipinfo_mode &&
 388:	c7 80 80 00 00 00 00 	movl   $0x0,0x80(%eax)
 38f:	00 00 00 
#ifdef TIMESTAMP
                      && !uO.T_flag
#endif
                     );

    uO.qflag = 2;                        /* turn off all messages */
 392:	c7 40 38 02 00 00 00 	movl   $0x2,0x38(%eax)
    G.fValidate = TRUE;
 399:	c7 80 98 00 00 00 01 	movl   $0x1,0x98(%eax)
 3a0:	00 00 00 
    G.pfnames = (char **)&fnames[0];    /* assign default filename vector */
 3a3:	c7 80 c0 00 00 00 00 	movl   $0x0,0xc0(%eax)
 3aa:	00 00 00 
#ifdef WINDLL
    Wiz_NoPrinting(TRUE);
 3ad:	c7 04 24 01 00 00 00 	movl   $0x1,(%esp)
 3b4:	e8 00 00 00 00       	call   3b9 <_UzpValidate@8+0x59>
#endif

    if (archive == NULL) {      /* something is screwed up:  no filename */
 3b9:	85 db                	test   %ebx,%ebx

    uO.qflag = 2;                        /* turn off all messages */
    G.fValidate = TRUE;
    G.pfnames = (char **)&fnames[0];    /* assign default filename vector */
#ifdef WINDLL
    Wiz_NoPrinting(TRUE);
 3bb:	56                   	push   %esi
#endif

    if (archive == NULL) {      /* something is screwed up:  no filename */
 3bc:	0f 84 de 00 00 00    	je     4a0 <_UzpValidate@8+0x140>
        DESTROYGLOBALS();
        return PK_NOZIP;
    }

    G.wildzipfn = (char *)malloc(FILNAMSIZ + 1);
 3c2:	c7 04 24 05 01 00 00 	movl   $0x105,(%esp)
 3c9:	e8 00 00 00 00       	call   3ce <_UzpValidate@8+0x6e>
 3ce:	8b 75 f4             	mov    -0xc(%ebp),%esi
 3d1:	89 86 00 09 01 00    	mov    %eax,0x10900(%esi)
    strcpy(G.wildzipfn, archive);
 3d7:	89 5c 24 04          	mov    %ebx,0x4(%esp)
 3db:	89 04 24             	mov    %eax,(%esp)
 3de:	e8 00 00 00 00       	call   3e3 <_UzpValidate@8+0x83>
#if (defined(WINDLL) && !defined(CRTL_CP_IS_ISO))
    _ISO_INTERN(G.wildzipfn);
#endif

    G.process_all_files = TRUE;         /* for speed */
 3e3:	c7 46 74 01 00 00 00 	movl   $0x1,0x74(%esi)

    retcode = setjmp(dll_error_return);
 3ea:	c7 04 24 00 00 00 00 	movl   $0x0,(%esp)
 3f1:	e8 00 00 00 00       	call   3f6 <_UzpValidate@8+0x96>

    if (retcode) {
 3f6:	85 c0                	test   %eax,%eax
 3f8:	75 67                	jne    461 <_UzpValidate@8+0x101>
        free(G.wildzipfn);
        DESTROYGLOBALS();
        return PK_BADERR;
    }

    retcode = process_zipfiles(__G);
 3fa:	8b 75 f4             	mov    -0xc(%ebp),%esi
 3fd:	89 34 24             	mov    %esi,(%esp)
 400:	e8 00 00 00 00       	call   405 <_UzpValidate@8+0xa5>

    free(G.wildzipfn);
 405:	8b 96 00 09 01 00    	mov    0x10900(%esi),%edx
 40b:	89 14 24             	mov    %edx,(%esp)
        free(G.wildzipfn);
        DESTROYGLOBALS();
        return PK_BADERR;
    }

    retcode = process_zipfiles(__G);
 40e:	89 c3                	mov    %eax,%ebx

    free(G.wildzipfn);
 410:	e8 00 00 00 00       	call   415 <_UzpValidate@8+0xb5>
#ifdef WINDLL
    Wiz_NoPrinting(FALSE);
 415:	c7 04 24 00 00 00 00 	movl   $0x0,(%esp)
 41c:	e8 00 00 00 00       	call   421 <_UzpValidate@8+0xc1>
 421:	50                   	push   %eax
#endif
    DESTROYGLOBALS();
 422:	89 34 24             	mov    %esi,(%esp)
 425:	e8 00 00 00 00       	call   42a <_UzpValidate@8+0xca>
 42a:	89 34 24             	mov    %esi,(%esp)
 42d:	e8 00 00 00 00       	call   432 <_UzpValidate@8+0xd2>
       We also still want to be able to get at files even if there is
       something odd about the zip archive, hence allow PK_WARN,
       PK_FIND, IZ_UNSUP as well as PK_ERR
     */

    if (AllCodes)
 432:	8b 55 0c             	mov    0xc(%ebp),%edx
        free(G.wildzipfn);
        DESTROYGLOBALS();
        return PK_BADERR;
    }

    retcode = process_zipfiles(__G);
 435:	89 d8                	mov    %ebx,%eax
       We also still want to be able to get at files even if there is
       something odd about the zip archive, hence allow PK_WARN,
       PK_FIND, IZ_UNSUP as well as PK_ERR
     */

    if (AllCodes)
 437:	85 d2                	test   %edx,%edx
 439:	75 1d                	jne    458 <_UzpValidate@8+0xf8>
        return retcode;

    if ((retcode == PK_OK) || (retcode == PK_WARN) || (retcode == PK_ERR) ||
        (retcode == IZ_UNSUP) || (retcode == PK_FIND))
 43b:	83 fb 0b             	cmp    $0xb,%ebx
 43e:	0f 94 c1             	sete   %cl
 441:	83 fb 51             	cmp    $0x51,%ebx
 444:	0f 94 c2             	sete   %dl
 447:	09 d1                	or     %edx,%ecx
     */

    if (AllCodes)
        return retcode;

    if ((retcode == PK_OK) || (retcode == PK_WARN) || (retcode == PK_ERR) ||
 449:	83 fb 02             	cmp    $0x2,%ebx
 44c:	88 c8                	mov    %cl,%al
 44e:	0f 96 c2             	setbe  %dl
 451:	09 d0                	or     %edx,%eax
    Wiz_NoPrinting(TRUE);
#endif

    if (archive == NULL) {      /* something is screwed up:  no filename */
        DESTROYGLOBALS();
        return PK_NOZIP;
 453:	25 ff 00 00 00       	and    $0xff,%eax
    if ((retcode == PK_OK) || (retcode == PK_WARN) || (retcode == PK_ERR) ||
        (retcode == IZ_UNSUP) || (retcode == PK_FIND))
        return TRUE;
    else
        return FALSE;
}
 458:	8d 65 f8             	lea    -0x8(%ebp),%esp
 45b:	5b                   	pop    %ebx
 45c:	5e                   	pop    %esi
 45d:	5d                   	pop    %ebp
 45e:	c2 08 00             	ret    $0x8

    retcode = setjmp(dll_error_return);

    if (retcode) {
#ifdef WINDLL
        Wiz_NoPrinting(FALSE);
 461:	c7 04 24 00 00 00 00 	movl   $0x0,(%esp)
 468:	e8 00 00 00 00       	call   46d <_UzpValidate@8+0x10d>
#endif
        free(G.wildzipfn);
 46d:	8b 5d f4             	mov    -0xc(%ebp),%ebx

    retcode = setjmp(dll_error_return);

    if (retcode) {
#ifdef WINDLL
        Wiz_NoPrinting(FALSE);
 470:	51                   	push   %ecx
#endif
        free(G.wildzipfn);
 471:	8b 83 00 09 01 00    	mov    0x10900(%ebx),%eax
 477:	89 04 24             	mov    %eax,(%esp)
 47a:	e8 00 00 00 00       	call   47f <_UzpValidate@8+0x11f>
        DESTROYGLOBALS();
 47f:	89 1c 24             	mov    %ebx,(%esp)
 482:	e8 00 00 00 00       	call   487 <_UzpValidate@8+0x127>
 487:	89 1c 24             	mov    %ebx,(%esp)
 48a:	e8 00 00 00 00       	call   48f <_UzpValidate@8+0x12f>
    if ((retcode == PK_OK) || (retcode == PK_WARN) || (retcode == PK_ERR) ||
        (retcode == IZ_UNSUP) || (retcode == PK_FIND))
        return TRUE;
    else
        return FALSE;
}
 48f:	8d 65 f8             	lea    -0x8(%ebp),%esp
#ifdef WINDLL
        Wiz_NoPrinting(FALSE);
#endif
        free(G.wildzipfn);
        DESTROYGLOBALS();
        return PK_BADERR;
 492:	b8 03 00 00 00       	mov    $0x3,%eax
    if ((retcode == PK_OK) || (retcode == PK_WARN) || (retcode == PK_ERR) ||
        (retcode == IZ_UNSUP) || (retcode == PK_FIND))
        return TRUE;
    else
        return FALSE;
}
 497:	5b                   	pop    %ebx
 498:	5e                   	pop    %esi
 499:	5d                   	pop    %ebp
 49a:	c2 08 00             	ret    $0x8
 49d:	8d 76 00             	lea    0x0(%esi),%esi
#ifdef WINDLL
    Wiz_NoPrinting(TRUE);
#endif

    if (archive == NULL) {      /* something is screwed up:  no filename */
        DESTROYGLOBALS();
 4a0:	8b 5d f4             	mov    -0xc(%ebp),%ebx
 4a3:	89 1c 24             	mov    %ebx,(%esp)
 4a6:	e8 00 00 00 00       	call   4ab <_UzpValidate@8+0x14b>
 4ab:	89 1c 24             	mov    %ebx,(%esp)
 4ae:	e8 00 00 00 00       	call   4b3 <_UzpValidate@8+0x153>
    if ((retcode == PK_OK) || (retcode == PK_WARN) || (retcode == PK_ERR) ||
        (retcode == IZ_UNSUP) || (retcode == PK_FIND))
        return TRUE;
    else
        return FALSE;
}
 4b3:	8d 65 f8             	lea    -0x8(%ebp),%esp
    Wiz_NoPrinting(TRUE);
#endif

    if (archive == NULL) {      /* something is screwed up:  no filename */
        DESTROYGLOBALS();
        return PK_NOZIP;
 4b6:	b8 09 00 00 00       	mov    $0x9,%eax
    if ((retcode == PK_OK) || (retcode == PK_WARN) || (retcode == PK_ERR) ||
        (retcode == IZ_UNSUP) || (retcode == PK_FIND))
        return TRUE;
    else
        return FALSE;
}
 4bb:	5b                   	pop    %ebx
 4bc:	5e                   	pop    %esi
 4bd:	5d                   	pop    %ebp
 4be:	c2 08 00             	ret    $0x8
 4c1:	90                   	nop
 4c2:	90                   	nop
 4c3:	90                   	nop
 4c4:	90                   	nop
 4c5:	90                   	nop
 4c6:	90                   	nop
 4c7:	90                   	nop
 4c8:	90                   	nop
 4c9:	90                   	nop
 4ca:	90                   	nop
 4cb:	90                   	nop
 4cc:	90                   	nop
 4cd:	90                   	nop
 4ce:	90                   	nop
 4cf:	90                   	nop

crc32.o:     file format pe-i386


Disassembly of section .text:

00000000 <_crc32>:
    register ZCONST uch *buf;   /* pointer to bytes to pump through */
    extent len;                 /* number of bytes in buf[] */
/* Run a set of bytes through the crc shift register.  If buf is a NULL
   pointer, then initialize the crc shift register contents instead.
   Return the current crc in either case. */
{
   0:	57                   	push   %edi
   1:	56                   	push   %esi
   2:	53                   	push   %ebx
   3:	8b 5c 24 14          	mov    0x14(%esp),%ebx
   7:	8b 74 24 18          	mov    0x18(%esp),%esi
  register ZCONST ulg near *crc_table;

  if (buf == NULL) return 0L;
   b:	85 db                	test   %ebx,%ebx
   d:	0f 84 dd 00 00 00    	je     f0 <_crc32+0xf0>

  crc_table = get_crc_table();
  13:	e8 00 00 00 00       	call   18 <_crc32+0x18>

  crc = crc ^ 0xffffffffL;
  18:	8b 54 24 10          	mov    0x10(%esp),%edx
  1c:	83 f2 ff             	xor    $0xffffffff,%edx
{
  register ZCONST ulg near *crc_table;

  if (buf == NULL) return 0L;

  crc_table = get_crc_table();
  1f:	89 c1                	mov    %eax,%ecx

  crc = crc ^ 0xffffffffL;
#ifndef NO_UNROLLED_LOOPS
  while (len >= 8) {
  21:	83 fe 07             	cmp    $0x7,%esi
  24:	0f 86 cc 00 00 00    	jbe    f6 <_crc32+0xf6>
  2a:	8d 46 f8             	lea    -0x8(%esi),%eax
  2d:	c1 e8 03             	shr    $0x3,%eax
  30:	8d 7c c3 08          	lea    0x8(%ebx,%eax,8),%edi
    DO8(buf);
  34:	88 d0                	mov    %dl,%al
  36:	83 c3 08             	add    $0x8,%ebx
  39:	c1 ea 08             	shr    $0x8,%edx
  3c:	32 43 f8             	xor    -0x8(%ebx),%al
  3f:	25 ff 00 00 00       	and    $0xff,%eax
  44:	33 14 81             	xor    (%ecx,%eax,4),%edx
  47:	88 d0                	mov    %dl,%al
  49:	c1 ea 08             	shr    $0x8,%edx
  4c:	32 43 f9             	xor    -0x7(%ebx),%al
  4f:	25 ff 00 00 00       	and    $0xff,%eax
  54:	33 14 81             	xor    (%ecx,%eax,4),%edx
  57:	88 d0                	mov    %dl,%al
  59:	c1 ea 08             	shr    $0x8,%edx
  5c:	32 43 fa             	xor    -0x6(%ebx),%al
  5f:	25 ff 00 00 00       	and    $0xff,%eax
  64:	33 14 81             	xor    (%ecx,%eax,4),%edx
  67:	88 d0                	mov    %dl,%al
  69:	c1 ea 08             	shr    $0x8,%edx
  6c:	32 43 fb             	xor    -0x5(%ebx),%al
  6f:	25 ff 00 00 00       	and    $0xff,%eax
  74:	33 14 81             	xor    (%ecx,%eax,4),%edx
  77:	88 d0                	mov    %dl,%al
  79:	c1 ea 08             	shr    $0x8,%edx
  7c:	32 43 fc             	xor    -0x4(%ebx),%al
  7f:	25 ff 00 00 00       	and    $0xff,%eax
  84:	33 14 81             	xor    (%ecx,%eax,4),%edx
  87:	88 d0                	mov    %dl,%al
  89:	c1 ea 08             	shr    $0x8,%edx
  8c:	32 43 fd             	xor    -0x3(%ebx),%al
  8f:	25 ff 00 00 00       	and    $0xff,%eax
  94:	33 14 81             	xor    (%ecx,%eax,4),%edx
  97:	88 d0                	mov    %dl,%al
  99:	c1 ea 08             	shr    $0x8,%edx
  9c:	32 43 fe             	xor    -0x2(%ebx),%al
  9f:	25 ff 00 00 00       	and    $0xff,%eax
  a4:	33 14 81             	xor    (%ecx,%eax,4),%edx
  a7:	88 d0                	mov    %dl,%al
  a9:	c1 ea 08             	shr    $0x8,%edx
  ac:	32 43 ff             	xor    -0x1(%ebx),%al
  af:	25 ff 00 00 00       	and    $0xff,%eax
  b4:	33 14 81             	xor    (%ecx,%eax,4),%edx

  crc_table = get_crc_table();

  crc = crc ^ 0xffffffffL;
#ifndef NO_UNROLLED_LOOPS
  while (len >= 8) {
  b7:	39 fb                	cmp    %edi,%ebx
  b9:	0f 85 75 ff ff ff    	jne    34 <_crc32+0x34>
  bf:	83 e6 07             	and    $0x7,%esi
    DO8(buf);
    len -= 8;
  }
#endif
  if (len) do {
  c2:	85 f6                	test   %esi,%esi
  c4:	74 1a                	je     e0 <_crc32+0xe0>
  c6:	01 fe                	add    %edi,%esi
    DO1(buf);
  c8:	47                   	inc    %edi
  c9:	88 d3                	mov    %dl,%bl
  cb:	c1 ea 08             	shr    $0x8,%edx
  ce:	32 5f ff             	xor    -0x1(%edi),%bl
  d1:	81 e3 ff 00 00 00    	and    $0xff,%ebx
  d7:	8b 04 99             	mov    (%ecx,%ebx,4),%eax
  da:	31 c2                	xor    %eax,%edx
  } while (--len);
  dc:	39 f7                	cmp    %esi,%edi
  de:	75 e8                	jne    c8 <_crc32+0xc8>
  return crc ^ 0xffffffffL;     /* (instead of ~c for 64-bit machines) */
  e0:	89 d0                	mov    %edx,%eax
}
  e2:	5b                   	pop    %ebx
  }
#endif
  if (len) do {
    DO1(buf);
  } while (--len);
  return crc ^ 0xffffffffL;     /* (instead of ~c for 64-bit machines) */
  e3:	83 f0 ff             	xor    $0xffffffff,%eax
}
  e6:	5e                   	pop    %esi
  e7:	5f                   	pop    %edi
  e8:	c3                   	ret    
  e9:	8d b4 26 00 00 00 00 	lea    0x0(%esi,%eiz,1),%esi
  f0:	5b                   	pop    %ebx
   pointer, then initialize the crc shift register contents instead.
   Return the current crc in either case. */
{
  register ZCONST ulg near *crc_table;

  if (buf == NULL) return 0L;
  f1:	31 c0                	xor    %eax,%eax
#endif
  if (len) do {
    DO1(buf);
  } while (--len);
  return crc ^ 0xffffffffL;     /* (instead of ~c for 64-bit machines) */
}
  f3:	5e                   	pop    %esi
  f4:	5f                   	pop    %edi
  f5:	c3                   	ret    

  crc_table = get_crc_table();

  crc = crc ^ 0xffffffffL;
#ifndef NO_UNROLLED_LOOPS
  while (len >= 8) {
  f6:	89 df                	mov    %ebx,%edi
  f8:	eb c8                	jmp    c2 <_crc32+0xc2>
  fa:	90                   	nop
  fb:	90                   	nop
  fc:	90                   	nop
  fd:	90                   	nop
  fe:	90                   	nop
  ff:	90                   	nop

crc_i386.o:     file format pe-i386


crctab.o:     file format pe-i386


Disassembly of section .text:

00000000 <_get_crc_table>:
#else
ZCONST ulg near *get_crc_table OF((void))
#endif
{
#ifdef DYNAMIC_CRC_TABLE
  if (CRC_TABLE_IS_EMPTY)
   0:	a1 00 00 00 00       	mov    0x0,%eax
   5:	85 c0                	test   %eax,%eax
   7:	75 06                	jne    f <_get_crc_table+0xf>
#ifdef USE_ZLIB
  return (ZCONST uLongf *)crc_table;
#else
  return (ZCONST ulg near *)crc_table;
#endif
}
   9:	b8 00 00 00 00       	mov    $0x0,%eax
   e:	c3                   	ret    
   f:	31 c9                	xor    %ecx,%ecx
    ziperr(ZE_MEM, "crc_table allocation");
  }
#endif /* DYNALLOC_CRCTAB */

  for (n = 0; n < 256; n++) {
    c = (ulg)n;
  11:	89 c8                	mov    %ecx,%eax
  13:	ba 08 00 00 00       	mov    $0x8,%edx
  18:	eb 10                	jmp    2a <_get_crc_table+0x2a>
  1a:	8d b6 00 00 00 00    	lea    0x0(%esi),%esi
    for (k = 8; k; k--)
      c = c & 1 ? xor ^ (c >> 1) : c >> 1;
  20:	d1 e8                	shr    %eax
  22:	35 20 83 b8 ed       	xor    $0xedb88320,%eax
  }
#endif /* DYNALLOC_CRCTAB */

  for (n = 0; n < 256; n++) {
    c = (ulg)n;
    for (k = 8; k; k--)
  27:	4a                   	dec    %edx
  28:	74 09                	je     33 <_get_crc_table+0x33>
      c = c & 1 ? xor ^ (c >> 1) : c >> 1;
  2a:	a8 01                	test   $0x1,%al
  2c:	75 f2                	jne    20 <_get_crc_table+0x20>
  2e:	d1 e8                	shr    %eax
  }
#endif /* DYNALLOC_CRCTAB */

  for (n = 0; n < 256; n++) {
    c = (ulg)n;
    for (k = 8; k; k--)
  30:	4a                   	dec    %edx
  31:	75 f7                	jne    2a <_get_crc_table+0x2a>
      c = c & 1 ? xor ^ (c >> 1) : c >> 1;
    crctab_p[n] = c;
  33:	89 04 8d 00 00 00 00 	mov    %eax,0x0(,%ecx,4)
  if (crctab_p == NULL) {
    ziperr(ZE_MEM, "crc_table allocation");
  }
#endif /* DYNALLOC_CRCTAB */

  for (n = 0; n < 256; n++) {
  3a:	41                   	inc    %ecx
  3b:	81 f9 00 01 00 00    	cmp    $0x100,%ecx
  41:	75 ce                	jne    11 <_get_crc_table+0x11>
    c = (ulg)n;
    for (k = 8; k; k--)
      c = c & 1 ? xor ^ (c >> 1) : c >> 1;
    crctab_p[n] = c;
  }
  MARK_CRCTAB_FILLED;
  43:	c7 05 00 00 00 00 00 	movl   $0x0,0x0
  4a:	00 00 00 
#ifdef USE_ZLIB
  return (ZCONST uLongf *)crc_table;
#else
  return (ZCONST ulg near *)crc_table;
#endif
}
  4d:	b8 00 00 00 00       	mov    $0x0,%eax
  52:	c3                   	ret    
  53:	90                   	nop
  54:	90                   	nop
  55:	90                   	nop
  56:	90                   	nop
  57:	90                   	nop
  58:	90                   	nop
  59:	90                   	nop
  5a:	90                   	nop
  5b:	90                   	nop
  5c:	90                   	nop
  5d:	90                   	nop
  5e:	90                   	nop
  5f:	90                   	nop

crypt.o:     file format pe-i386


Disassembly of section .text:

00000000 <_decrypt_byte>:
{
    unsigned temp;  /* POTENTIAL BUG:  temp*(temp^1) may overflow in an
                     * unpredictable manner on 16-bit systems; not a problem
                     * with any known compiler so far, though */

    temp = ((unsigned)GLOBAL(keys[2]) & 0xffff) | 2;
   0:	8b 44 24 04          	mov    0x4(%esp),%eax
   4:	8b 88 f4 0a 01 00    	mov    0x10af4(%eax),%ecx
   a:	81 e1 ff ff 00 00    	and    $0xffff,%ecx
  10:	89 c8                	mov    %ecx,%eax
  12:	83 c8 02             	or     $0x2,%eax
    return (int)(((temp * (temp ^ 1)) >> 8) & 0xff);
  15:	89 c2                	mov    %eax,%edx
  17:	83 f2 01             	xor    $0x1,%edx
  1a:	0f af c2             	imul   %edx,%eax
  1d:	0f b6 c4             	movzbl %ah,%eax
}
  20:	c3                   	ret    
  21:	eb 0d                	jmp    30 <_update_keys>
  23:	90                   	nop
  24:	90                   	nop
  25:	90                   	nop
  26:	90                   	nop
  27:	90                   	nop
  28:	90                   	nop
  29:	90                   	nop
  2a:	90                   	nop
  2b:	90                   	nop
  2c:	90                   	nop
  2d:	90                   	nop
  2e:	90                   	nop
  2f:	90                   	nop

00000030 <_update_keys>:
 * Update the encryption keys with the next byte of plain text
 */
int update_keys(__G__ c)
    __GDEF
    int c;                      /* byte of plain text */
{
  30:	57                   	push   %edi
  31:	56                   	push   %esi
  32:	53                   	push   %ebx
  33:	8b 5c 24 10          	mov    0x10(%esp),%ebx
  37:	8b 44 24 14          	mov    0x14(%esp),%eax
    GLOBAL(keys[0]) = CRC32(GLOBAL(keys[0]), c);
  3b:	89 c1                	mov    %eax,%ecx
  3d:	8b 93 ec 0a 01 00    	mov    0x10aec(%ebx),%edx
  43:	8b b3 dc 08 01 00    	mov    0x108dc(%ebx),%esi
  49:	31 d1                	xor    %edx,%ecx
  4b:	c1 ea 08             	shr    $0x8,%edx
  4e:	81 e1 ff 00 00 00    	and    $0xff,%ecx
  54:	8b 3c 8e             	mov    (%esi,%ecx,4),%edi
    GLOBAL(keys[1]) += GLOBAL(keys[0]) & 0xff;
  57:	8b 8b f0 0a 01 00    	mov    0x10af0(%ebx),%ecx
 */
int update_keys(__G__ c)
    __GDEF
    int c;                      /* byte of plain text */
{
    GLOBAL(keys[0]) = CRC32(GLOBAL(keys[0]), c);
  5d:	31 fa                	xor    %edi,%edx
  5f:	89 93 ec 0a 01 00    	mov    %edx,0x10aec(%ebx)
    GLOBAL(keys[1]) += GLOBAL(keys[0]) & 0xff;
  65:	81 e2 ff 00 00 00    	and    $0xff,%edx
  6b:	01 ca                	add    %ecx,%edx
    GLOBAL(keys[1]) = GLOBAL(keys[1]) * 134775813L + 1;
  6d:	89 d7                	mov    %edx,%edi
  6f:	89 d1                	mov    %edx,%ecx
  71:	c1 e7 04             	shl    $0x4,%edi
  74:	c1 e1 0c             	shl    $0xc,%ecx
  77:	01 f9                	add    %edi,%ecx
  79:	01 d1                	add    %edx,%ecx
  7b:	c1 e1 05             	shl    $0x5,%ecx
  7e:	01 d1                	add    %edx,%ecx
  80:	c1 e1 08             	shl    $0x8,%ecx
  83:	01 d1                	add    %edx,%ecx
  85:	8d 54 8a 01          	lea    0x1(%edx,%ecx,4),%edx
    {
      register int keyshift = (int)(GLOBAL(keys[1]) >> 24);
      GLOBAL(keys[2]) = CRC32(GLOBAL(keys[2]), keyshift);
  89:	8b 8b f4 0a 01 00    	mov    0x10af4(%ebx),%ecx
    __GDEF
    int c;                      /* byte of plain text */
{
    GLOBAL(keys[0]) = CRC32(GLOBAL(keys[0]), c);
    GLOBAL(keys[1]) += GLOBAL(keys[0]) & 0xff;
    GLOBAL(keys[1]) = GLOBAL(keys[1]) * 134775813L + 1;
  8f:	89 93 f0 0a 01 00    	mov    %edx,0x10af0(%ebx)
    {
      register int keyshift = (int)(GLOBAL(keys[1]) >> 24);
  95:	c1 ea 18             	shr    $0x18,%edx
      GLOBAL(keys[2]) = CRC32(GLOBAL(keys[2]), keyshift);
  98:	31 ca                	xor    %ecx,%edx
  9a:	c1 e9 08             	shr    $0x8,%ecx
  9d:	81 e2 ff 00 00 00    	and    $0xff,%edx
  a3:	8b 3c 96             	mov    (%esi,%edx,4),%edi
  a6:	31 f9                	xor    %edi,%ecx
  a8:	89 8b f4 0a 01 00    	mov    %ecx,0x10af4(%ebx)
    }
    return c;
}
  ae:	5b                   	pop    %ebx
  af:	5e                   	pop    %esi
  b0:	5f                   	pop    %edi
  b1:	c3                   	ret    
  b2:	8d b4 26 00 00 00 00 	lea    0x0(%esi,%eiz,1),%esi
  b9:	8d bc 27 00 00 00 00 	lea    0x0(%edi,%eiz,1),%edi

000000c0 <_init_keys>:
 * the given password.
 */
void init_keys(__G__ passwd)
    __GDEF
    ZCONST char *passwd;        /* password string with which to modify keys */
{
  c0:	56                   	push   %esi
  c1:	53                   	push   %ebx
  c2:	83 ec 08             	sub    $0x8,%esp
  c5:	8b 74 24 14          	mov    0x14(%esp),%esi
  c9:	8b 5c 24 18          	mov    0x18(%esp),%ebx
    GLOBAL(keys[0]) = 305419896L;
  cd:	c7 86 ec 0a 01 00 78 	movl   $0x12345678,0x10aec(%esi)
  d4:	56 34 12 
    GLOBAL(keys[1]) = 591751049L;
  d7:	c7 86 f0 0a 01 00 89 	movl   $0x23456789,0x10af0(%esi)
  de:	67 45 23 
    GLOBAL(keys[2]) = 878082192L;
  e1:	c7 86 f4 0a 01 00 90 	movl   $0x34567890,0x10af4(%esi)
  e8:	78 56 34 
    while (*passwd != '\0') {
  eb:	0f be 03             	movsbl (%ebx),%eax
  ee:	84 c0                	test   %al,%al
  f0:	74 14                	je     106 <_init_keys+0x46>
        update_keys(__G__ (int)*passwd);
        passwd++;
  f2:	43                   	inc    %ebx
{
    GLOBAL(keys[0]) = 305419896L;
    GLOBAL(keys[1]) = 591751049L;
    GLOBAL(keys[2]) = 878082192L;
    while (*passwd != '\0') {
        update_keys(__G__ (int)*passwd);
  f3:	89 44 24 04          	mov    %eax,0x4(%esp)
  f7:	89 34 24             	mov    %esi,(%esp)
  fa:	e8 31 ff ff ff       	call   30 <_update_keys>
    ZCONST char *passwd;        /* password string with which to modify keys */
{
    GLOBAL(keys[0]) = 305419896L;
    GLOBAL(keys[1]) = 591751049L;
    GLOBAL(keys[2]) = 878082192L;
    while (*passwd != '\0') {
  ff:	0f be 03             	movsbl (%ebx),%eax
 102:	84 c0                	test   %al,%al
 104:	75 ec                	jne    f2 <_init_keys+0x32>
        update_keys(__G__ (int)*passwd);
        passwd++;
    }
}
 106:	83 c4 08             	add    $0x8,%esp
 109:	5b                   	pop    %ebx
 10a:	5e                   	pop    %esi
 10b:	c3                   	ret    
 10c:	8d 74 26 00          	lea    0x0(%esi,%eiz,1),%esi

00000110 <_testkey>:

local int testkey(__G__ h, key)
    __GDEF
    ZCONST uch *h;      /* decrypted header */
    ZCONST char *key;   /* decryption password to test */
{
 110:	57                   	push   %edi
 111:	56                   	push   %esi
 112:	53                   	push   %ebx
 113:	89 d6                	mov    %edx,%esi
 115:	83 ec 18             	sub    $0x18,%esp
 118:	89 c3                	mov    %eax,%ebx
    int n;
    uch *p;
    uch hh[RAND_HEAD_LEN]; /* decrypted header */

    /* set keys and save the encrypted header */
    init_keys(__G__ key);
 11a:	89 04 24             	mov    %eax,(%esp)
 11d:	89 4c 24 04          	mov    %ecx,0x4(%esp)
 121:	e8 9a ff ff ff       	call   c0 <_init_keys>
    memcpy(hh, h, RAND_HEAD_LEN);
 126:	8b 06                	mov    (%esi),%eax
 128:	89 44 24 0c          	mov    %eax,0xc(%esp)
 12c:	8b 46 04             	mov    0x4(%esi),%eax
 12f:	89 44 24 10          	mov    %eax,0x10(%esp)
 133:	8b 46 08             	mov    0x8(%esi),%eax
 136:	89 44 24 14          	mov    %eax,0x14(%esp)
 13a:	8d 7c 24 0c          	lea    0xc(%esp),%edi
 13e:	8d 74 24 18          	lea    0x18(%esp),%esi
{
    unsigned temp;  /* POTENTIAL BUG:  temp*(temp^1) may overflow in an
                     * unpredictable manner on 16-bit systems; not a problem
                     * with any known compiler so far, though */

    temp = ((unsigned)GLOBAL(keys[2]) & 0xffff) | 2;
 142:	31 d2                	xor    %edx,%edx
 144:	47                   	inc    %edi
 145:	66 8b 93 f4 0a 01 00 	mov    0x10af4(%ebx),%dx
 14c:	83 ca 02             	or     $0x2,%edx
    return (int)(((temp * (temp ^ 1)) >> 8) & 0xff);
 14f:	89 d0                	mov    %edx,%eax
 151:	83 f0 01             	xor    $0x1,%eax
 154:	0f af d0             	imul   %eax,%edx
 157:	c1 ea 08             	shr    $0x8,%edx
    init_keys(__G__ key);
    memcpy(hh, h, RAND_HEAD_LEN);

    /* check password */
    for (n = 0; n < RAND_HEAD_LEN; n++) {
        zdecode(hh[n]);
 15a:	32 57 ff             	xor    -0x1(%edi),%dl
 15d:	88 57 ff             	mov    %dl,-0x1(%edi)
 160:	81 e2 ff 00 00 00    	and    $0xff,%edx
 166:	89 54 24 04          	mov    %edx,0x4(%esp)
 16a:	89 1c 24             	mov    %ebx,(%esp)
 16d:	e8 be fe ff ff       	call   30 <_update_keys>
    /* set keys and save the encrypted header */
    init_keys(__G__ key);
    memcpy(hh, h, RAND_HEAD_LEN);

    /* check password */
    for (n = 0; n < RAND_HEAD_LEN; n++) {
 172:	39 f7                	cmp    %esi,%edi
 174:	75 cc                	jne    142 <_testkey+0x32>
#else
    b = hh[RAND_HEAD_LEN-1];
    Trace((stdout, "  b = %02x  (crc >> 24) = %02x  (lrec.time >> 8) = %02x\n",
      b, (ush)(GLOBAL(lrec.crc32) >> 24),
      ((ush)GLOBAL(lrec.last_mod_dos_datetime) >> 8) & 0xff));
    if (b != (GLOBAL(pInfo->ExtLocHdr) ?
 176:	8b 83 d8 08 00 00    	mov    0x8d8(%ebx),%eax
 17c:	31 d2                	xor    %edx,%edx
 17e:	8a 54 24 17          	mov    0x17(%esp),%dl
        ((ush)GLOBAL(lrec.last_mod_dos_datetime) >> 8) & 0xff :
 182:	f6 40 18 02          	testb  $0x2,0x18(%eax)
 186:	74 68                	je     1f0 <_testkey+0xe0>
 188:	31 c0                	xor    %eax,%eax
 18a:	8a 83 29 09 01 00    	mov    0x10929(%ebx),%al
#else
    b = hh[RAND_HEAD_LEN-1];
    Trace((stdout, "  b = %02x  (crc >> 24) = %02x  (lrec.time >> 8) = %02x\n",
      b, (ush)(GLOBAL(lrec.crc32) >> 24),
      ((ush)GLOBAL(lrec.last_mod_dos_datetime) >> 8) & 0xff));
    if (b != (GLOBAL(pInfo->ExtLocHdr) ?
 190:	39 c2                	cmp    %eax,%edx
 192:	75 66                	jne    1fa <_testkey+0xea>
        ((ush)GLOBAL(lrec.last_mod_dos_datetime) >> 8) & 0xff :
        (ush)(GLOBAL(lrec.crc32) >> 24)))
        return -1;  /* bad */
#endif
    /* password OK:  decrypt current buffer contents before leaving */
    for (n = (long)GLOBAL(incnt) > GLOBAL(csize) ?
 194:	8b b3 ec 08 01 00    	mov    0x108ec(%ebx),%esi
             (int)GLOBAL(csize) : GLOBAL(incnt),
         p = GLOBAL(inptr); n--; p++)
 19a:	8b bb e8 08 01 00    	mov    0x108e8(%ebx),%edi
        ((ush)GLOBAL(lrec.last_mod_dos_datetime) >> 8) & 0xff :
        (ush)(GLOBAL(lrec.crc32) >> 24)))
        return -1;  /* bad */
#endif
    /* password OK:  decrypt current buffer contents before leaving */
    for (n = (long)GLOBAL(incnt) > GLOBAL(csize) ?
 1a0:	39 b3 90 00 00 00    	cmp    %esi,0x90(%ebx)
 1a6:	0f 4e b3 90 00 00 00 	cmovle 0x90(%ebx),%esi
 1ad:	85 f6                	test   %esi,%esi
 1af:	74 32                	je     1e3 <_testkey+0xd3>
{
    unsigned temp;  /* POTENTIAL BUG:  temp*(temp^1) may overflow in an
                     * unpredictable manner on 16-bit systems; not a problem
                     * with any known compiler so far, though */

    temp = ((unsigned)GLOBAL(keys[2]) & 0xffff) | 2;
 1b1:	31 c0                	xor    %eax,%eax
        return -1;  /* bad */
#endif
    /* password OK:  decrypt current buffer contents before leaving */
    for (n = (long)GLOBAL(incnt) > GLOBAL(csize) ?
             (int)GLOBAL(csize) : GLOBAL(incnt),
         p = GLOBAL(inptr); n--; p++)
 1b3:	47                   	inc    %edi
{
    unsigned temp;  /* POTENTIAL BUG:  temp*(temp^1) may overflow in an
                     * unpredictable manner on 16-bit systems; not a problem
                     * with any known compiler so far, though */

    temp = ((unsigned)GLOBAL(keys[2]) & 0xffff) | 2;
 1b4:	66 8b 83 f4 0a 01 00 	mov    0x10af4(%ebx),%ax
 1bb:	83 c8 02             	or     $0x2,%eax
    return (int)(((temp * (temp ^ 1)) >> 8) & 0xff);
 1be:	89 c2                	mov    %eax,%edx
 1c0:	83 f2 01             	xor    $0x1,%edx
 1c3:	0f af c2             	imul   %edx,%eax
 1c6:	c1 e8 08             	shr    $0x8,%eax
#endif
    /* password OK:  decrypt current buffer contents before leaving */
    for (n = (long)GLOBAL(incnt) > GLOBAL(csize) ?
             (int)GLOBAL(csize) : GLOBAL(incnt),
         p = GLOBAL(inptr); n--; p++)
        zdecode(*p);
 1c9:	32 47 ff             	xor    -0x1(%edi),%al
 1cc:	88 47 ff             	mov    %al,-0x1(%edi)
 1cf:	25 ff 00 00 00       	and    $0xff,%eax
 1d4:	89 44 24 04          	mov    %eax,0x4(%esp)
 1d8:	89 1c 24             	mov    %ebx,(%esp)
 1db:	e8 50 fe ff ff       	call   30 <_update_keys>
        ((ush)GLOBAL(lrec.last_mod_dos_datetime) >> 8) & 0xff :
        (ush)(GLOBAL(lrec.crc32) >> 24)))
        return -1;  /* bad */
#endif
    /* password OK:  decrypt current buffer contents before leaving */
    for (n = (long)GLOBAL(incnt) > GLOBAL(csize) ?
 1e0:	4e                   	dec    %esi
 1e1:	75 ce                	jne    1b1 <_testkey+0xa1>
             (int)GLOBAL(csize) : GLOBAL(incnt),
         p = GLOBAL(inptr); n--; p++)
        zdecode(*p);
    return 0;       /* OK */
 1e3:	31 c0                	xor    %eax,%eax

} /* end function testkey() */
 1e5:	83 c4 18             	add    $0x18,%esp
 1e8:	5b                   	pop    %ebx
 1e9:	5e                   	pop    %esi
 1ea:	5f                   	pop    %edi
 1eb:	c3                   	ret    
 1ec:	8d 74 26 00          	lea    0x0(%esi,%eiz,1),%esi
    Trace((stdout, "  b = %02x  (crc >> 24) = %02x  (lrec.time >> 8) = %02x\n",
      b, (ush)(GLOBAL(lrec.crc32) >> 24),
      ((ush)GLOBAL(lrec.last_mod_dos_datetime) >> 8) & 0xff));
    if (b != (GLOBAL(pInfo->ExtLocHdr) ?
        ((ush)GLOBAL(lrec.last_mod_dos_datetime) >> 8) & 0xff :
        (ush)(GLOBAL(lrec.crc32) >> 24)))
 1f0:	31 c0                	xor    %eax,%eax
 1f2:	8a 83 2f 09 01 00    	mov    0x1092f(%ebx),%al
 1f8:	eb 96                	jmp    190 <_testkey+0x80>
        return -1;  /* bad */
 1fa:	83 c8 ff             	or     $0xffffffff,%eax
 1fd:	eb e6                	jmp    1e5 <_testkey+0xd5>
 1ff:	90                   	nop

00000200 <_testp>:
 * Test the password.  Return -1 if bad, 0 if OK.
 */
local int testp(__G__ h)
    __GDEF
    ZCONST uch *h;
{
 200:	55                   	push   %ebp
 201:	57                   	push   %edi
 202:	56                   	push   %esi
 203:	53                   	push   %ebx
 204:	83 ec 1c             	sub    $0x1c,%esp
 207:	89 c3                	mov    %eax,%ebx
        return -1;
    /* first try, test password translated "standard" charset */
    r = testkey(__G__ h, STR_TO_CP1(key_translated, GLOBAL(key)));
#else /* !STR_TO_CP1 */
    /* first try, test password as supplied on the extractor's host */
    r = testkey(__G__ h, GLOBAL(key));
 209:	8b 88 e4 0a 01 00    	mov    0x10ae4(%eax),%ecx
 * Test the password.  Return -1 if bad, 0 if OK.
 */
local int testp(__G__ h)
    __GDEF
    ZCONST uch *h;
{
 20f:	89 d6                	mov    %edx,%esi
        return -1;
    /* first try, test password translated "standard" charset */
    r = testkey(__G__ h, STR_TO_CP1(key_translated, GLOBAL(key)));
#else /* !STR_TO_CP1 */
    /* first try, test password as supplied on the extractor's host */
    r = testkey(__G__ h, GLOBAL(key));
 211:	e8 fa fe ff ff       	call   110 <_testkey>
#endif /* ?STR_TO_CP1 */

#ifdef STR_TO_CP2
    if (r != 0) {
 216:	85 c0                	test   %eax,%eax
 218:	75 0a                	jne    224 <_testp+0x24>
 21a:	31 c0                	xor    %eax,%eax
    }
#endif /* STR_TO_CP1 */

    return r;

} /* end function testp() */
 21c:	83 c4 1c             	add    $0x1c,%esp
 21f:	5b                   	pop    %ebx
 220:	5e                   	pop    %esi
 221:	5f                   	pop    %edi
 222:	5d                   	pop    %ebp
 223:	c3                   	ret    

#ifdef STR_TO_CP2
    if (r != 0) {
#ifndef STR_TO_CP1
        /* now prepare for second (and maybe third) test with translated pwd */
        if ((key_translated = malloc(strlen(GLOBAL(key)) + 1)) == (char *)NULL)
 224:	8b ab e4 0a 01 00    	mov    0x10ae4(%ebx),%ebp
 22a:	89 2c 24             	mov    %ebp,(%esp)
 22d:	e8 00 00 00 00       	call   232 <_testp+0x32>
 232:	40                   	inc    %eax
 233:	89 04 24             	mov    %eax,(%esp)
 236:	e8 00 00 00 00       	call   23b <_testp+0x3b>
 23b:	89 c7                	mov    %eax,%edi
 23d:	85 c0                	test   %eax,%eax
 23f:	74 2d                	je     26e <_testp+0x6e>
            return -1;
#endif
        /* second try, password translated to alternate ("standard") charset */
        r = testkey(__G__ h, STR_TO_CP2(key_translated, GLOBAL(key)));
 241:	89 2c 24             	mov    %ebp,(%esp)
 244:	89 44 24 04          	mov    %eax,0x4(%esp)
 248:	e8 00 00 00 00       	call   24d <_testp+0x4d>
 24d:	89 f9                	mov    %edi,%ecx
 24f:	89 f2                	mov    %esi,%edx
 251:	50                   	push   %eax
 252:	50                   	push   %eax
 253:	89 d8                	mov    %ebx,%eax
 255:	e8 b6 fe ff ff       	call   110 <_testkey>
        if (r != 0)
            /* third try, password translated to another "standard" charset */
            r = testkey(__G__ h, STR_TO_CP3(key_translated, GLOBAL(key)));
#endif
#ifndef STR_TO_CP1
        free(key_translated);
 25a:	89 3c 24             	mov    %edi,(%esp)
        /* now prepare for second (and maybe third) test with translated pwd */
        if ((key_translated = malloc(strlen(GLOBAL(key)) + 1)) == (char *)NULL)
            return -1;
#endif
        /* second try, password translated to alternate ("standard") charset */
        r = testkey(__G__ h, STR_TO_CP2(key_translated, GLOBAL(key)));
 25d:	89 c3                	mov    %eax,%ebx
        if (r != 0)
            /* third try, password translated to another "standard" charset */
            r = testkey(__G__ h, STR_TO_CP3(key_translated, GLOBAL(key)));
#endif
#ifndef STR_TO_CP1
        free(key_translated);
 25f:	e8 00 00 00 00       	call   264 <_testp+0x64>
    }
#endif /* STR_TO_CP1 */

    return r;

} /* end function testp() */
 264:	83 c4 1c             	add    $0x1c,%esp
        /* now prepare for second (and maybe third) test with translated pwd */
        if ((key_translated = malloc(strlen(GLOBAL(key)) + 1)) == (char *)NULL)
            return -1;
#endif
        /* second try, password translated to alternate ("standard") charset */
        r = testkey(__G__ h, STR_TO_CP2(key_translated, GLOBAL(key)));
 267:	89 d8                	mov    %ebx,%eax
    }
#endif /* STR_TO_CP1 */

    return r;

} /* end function testp() */
 269:	5b                   	pop    %ebx
 26a:	5e                   	pop    %esi
 26b:	5f                   	pop    %edi
 26c:	5d                   	pop    %ebp
 26d:	c3                   	ret    
#ifdef STR_TO_CP2
    if (r != 0) {
#ifndef STR_TO_CP1
        /* now prepare for second (and maybe third) test with translated pwd */
        if ((key_translated = malloc(strlen(GLOBAL(key)) + 1)) == (char *)NULL)
            return -1;
 26e:	83 c8 ff             	or     $0xffffffff,%eax
 271:	eb a9                	jmp    21c <_testp+0x1c>
 273:	8d b6 00 00 00 00    	lea    0x0(%esi),%esi
 279:	8d bc 27 00 00 00 00 	lea    0x0(%edi,%eiz,1),%edi

00000280 <_decrypt>:
 * Return PK_ class error.
 */
int decrypt(__G__ passwrd)
    __GDEF
    ZCONST char *passwrd;
{
 280:	55                   	push   %ebp
 281:	57                   	push   %edi
 282:	56                   	push   %esi
 283:	53                   	push   %ebx
 284:	83 ec 3c             	sub    $0x3c,%esp
 287:	8b 5c 24 50          	mov    0x50(%esp),%ebx

    Trace((stdout, "\n[incnt = %d]: ", GLOBAL(incnt)));

    /* get header once (turn off "encrypted" flag temporarily so we don't
     * try to decrypt the same data twice) */
    GLOBAL(pInfo->encrypted) = FALSE;
 28b:	8b 83 d8 08 00 00    	mov    0x8d8(%ebx),%eax
 291:	80 60 18 fe          	andb   $0xfe,0x18(%eax)
    defer_leftover_input(__G);
 295:	89 1c 24             	mov    %ebx,(%esp)
 298:	e8 00 00 00 00       	call   29d <_decrypt+0x1d>
    for (n = 0; n < RAND_HEAD_LEN; n++) {
 29d:	c7 44 24 20 00 00 00 	movl   $0x0,0x20(%esp)
 2a4:	00 
 2a5:	eb 25                	jmp    2cc <_decrypt+0x4c>
        b = NEXTBYTE;
 2a7:	8b 83 e8 08 01 00    	mov    0x108e8(%ebx),%eax
 2ad:	8d 50 01             	lea    0x1(%eax),%edx
 2b0:	89 93 e8 08 01 00    	mov    %edx,0x108e8(%ebx)
 2b6:	31 d2                	xor    %edx,%edx
 2b8:	8a 10                	mov    (%eax),%dl
        h[n] = (uch)b;
 2ba:	8b 44 24 20          	mov    0x20(%esp),%eax
 2be:	88 54 04 24          	mov    %dl,0x24(%esp,%eax,1)

    /* get header once (turn off "encrypted" flag temporarily so we don't
     * try to decrypt the same data twice) */
    GLOBAL(pInfo->encrypted) = FALSE;
    defer_leftover_input(__G);
    for (n = 0; n < RAND_HEAD_LEN; n++) {
 2c2:	40                   	inc    %eax
 2c3:	89 44 24 20          	mov    %eax,0x20(%esp)
 2c7:	83 f8 0b             	cmp    $0xb,%eax
 2ca:	7f 24                	jg     2f0 <_decrypt+0x70>
        b = NEXTBYTE;
 2cc:	8b 83 ec 08 01 00    	mov    0x108ec(%ebx),%eax
 2d2:	85 c0                	test   %eax,%eax
 2d4:	8d 50 ff             	lea    -0x1(%eax),%edx
 2d7:	89 93 ec 08 01 00    	mov    %edx,0x108ec(%ebx)
 2dd:	7f c8                	jg     2a7 <_decrypt+0x27>
 2df:	89 1c 24             	mov    %ebx,(%esp)
 2e2:	e8 00 00 00 00       	call   2e7 <_decrypt+0x67>
 2e7:	89 c2                	mov    %eax,%edx
 2e9:	eb cf                	jmp    2ba <_decrypt+0x3a>
 2eb:	90                   	nop
 2ec:	8d 74 26 00          	lea    0x0(%esi,%eiz,1),%esi
        h[n] = (uch)b;
        Trace((stdout, " (%02x)", h[n]));
    }
    undefer_input(__G);
 2f0:	89 1c 24             	mov    %ebx,(%esp)
 2f3:	e8 00 00 00 00       	call   2f8 <_decrypt+0x78>
    GLOBAL(pInfo->encrypted) = TRUE;
 2f8:	8b 83 d8 08 00 00    	mov    0x8d8(%ebx),%eax
 2fe:	80 48 18 01          	orb    $0x1,0x18(%eax)

    if (GLOBAL(newzip)) { /* this is first encrypted member in this zipfile */
 302:	8b ab 84 00 00 00    	mov    0x84(%ebx),%ebp
 308:	85 ed                	test   %ebp,%ebp
 30a:	0f 84 f0 00 00 00    	je     400 <_decrypt+0x180>
        GLOBAL(newzip) = FALSE;
        if (passwrd != (char *)NULL) { /* user gave password on command line */
 310:	8b 7c 24 54          	mov    0x54(%esp),%edi
    }
    undefer_input(__G);
    GLOBAL(pInfo->encrypted) = TRUE;

    if (GLOBAL(newzip)) { /* this is first encrypted member in this zipfile */
        GLOBAL(newzip) = FALSE;
 314:	c7 83 84 00 00 00 00 	movl   $0x0,0x84(%ebx)
 31b:	00 00 00 
        if (passwrd != (char *)NULL) { /* user gave password on command line */
 31e:	85 ff                	test   %edi,%edi
 320:	0f 84 09 01 00 00    	je     42f <_decrypt+0x1af>
            if (!GLOBAL(key)) {
 326:	8b b3 e4 0a 01 00    	mov    0x10ae4(%ebx),%esi
 32c:	85 f6                	test   %esi,%esi
 32e:	0f 84 53 01 00 00    	je     487 <_decrypt+0x207>
        }
    }

    /* if have key already, test it; else allocate memory for it */
    if (GLOBAL(key)) {
        if (!testp(__G__ h))
 334:	8d 54 24 24          	lea    0x24(%esp),%edx
 338:	89 d8                	mov    %ebx,%eax
 33a:	e8 c1 fe ff ff       	call   200 <_testp>
 33f:	85 c0                	test   %eax,%eax
 341:	0f 84 a9 00 00 00    	je     3f0 <_decrypt+0x170>
            return PK_COOL;   /* existing password OK (else prompt for new) */
        else if (GLOBAL(nopwd))
 347:	8b 93 e8 0a 01 00    	mov    0x10ae8(%ebx),%edx
 34d:	85 d2                	test   %edx,%edx
 34f:	0f 85 bb 00 00 00    	jne    410 <_decrypt+0x190>
 355:	8b 83 e4 0a 01 00    	mov    0x10ae4(%ebx),%eax
            return PK_WARN;   /* user indicated no more prompting */
    } else if ((GLOBAL(key) = (char *)malloc(IZ_PWLEN+1)) == (char *)NULL)
        return PK_MEM2;

    /* try a few keys */
    n = 0;
 35b:	c7 44 24 20 00 00 00 	movl   $0x0,0x20(%esp)
 362:	00 
 363:	8d ab e0 09 01 00    	lea    0x109e0(%ebx),%ebp
 369:	8d 7c 24 20          	lea    0x20(%esp),%edi
 36d:	eb 38                	jmp    3a7 <_decrypt+0x127>
 36f:	90                   	nop
            free (GLOBAL(key));
            GLOBAL(key) = NULL;
            return PK_MEM2;
        }
        if (r != IZ_PW_ENTERED) {       /* user replied "skip" or "skip all" */
            *GLOBAL(key) = '\0';        /*   We try the NIL password, ... */
 370:	8b 83 e4 0a 01 00    	mov    0x10ae4(%ebx),%eax
            n = 0;                      /*   and cancel fetch for this item. */
        }
        if (!testp(__G__ h))
 376:	8d 54 24 24          	lea    0x24(%esp),%edx
            free (GLOBAL(key));
            GLOBAL(key) = NULL;
            return PK_MEM2;
        }
        if (r != IZ_PW_ENTERED) {       /* user replied "skip" or "skip all" */
            *GLOBAL(key) = '\0';        /*   We try the NIL password, ... */
 37a:	c6 00 00             	movb   $0x0,(%eax)
            n = 0;                      /*   and cancel fetch for this item. */
        }
        if (!testp(__G__ h))
 37d:	89 d8                	mov    %ebx,%eax
            GLOBAL(key) = NULL;
            return PK_MEM2;
        }
        if (r != IZ_PW_ENTERED) {       /* user replied "skip" or "skip all" */
            *GLOBAL(key) = '\0';        /*   We try the NIL password, ... */
            n = 0;                      /*   and cancel fetch for this item. */
 37f:	c7 44 24 20 00 00 00 	movl   $0x0,0x20(%esp)
 386:	00 
        }
        if (!testp(__G__ h))
 387:	e8 74 fe ff ff       	call   200 <_testp>
 38c:	85 c0                	test   %eax,%eax
 38e:	74 60                	je     3f0 <_decrypt+0x170>
            return PK_COOL;
        if (r == IZ_PW_CANCELALL)       /* User replied "Skip all" */
 390:	83 fe fe             	cmp    $0xfffffffe,%esi
 393:	0f 84 87 00 00 00    	je     420 <_decrypt+0x1a0>
            GLOBAL(nopwd) = TRUE;       /*   inhibit any further PW prompt! */
    } while (n > 0);
 399:	8b 44 24 20          	mov    0x20(%esp),%eax
 39d:	85 c0                	test   %eax,%eax
 39f:	7e 6f                	jle    410 <_decrypt+0x190>
 3a1:	8b 83 e4 0a 01 00    	mov    0x10ae4(%ebx),%eax
        return PK_MEM2;

    /* try a few keys */
    n = 0;
    do {
        r = (*G.decr_passwd)((zvoid *)&G, &n, GLOBAL(key), IZ_PWLEN+1,
 3a7:	89 6c 24 14          	mov    %ebp,0x14(%esp)
 3ab:	8b 93 04 09 01 00    	mov    0x10904(%ebx),%edx
 3b1:	c7 44 24 0c 51 00 00 	movl   $0x51,0xc(%esp)
 3b8:	00 
 3b9:	89 54 24 10          	mov    %edx,0x10(%esp)
 3bd:	89 44 24 08          	mov    %eax,0x8(%esp)
 3c1:	89 7c 24 04          	mov    %edi,0x4(%esp)
 3c5:	89 1c 24             	mov    %ebx,(%esp)
 3c8:	ff 93 50 0b 01 00    	call   *0x10b50(%ebx)
 3ce:	83 ec 18             	sub    $0x18,%esp
 3d1:	89 c6                	mov    %eax,%esi
                             GLOBAL(zipfn), GLOBAL(filename));
        if (r == IZ_PW_ERROR) {         /* internal error in fetch of PW */
 3d3:	83 f8 05             	cmp    $0x5,%eax
 3d6:	0f 84 8c 00 00 00    	je     468 <_decrypt+0x1e8>
            free (GLOBAL(key));
            GLOBAL(key) = NULL;
            return PK_MEM2;
        }
        if (r != IZ_PW_ENTERED) {       /* user replied "skip" or "skip all" */
 3dc:	85 c0                	test   %eax,%eax
 3de:	75 90                	jne    370 <_decrypt+0xf0>
            *GLOBAL(key) = '\0';        /*   We try the NIL password, ... */
            n = 0;                      /*   and cancel fetch for this item. */
        }
        if (!testp(__G__ h))
 3e0:	8d 54 24 24          	lea    0x24(%esp),%edx
 3e4:	89 d8                	mov    %ebx,%eax
 3e6:	e8 15 fe ff ff       	call   200 <_testp>
 3eb:	85 c0                	test   %eax,%eax
 3ed:	75 aa                	jne    399 <_decrypt+0x119>
 3ef:	90                   	nop
            GLOBAL(nopwd) = TRUE;       /*   inhibit any further PW prompt! */
    } while (n > 0);

    return PK_WARN;

} /* end function decrypt() */
 3f0:	83 c4 3c             	add    $0x3c,%esp
    }

    /* if have key already, test it; else allocate memory for it */
    if (GLOBAL(key)) {
        if (!testp(__G__ h))
            return PK_COOL;   /* existing password OK (else prompt for new) */
 3f3:	31 c0                	xor    %eax,%eax
            GLOBAL(nopwd) = TRUE;       /*   inhibit any further PW prompt! */
    } while (n > 0);

    return PK_WARN;

} /* end function decrypt() */
 3f5:	5b                   	pop    %ebx
 3f6:	5e                   	pop    %esi
 3f7:	5f                   	pop    %edi
 3f8:	5d                   	pop    %ebp
 3f9:	c3                   	ret    
 3fa:	8d b6 00 00 00 00    	lea    0x0(%esi),%esi
            GLOBAL(key) = (char *)NULL;
        }
    }

    /* if have key already, test it; else allocate memory for it */
    if (GLOBAL(key)) {
 400:	8b 8b e4 0a 01 00    	mov    0x10ae4(%ebx),%ecx
 406:	85 c9                	test   %ecx,%ecx
 408:	0f 85 26 ff ff ff    	jne    334 <_decrypt+0xb4>
 40e:	eb 31                	jmp    441 <_decrypt+0x1c1>
            GLOBAL(nopwd) = TRUE;       /*   inhibit any further PW prompt! */
    } while (n > 0);

    return PK_WARN;

} /* end function decrypt() */
 410:	83 c4 3c             	add    $0x3c,%esp
    /* if have key already, test it; else allocate memory for it */
    if (GLOBAL(key)) {
        if (!testp(__G__ h))
            return PK_COOL;   /* existing password OK (else prompt for new) */
        else if (GLOBAL(nopwd))
            return PK_WARN;   /* user indicated no more prompting */
 413:	b8 01 00 00 00       	mov    $0x1,%eax
            GLOBAL(nopwd) = TRUE;       /*   inhibit any further PW prompt! */
    } while (n > 0);

    return PK_WARN;

} /* end function decrypt() */
 418:	5b                   	pop    %ebx
 419:	5e                   	pop    %esi
 41a:	5f                   	pop    %edi
 41b:	5d                   	pop    %ebp
 41c:	c3                   	ret    
 41d:	8d 76 00             	lea    0x0(%esi),%esi
            n = 0;                      /*   and cancel fetch for this item. */
        }
        if (!testp(__G__ h))
            return PK_COOL;
        if (r == IZ_PW_CANCELALL)       /* User replied "Skip all" */
            GLOBAL(nopwd) = TRUE;       /*   inhibit any further PW prompt! */
 420:	c7 83 e8 0a 01 00 01 	movl   $0x1,0x10ae8(%ebx)
 427:	00 00 00 
 42a:	e9 6a ff ff ff       	jmp    399 <_decrypt+0x119>
                    (char *)NULL)
                    return PK_MEM2;
                strcpy(GLOBAL(key), passwrd);
                GLOBAL(nopwd) = TRUE;  /* inhibit password prompting! */
            }
        } else if (GLOBAL(key)) { /* get rid of previous zipfile's key */
 42f:	8b 83 e4 0a 01 00    	mov    0x10ae4(%ebx),%eax
 435:	85 c0                	test   %eax,%eax
 437:	74 08                	je     441 <_decrypt+0x1c1>
            free(GLOBAL(key));
 439:	89 04 24             	mov    %eax,(%esp)
 43c:	e8 00 00 00 00       	call   441 <_decrypt+0x1c1>
    if (GLOBAL(key)) {
        if (!testp(__G__ h))
            return PK_COOL;   /* existing password OK (else prompt for new) */
        else if (GLOBAL(nopwd))
            return PK_WARN;   /* user indicated no more prompting */
    } else if ((GLOBAL(key) = (char *)malloc(IZ_PWLEN+1)) == (char *)NULL)
 441:	c7 04 24 51 00 00 00 	movl   $0x51,(%esp)
 448:	e8 00 00 00 00       	call   44d <_decrypt+0x1cd>
 44d:	89 83 e4 0a 01 00    	mov    %eax,0x10ae4(%ebx)
 453:	85 c0                	test   %eax,%eax
 455:	0f 85 00 ff ff ff    	jne    35b <_decrypt+0xdb>
        r = (*G.decr_passwd)((zvoid *)&G, &n, GLOBAL(key), IZ_PWLEN+1,
                             GLOBAL(zipfn), GLOBAL(filename));
        if (r == IZ_PW_ERROR) {         /* internal error in fetch of PW */
            free (GLOBAL(key));
            GLOBAL(key) = NULL;
            return PK_MEM2;
 45b:	b8 05 00 00 00       	mov    $0x5,%eax
            GLOBAL(nopwd) = TRUE;       /*   inhibit any further PW prompt! */
    } while (n > 0);

    return PK_WARN;

} /* end function decrypt() */
 460:	83 c4 3c             	add    $0x3c,%esp
 463:	5b                   	pop    %ebx
 464:	5e                   	pop    %esi
 465:	5f                   	pop    %edi
 466:	5d                   	pop    %ebp
 467:	c3                   	ret    
    n = 0;
    do {
        r = (*G.decr_passwd)((zvoid *)&G, &n, GLOBAL(key), IZ_PWLEN+1,
                             GLOBAL(zipfn), GLOBAL(filename));
        if (r == IZ_PW_ERROR) {         /* internal error in fetch of PW */
            free (GLOBAL(key));
 468:	8b 83 e4 0a 01 00    	mov    0x10ae4(%ebx),%eax
 46e:	89 04 24             	mov    %eax,(%esp)
 471:	e8 00 00 00 00       	call   476 <_decrypt+0x1f6>
            GLOBAL(key) = NULL;
 476:	c7 83 e4 0a 01 00 00 	movl   $0x0,0x10ae4(%ebx)
 47d:	00 00 00 
            return PK_MEM2;
 480:	b8 05 00 00 00       	mov    $0x5,%eax
 485:	eb d9                	jmp    460 <_decrypt+0x1e0>

    if (GLOBAL(newzip)) { /* this is first encrypted member in this zipfile */
        GLOBAL(newzip) = FALSE;
        if (passwrd != (char *)NULL) { /* user gave password on command line */
            if (!GLOBAL(key)) {
                if ((GLOBAL(key) = (char *)malloc(strlen(passwrd)+1)) ==
 487:	8b 44 24 54          	mov    0x54(%esp),%eax
 48b:	89 04 24             	mov    %eax,(%esp)
 48e:	e8 00 00 00 00       	call   493 <_decrypt+0x213>
 493:	40                   	inc    %eax
 494:	89 04 24             	mov    %eax,(%esp)
 497:	e8 00 00 00 00       	call   49c <_decrypt+0x21c>
 49c:	89 83 e4 0a 01 00    	mov    %eax,0x10ae4(%ebx)
 4a2:	85 c0                	test   %eax,%eax
 4a4:	74 b5                	je     45b <_decrypt+0x1db>
                    (char *)NULL)
                    return PK_MEM2;
                strcpy(GLOBAL(key), passwrd);
 4a6:	8b 4c 24 54          	mov    0x54(%esp),%ecx
 4aa:	89 04 24             	mov    %eax,(%esp)
 4ad:	89 4c 24 04          	mov    %ecx,0x4(%esp)
 4b1:	e8 00 00 00 00       	call   4b6 <_decrypt+0x236>
                GLOBAL(nopwd) = TRUE;  /* inhibit password prompting! */
 4b6:	c7 83 e8 0a 01 00 01 	movl   $0x1,0x10ae8(%ebx)
 4bd:	00 00 00 
 4c0:	e9 6f fe ff ff       	jmp    334 <_decrypt+0xb4>
 4c5:	90                   	nop
 4c6:	90                   	nop
 4c7:	90                   	nop
 4c8:	90                   	nop
 4c9:	90                   	nop
 4ca:	90                   	nop
 4cb:	90                   	nop
 4cc:	90                   	nop
 4cd:	90                   	nop
 4ce:	90                   	nop
 4cf:	90                   	nop

explode.o:     file format pe-i386


Disassembly of section .text:

00000000 <_get_tree>:
unsigned *l;            /* bit lengths */
unsigned n;             /* number expected */
/* Get the bit lengths for a code representation from the compressed
   stream.  If get_tree() returns 4, then there is an error in the data.
   Otherwise zero is returned. */
{
       0:	55                   	push   %ebp
       1:	57                   	push   %edi
       2:	56                   	push   %esi
       3:	53                   	push   %ebx
       4:	83 ec 2c             	sub    $0x2c,%esp
       7:	89 d5                	mov    %edx,%ebp
  unsigned j;           /* number of codes */
  unsigned b;           /* bit length for those codes */


  /* get bit lengths */
  i = NEXTBYTE + 1;                     /* length/count pairs to read */
       9:	8b 90 ec 08 01 00    	mov    0x108ec(%eax),%edx
unsigned *l;            /* bit lengths */
unsigned n;             /* number expected */
/* Get the bit lengths for a code representation from the compressed
   stream.  If get_tree() returns 4, then there is an error in the data.
   Otherwise zero is returned. */
{
       f:	89 c7                	mov    %eax,%edi
      11:	89 4c 24 18          	mov    %ecx,0x18(%esp)
  unsigned j;           /* number of codes */
  unsigned b;           /* bit length for those codes */


  /* get bit lengths */
  i = NEXTBYTE + 1;                     /* length/count pairs to read */
      15:	85 d2                	test   %edx,%edx
      17:	8d 42 ff             	lea    -0x1(%edx),%eax
      1a:	89 87 ec 08 01 00    	mov    %eax,0x108ec(%edi)
      20:	0f 8e b4 00 00 00    	jle    da <_get_tree+0xda>
      26:	8b 97 e8 08 01 00    	mov    0x108e8(%edi),%edx
      2c:	8d 4a 01             	lea    0x1(%edx),%ecx
      2f:	89 8f e8 08 01 00    	mov    %ecx,0x108e8(%edi)
      35:	0f b6 32             	movzbl (%edx),%esi
      38:	81 e6 ff 00 00 00    	and    $0xff,%esi
      3e:	8d 76 01             	lea    0x1(%esi),%esi
      41:	89 74 24 1c          	mov    %esi,0x1c(%esp)
unsigned *l;            /* bit lengths */
unsigned n;             /* number expected */
/* Get the bit lengths for a code representation from the compressed
   stream.  If get_tree() returns 4, then there is an error in the data.
   Otherwise zero is returned. */
{
      45:	31 d2                	xor    %edx,%edx

  /* get bit lengths */
  i = NEXTBYTE + 1;                     /* length/count pairs to read */
  k = 0;                                /* next code */
  do {
    b = ((j = NEXTBYTE) & 0xf) + 1;     /* bits in code (1..16) */
      47:	85 c0                	test   %eax,%eax
unsigned *l;            /* bit lengths */
unsigned n;             /* number expected */
/* Get the bit lengths for a code representation from the compressed
   stream.  If get_tree() returns 4, then there is an error in the data.
   Otherwise zero is returned. */
{
      49:	89 d6                	mov    %edx,%esi

  /* get bit lengths */
  i = NEXTBYTE + 1;                     /* length/count pairs to read */
  k = 0;                                /* next code */
  do {
    b = ((j = NEXTBYTE) & 0xf) + 1;     /* bits in code (1..16) */
      4b:	8d 50 ff             	lea    -0x1(%eax),%edx
      4e:	89 97 ec 08 01 00    	mov    %edx,0x108ec(%edi)
      54:	7e 5d                	jle    b3 <_get_tree+0xb3>
      56:	8b 87 e8 08 01 00    	mov    0x108e8(%edi),%eax
      5c:	8d 50 01             	lea    0x1(%eax),%edx
      5f:	89 97 e8 08 01 00    	mov    %edx,0x108e8(%edi)
      65:	8a 18                	mov    (%eax),%bl
      67:	81 e3 ff 00 00 00    	and    $0xff,%ebx
      6d:	89 d8                	mov    %ebx,%eax
      6f:	89 c3                	mov    %eax,%ebx
    j = ((j & 0xf0) >> 4) + 1;          /* codes with those bits (1..16) */
      71:	25 f0 00 00 00       	and    $0xf0,%eax
      76:	89 c1                	mov    %eax,%ecx

  /* get bit lengths */
  i = NEXTBYTE + 1;                     /* length/count pairs to read */
  k = 0;                                /* next code */
  do {
    b = ((j = NEXTBYTE) & 0xf) + 1;     /* bits in code (1..16) */
      78:	83 e3 0f             	and    $0xf,%ebx
    j = ((j & 0xf0) >> 4) + 1;          /* codes with those bits (1..16) */
      7b:	c1 e9 04             	shr    $0x4,%ecx

  /* get bit lengths */
  i = NEXTBYTE + 1;                     /* length/count pairs to read */
  k = 0;                                /* next code */
  do {
    b = ((j = NEXTBYTE) & 0xf) + 1;     /* bits in code (1..16) */
      7e:	43                   	inc    %ebx
    j = ((j & 0xf0) >> 4) + 1;          /* codes with those bits (1..16) */
    if (k + j > n)
      7f:	8d 44 0e 01          	lea    0x1(%esi,%ecx,1),%eax
      83:	3b 44 24 18          	cmp    0x18(%esp),%eax
      87:	77 3a                	ja     c3 <_get_tree+0xc3>
      89:	41                   	inc    %ecx
      8a:	8d 54 b5 00          	lea    0x0(%ebp,%esi,4),%edx
      8e:	31 c0                	xor    %eax,%eax
      return 4;                         /* don't overflow l[] */
    do {
      l[k++] = b;
      90:	89 1c 82             	mov    %ebx,(%edx,%eax,4)
      93:	40                   	inc    %eax
    } while (--j);
      94:	39 c8                	cmp    %ecx,%eax
      96:	75 f8                	jne    90 <_get_tree+0x90>
      98:	01 c6                	add    %eax,%esi
  } while (--i);
      9a:	ff 4c 24 1c          	decl   0x1c(%esp)
      9e:	74 1d                	je     bd <_get_tree+0xbd>
      a0:	8b 87 ec 08 01 00    	mov    0x108ec(%edi),%eax

  /* get bit lengths */
  i = NEXTBYTE + 1;                     /* length/count pairs to read */
  k = 0;                                /* next code */
  do {
    b = ((j = NEXTBYTE) & 0xf) + 1;     /* bits in code (1..16) */
      a6:	85 c0                	test   %eax,%eax
      a8:	8d 50 ff             	lea    -0x1(%eax),%edx
      ab:	89 97 ec 08 01 00    	mov    %edx,0x108ec(%edi)
      b1:	7f a3                	jg     56 <_get_tree+0x56>
      b3:	89 3c 24             	mov    %edi,(%esp)
      b6:	e8 00 00 00 00       	call   bb <_get_tree+0xbb>
      bb:	eb b2                	jmp    6f <_get_tree+0x6f>
      return 4;                         /* don't overflow l[] */
    do {
      l[k++] = b;
    } while (--j);
  } while (--i);
  return k != n ? 4 : 0;                /* should have read n of them */
      bd:	39 74 24 18          	cmp    %esi,0x18(%esp)
      c1:	74 0d                	je     d0 <_get_tree+0xd0>
}
      c3:	83 c4 2c             	add    $0x2c,%esp
  k = 0;                                /* next code */
  do {
    b = ((j = NEXTBYTE) & 0xf) + 1;     /* bits in code (1..16) */
    j = ((j & 0xf0) >> 4) + 1;          /* codes with those bits (1..16) */
    if (k + j > n)
      return 4;                         /* don't overflow l[] */
      c6:	b8 04 00 00 00       	mov    $0x4,%eax
    do {
      l[k++] = b;
    } while (--j);
  } while (--i);
  return k != n ? 4 : 0;                /* should have read n of them */
}
      cb:	5b                   	pop    %ebx
      cc:	5e                   	pop    %esi
      cd:	5f                   	pop    %edi
      ce:	5d                   	pop    %ebp
      cf:	c3                   	ret    
      d0:	83 c4 2c             	add    $0x2c,%esp
      return 4;                         /* don't overflow l[] */
    do {
      l[k++] = b;
    } while (--j);
  } while (--i);
  return k != n ? 4 : 0;                /* should have read n of them */
      d3:	31 c0                	xor    %eax,%eax
}
      d5:	5b                   	pop    %ebx
      d6:	5e                   	pop    %esi
      d7:	5f                   	pop    %edi
      d8:	5d                   	pop    %ebp
      d9:	c3                   	ret    
  unsigned j;           /* number of codes */
  unsigned b;           /* bit length for those codes */


  /* get bit lengths */
  i = NEXTBYTE + 1;                     /* length/count pairs to read */
      da:	89 3c 24             	mov    %edi,(%esp)
      dd:	e8 00 00 00 00       	call   e2 <_get_tree+0xe2>
      e2:	40                   	inc    %eax
      e3:	89 44 24 1c          	mov    %eax,0x1c(%esp)
      e7:	8b 87 ec 08 01 00    	mov    0x108ec(%edi),%eax
      ed:	e9 53 ff ff ff       	jmp    45 <_get_tree+0x45>
      f2:	8d b4 26 00 00 00 00 	lea    0x0(%esi,%eiz,1),%esi
      f9:	8d bc 27 00 00 00 00 	lea    0x0(%edi,%eiz,1),%edi

00000100 <_explode>:
   the tables needed to decode them (using huft_build() from inflate.c),
   and call the appropriate routine for the type of data in the remainder
   of the stream.  The four routines are nearly identical, differing only
   in whether the literal is decoded or simply read in, and in how many
   bits are read in, uncoded, for the low distance bits. */
{
     100:	55                   	push   %ebp
     101:	57                   	push   %edi
     102:	56                   	push   %esi
     103:	53                   	push   %ebx
     104:	81 ec 9c 04 00 00    	sub    $0x49c,%esp
     10a:	8b b4 24 b0 04 00 00 	mov    0x4b0(%esp),%esi
  unsigned bd;          /* bits for td */
  unsigned bdl;         /* number of uncoded lower distance bits */
  unsigned l[256];      /* bit lengths for codes */

#if (defined(DLL) && !defined(NO_SLIDE_REDIR))
  if (G.redirect_slide)
     111:	8b be a8 00 00 00    	mov    0xa8(%esi),%edi
     117:	85 ff                	test   %edi,%edi
     119:	0f 84 19 01 00 00    	je     238 <_explode+0x138>
    /* For 16-bit systems, it has already been checked at DLL entrance that
     * the buffer size in G.redirect_size does not exceed unsigned range.
     */
    G._wsize = G.redirect_size, redirSlide = G.redirect_buffer;
     11f:	8b 86 b0 00 00 00    	mov    0xb0(%esi),%eax
     125:	89 86 ac 00 00 00    	mov    %eax,0xac(%esi)
     12b:	8b 86 b4 00 00 00    	mov    0xb4(%esi),%eax
     131:	89 86 bc 00 00 00    	mov    %eax,0xbc(%esi)
     I would have to select different bl, bd, and bb values for different
     compressed file sizes.  I was surprised to find out that the values of
     7, 7, and 9 worked best over a very wide range of sizes, except that
     bd = 8 worked marginally better for large compressed sizes. */
  bl = 7;
  bd = (G.csize + G.incnt) > 200000L ? 8 : 7;
     137:	8b 86 ec 08 01 00    	mov    0x108ec(%esi),%eax
     13d:	8b 9e 90 00 00 00    	mov    0x90(%esi),%ebx
     143:	01 d8                	add    %ebx,%eax
  /* Tune base table sizes.  Note: I thought that to truly optimize speed,
     I would have to select different bl, bd, and bb values for different
     compressed file sizes.  I was surprised to find out that the values of
     7, 7, and 9 worked best over a very wide range of sizes, except that
     bd = 8 worked marginally better for large compressed sizes. */
  bl = 7;
     145:	c7 84 24 88 00 00 00 	movl   $0x7,0x88(%esp)
     14c:	07 00 00 00 
  bd = (G.csize + G.incnt) > 200000L ? 8 : 7;
     150:	3d 40 0d 03 00       	cmp    $0x30d40,%eax
     155:	0f 9f c0             	setg   %al
     158:	25 ff 00 00 00       	and    $0xff,%eax
     15d:	83 c0 07             	add    $0x7,%eax

#ifdef DEBUG
  G.hufts = 0;                    /* initialize huft's malloc'ed */
#endif

  if (G.lrec.general_purpose_bit_flag & 4)
     160:	f6 86 32 09 01 00 04 	testb  $0x4,0x10932(%esi)
     I would have to select different bl, bd, and bb values for different
     compressed file sizes.  I was surprised to find out that the values of
     7, 7, and 9 worked best over a very wide range of sizes, except that
     bd = 8 worked marginally better for large compressed sizes. */
  bl = 7;
  bd = (G.csize + G.incnt) > 200000L ? 8 : 7;
     167:	89 84 24 8c 00 00 00 	mov    %eax,0x8c(%esp)

#ifdef DEBUG
  G.hufts = 0;                    /* initialize huft's malloc'ed */
#endif

  if (G.lrec.general_purpose_bit_flag & 4)
     16e:	74 40                	je     1b0 <_explode+0xb0>
  /* With literal tree--minimum match length is 3 */
  {
    bb = 9;                     /* base table size for literals */
    if ((r = get_tree(__G__ l, 256)) != 0)
     170:	8d 9c 24 90 00 00 00 	lea    0x90(%esp),%ebx
     177:	b9 00 01 00 00       	mov    $0x100,%ecx
     17c:	89 da                	mov    %ebx,%edx
     17e:	89 f0                	mov    %esi,%eax
#endif

  if (G.lrec.general_purpose_bit_flag & 4)
  /* With literal tree--minimum match length is 3 */
  {
    bb = 9;                     /* base table size for literals */
     180:	c7 84 24 84 00 00 00 	movl   $0x9,0x84(%esp)
     187:	09 00 00 00 
    if ((r = get_tree(__G__ l, 256)) != 0)
     18b:	e8 70 fe ff ff       	call   0 <_get_tree>
     190:	89 44 24 24          	mov    %eax,0x24(%esp)
     194:	85 c0                	test   %eax,%eax
     196:	0f 84 b7 00 00 00    	je     253 <_explode+0x153>

  huft_free(td);
  huft_free(tl);
  Trace((stderr, "<%u > ", G.hufts));
  return (int)r;
}
     19c:	8b 44 24 24          	mov    0x24(%esp),%eax
     1a0:	81 c4 9c 04 00 00    	add    $0x49c,%esp
     1a6:	5b                   	pop    %ebx
     1a7:	5e                   	pop    %esi
     1a8:	5f                   	pop    %edi
     1a9:	5d                   	pop    %ebp
     1aa:	c3                   	ret    
     1ab:	90                   	nop
     1ac:	8d 74 26 00          	lea    0x0(%esi,%eiz,1),%esi
  }
  else
  /* No literal tree--minimum match length is 2 */
  {
    tb = (struct huft *)NULL;
    if ((r = get_tree(__G__ l, 64)) != 0)
     1b0:	8d 9c 24 90 00 00 00 	lea    0x90(%esp),%ebx
     1b7:	b9 40 00 00 00       	mov    $0x40,%ecx
     1bc:	89 da                	mov    %ebx,%edx
     1be:	89 f0                	mov    %esi,%eax
    }
  }
  else
  /* No literal tree--minimum match length is 2 */
  {
    tb = (struct huft *)NULL;
     1c0:	c7 44 24 78 00 00 00 	movl   $0x0,0x78(%esp)
     1c7:	00 
    if ((r = get_tree(__G__ l, 64)) != 0)
     1c8:	e8 33 fe ff ff       	call   0 <_get_tree>
     1cd:	89 44 24 24          	mov    %eax,0x24(%esp)
     1d1:	85 c0                	test   %eax,%eax
     1d3:	75 c7                	jne    19c <_explode+0x9c>
      return (int)r;
    if ((r = huft_build(__G__ l, 64, 0, cplen2, extra, &tl, &bl)) != 0)
     1d5:	8d 84 24 88 00 00 00 	lea    0x88(%esp),%eax
     1dc:	c7 44 24 14 00 01 00 	movl   $0x100,0x14(%esp)
     1e3:	00 
     1e4:	89 44 24 1c          	mov    %eax,0x1c(%esp)
     1e8:	8d 44 24 7c          	lea    0x7c(%esp),%eax
     1ec:	89 44 24 18          	mov    %eax,0x18(%esp)
     1f0:	c7 44 24 10 c0 01 00 	movl   $0x1c0,0x10(%esp)
     1f7:	00 
     1f8:	c7 44 24 0c 00 00 00 	movl   $0x0,0xc(%esp)
     1ff:	00 
     200:	c7 44 24 08 40 00 00 	movl   $0x40,0x8(%esp)
     207:	00 
     208:	89 5c 24 04          	mov    %ebx,0x4(%esp)
     20c:	89 34 24             	mov    %esi,(%esp)
     20f:	e8 00 00 00 00       	call   214 <_explode+0x114>
     214:	89 44 24 24          	mov    %eax,0x24(%esp)
     218:	85 c0                	test   %eax,%eax
     21a:	0f 84 96 00 00 00    	je     2b6 <_explode+0x1b6>
    {
      if (r == 1)
     220:	48                   	dec    %eax
     221:	0f 85 75 ff ff ff    	jne    19c <_explode+0x9c>
  } else {
    r = explode_nolit(__G__ tl, td, bl, bd, bdl);
  }

  huft_free(td);
  huft_free(tl);
     227:	8b 44 24 7c          	mov    0x7c(%esp),%eax
     22b:	89 04 24             	mov    %eax,(%esp)
     22e:	e8 00 00 00 00       	call   233 <_explode+0x133>
  Trace((stderr, "<%u > ", G.hufts));
  return (int)r;
     233:	e9 64 ff ff ff       	jmp    19c <_explode+0x9c>
    /* For systems using 16-bit ints, reduce the used buffer size below
     * the limit of "unsigned int" numbers range.
     */
    G._wsize = WSIZE>>1, redirSlide = slide;
#else /* !(USE_DEFLATE64 && INT_16BIT) */
    G._wsize = WSIZE, redirSlide = slide;
     238:	8d 86 dc 08 00 00    	lea    0x8dc(%esi),%eax
     23e:	c7 86 ac 00 00 00 00 	movl   $0x10000,0xac(%esi)
     245:	00 01 00 
     248:	89 86 bc 00 00 00    	mov    %eax,0xbc(%esi)
     24e:	e9 e4 fe ff ff       	jmp    137 <_explode+0x37>
  /* With literal tree--minimum match length is 3 */
  {
    bb = 9;                     /* base table size for literals */
    if ((r = get_tree(__G__ l, 256)) != 0)
      return (int)r;
    if ((r = huft_build(__G__ l, 256, 256, NULL, NULL, &tb, &bb)) != 0)
     253:	8d 84 24 84 00 00 00 	lea    0x84(%esp),%eax
     25a:	c7 44 24 14 00 00 00 	movl   $0x0,0x14(%esp)
     261:	00 
     262:	89 44 24 1c          	mov    %eax,0x1c(%esp)
     266:	8d 44 24 78          	lea    0x78(%esp),%eax
     26a:	89 44 24 18          	mov    %eax,0x18(%esp)
     26e:	c7 44 24 10 00 00 00 	movl   $0x0,0x10(%esp)
     275:	00 
     276:	c7 44 24 0c 00 01 00 	movl   $0x100,0xc(%esp)
     27d:	00 
     27e:	c7 44 24 08 00 01 00 	movl   $0x100,0x8(%esp)
     285:	00 
     286:	89 5c 24 04          	mov    %ebx,0x4(%esp)
     28a:	89 34 24             	mov    %esi,(%esp)
     28d:	e8 00 00 00 00       	call   292 <_explode+0x192>
     292:	89 44 24 24          	mov    %eax,0x24(%esp)
     296:	85 c0                	test   %eax,%eax
     298:	0f 84 c2 00 00 00    	je     360 <_explode+0x260>
    {
      if (r == 1)
     29e:	48                   	dec    %eax
     29f:	0f 85 f7 fe ff ff    	jne    19c <_explode+0x9c>
    }
    if ((r = huft_build(__G__ l, 64, 0, cplen3, extra, &tl, &bl)) != 0)
    {
      if (r == 1)
        huft_free(tl);
      huft_free(tb);
     2a5:	8b 44 24 78          	mov    0x78(%esp),%eax
     2a9:	89 04 24             	mov    %eax,(%esp)
     2ac:	e8 00 00 00 00       	call   2b1 <_explode+0x1b1>
      return (int)r;
     2b1:	e9 e6 fe ff ff       	jmp    19c <_explode+0x9c>
        huft_free(tl);
      return (int)r;
    }
  }

  if ((r = get_tree(__G__ l, 64)) != 0) {
     2b6:	b9 40 00 00 00       	mov    $0x40,%ecx
     2bb:	89 da                	mov    %ebx,%edx
     2bd:	89 f0                	mov    %esi,%eax
     2bf:	e8 3c fd ff ff       	call   0 <_get_tree>
     2c4:	89 44 24 24          	mov    %eax,0x24(%esp)
     2c8:	85 c0                	test   %eax,%eax
     2ca:	0f 85 20 03 00 00    	jne    5f0 <_explode+0x4f0>
    return (int)r;
  }
  if (G.lrec.general_purpose_bit_flag & 2)      /* true if 8K */
  {
    bdl = 7;
    r = huft_build(__G__ l, 64, 0, cpdist8, extra, &td, &bd);
     2d0:	8d 84 24 8c 00 00 00 	lea    0x8c(%esp),%eax
  if ((r = get_tree(__G__ l, 64)) != 0) {
    huft_free(tl);
    if (tb != (struct huft *)NULL) huft_free(tb);
    return (int)r;
  }
  if (G.lrec.general_purpose_bit_flag & 2)      /* true if 8K */
     2d7:	f6 86 32 09 01 00 02 	testb  $0x2,0x10932(%esi)
  {
    bdl = 7;
    r = huft_build(__G__ l, 64, 0, cpdist8, extra, &td, &bd);
     2de:	89 44 24 1c          	mov    %eax,0x1c(%esp)
     2e2:	8d 84 24 80 00 00 00 	lea    0x80(%esp),%eax
     2e9:	89 44 24 18          	mov    %eax,0x18(%esp)
     2ed:	c7 44 24 14 00 01 00 	movl   $0x100,0x14(%esp)
     2f4:	00 
  if ((r = get_tree(__G__ l, 64)) != 0) {
    huft_free(tl);
    if (tb != (struct huft *)NULL) huft_free(tb);
    return (int)r;
  }
  if (G.lrec.general_purpose_bit_flag & 2)      /* true if 8K */
     2f5:	0f 85 e5 00 00 00    	jne    3e0 <_explode+0x2e0>
    r = huft_build(__G__ l, 64, 0, cpdist8, extra, &td, &bd);
  }
  else                                          /* else 4K */
  {
    bdl = 6;
    r = huft_build(__G__ l, 64, 0, cpdist4, extra, &td, &bd);
     2fb:	89 5c 24 04          	mov    %ebx,0x4(%esp)
     2ff:	c7 44 24 10 80 00 00 	movl   $0x80,0x10(%esp)
     306:	00 
     307:	c7 44 24 0c 00 00 00 	movl   $0x0,0xc(%esp)
     30e:	00 
     30f:	c7 44 24 08 40 00 00 	movl   $0x40,0x8(%esp)
     316:	00 
     317:	89 34 24             	mov    %esi,(%esp)
     31a:	e8 00 00 00 00       	call   31f <_explode+0x21f>
    bdl = 7;
    r = huft_build(__G__ l, 64, 0, cpdist8, extra, &td, &bd);
  }
  else                                          /* else 4K */
  {
    bdl = 6;
     31f:	c7 44 24 34 06 00 00 	movl   $0x6,0x34(%esp)
     326:	00 
    r = huft_build(__G__ l, 64, 0, cpdist4, extra, &td, &bd);
     327:	89 c3                	mov    %eax,%ebx
  }
  if (r != 0)
     329:	85 db                	test   %ebx,%ebx
     32b:	0f 84 e2 00 00 00    	je     413 <_explode+0x313>
  {
    if (r == 1)
     331:	83 fb 01             	cmp    $0x1,%ebx
     334:	0f 84 35 0c 00 00    	je     f6f <_explode+0xe6f>
      huft_free(td);
    huft_free(tl);
     33a:	8b 44 24 7c          	mov    0x7c(%esp),%eax
     33e:	89 04 24             	mov    %eax,(%esp)
     341:	e8 00 00 00 00       	call   346 <_explode+0x246>
    if (tb != (struct huft *)NULL) huft_free(tb);
     346:	8b 44 24 78          	mov    0x78(%esp),%eax
     34a:	85 c0                	test   %eax,%eax
     34c:	74 08                	je     356 <_explode+0x256>
     34e:	89 04 24             	mov    %eax,(%esp)
     351:	e8 00 00 00 00       	call   356 <_explode+0x256>
    return (int)r;
     356:	89 5c 24 24          	mov    %ebx,0x24(%esp)
     35a:	e9 3d fe ff ff       	jmp    19c <_explode+0x9c>
     35f:	90                   	nop
    {
      if (r == 1)
        huft_free(tb);
      return (int)r;
    }
    if ((r = get_tree(__G__ l, 64)) != 0) {
     360:	b9 40 00 00 00       	mov    $0x40,%ecx
     365:	89 da                	mov    %ebx,%edx
     367:	89 f0                	mov    %esi,%eax
     369:	e8 92 fc ff ff       	call   0 <_get_tree>
     36e:	89 44 24 24          	mov    %eax,0x24(%esp)
     372:	85 c0                	test   %eax,%eax
     374:	0f 85 2b ff ff ff    	jne    2a5 <_explode+0x1a5>
      huft_free(tb);
      return (int)r;
    }
    if ((r = huft_build(__G__ l, 64, 0, cplen3, extra, &tl, &bl)) != 0)
     37a:	8d 84 24 88 00 00 00 	lea    0x88(%esp),%eax
     381:	c7 44 24 14 00 01 00 	movl   $0x100,0x14(%esp)
     388:	00 
     389:	89 44 24 1c          	mov    %eax,0x1c(%esp)
     38d:	8d 44 24 7c          	lea    0x7c(%esp),%eax
     391:	89 44 24 18          	mov    %eax,0x18(%esp)
     395:	c7 44 24 10 40 01 00 	movl   $0x140,0x10(%esp)
     39c:	00 
     39d:	c7 44 24 0c 00 00 00 	movl   $0x0,0xc(%esp)
     3a4:	00 
     3a5:	c7 44 24 08 40 00 00 	movl   $0x40,0x8(%esp)
     3ac:	00 
     3ad:	89 5c 24 04          	mov    %ebx,0x4(%esp)
     3b1:	89 34 24             	mov    %esi,(%esp)
     3b4:	e8 00 00 00 00       	call   3b9 <_explode+0x2b9>
     3b9:	89 44 24 24          	mov    %eax,0x24(%esp)
     3bd:	85 c0                	test   %eax,%eax
     3bf:	0f 84 f1 fe ff ff    	je     2b6 <_explode+0x1b6>
    {
      if (r == 1)
     3c5:	48                   	dec    %eax
     3c6:	0f 85 d9 fe ff ff    	jne    2a5 <_explode+0x1a5>
        huft_free(tl);
     3cc:	8b 44 24 7c          	mov    0x7c(%esp),%eax
     3d0:	89 04 24             	mov    %eax,(%esp)
     3d3:	e8 00 00 00 00       	call   3d8 <_explode+0x2d8>
     3d8:	e9 c8 fe ff ff       	jmp    2a5 <_explode+0x1a5>
     3dd:	8d 76 00             	lea    0x0(%esi),%esi
    return (int)r;
  }
  if (G.lrec.general_purpose_bit_flag & 2)      /* true if 8K */
  {
    bdl = 7;
    r = huft_build(__G__ l, 64, 0, cpdist8, extra, &td, &bd);
     3e0:	89 5c 24 04          	mov    %ebx,0x4(%esp)
     3e4:	c7 44 24 10 00 00 00 	movl   $0x0,0x10(%esp)
     3eb:	00 
     3ec:	c7 44 24 0c 00 00 00 	movl   $0x0,0xc(%esp)
     3f3:	00 
     3f4:	c7 44 24 08 40 00 00 	movl   $0x40,0x8(%esp)
     3fb:	00 
     3fc:	89 34 24             	mov    %esi,(%esp)
     3ff:	e8 00 00 00 00       	call   404 <_explode+0x304>
    if (tb != (struct huft *)NULL) huft_free(tb);
    return (int)r;
  }
  if (G.lrec.general_purpose_bit_flag & 2)      /* true if 8K */
  {
    bdl = 7;
     404:	c7 44 24 34 07 00 00 	movl   $0x7,0x34(%esp)
     40b:	00 
    r = huft_build(__G__ l, 64, 0, cpdist8, extra, &td, &bd);
     40c:	89 c3                	mov    %eax,%ebx
     40e:	e9 16 ff ff ff       	jmp    329 <_explode+0x229>
    huft_free(tl);
    if (tb != (struct huft *)NULL) huft_free(tb);
    return (int)r;
  }

  if (tb != NULL) {
     413:	8b 44 24 78          	mov    0x78(%esp),%eax
     417:	89 44 24 44          	mov    %eax,0x44(%esp)
     41b:	85 c0                	test   %eax,%eax
    r = explode_lit(__G__ tb, tl, td, bb, bl, bd, bdl);
     41d:	8b 84 24 8c 00 00 00 	mov    0x8c(%esp),%eax
    huft_free(tl);
    if (tb != (struct huft *)NULL) huft_free(tb);
    return (int)r;
  }

  if (tb != NULL) {
     424:	0f 84 c9 07 00 00    	je     bf3 <_explode+0xaf3>
    r = explode_lit(__G__ tb, tl, td, bb, bl, bd, bdl);
     42a:	89 44 24 48          	mov    %eax,0x48(%esp)
  /* explode the coded data */
  b = k = w = 0;                /* initialize bit buffer, window */
  u = 1;                        /* buffer unflushed */
  mb = mask_bits[bb];           /* precompute masks for speed */
  ml = mask_bits[bl];
  md = mask_bits[bd];
     42e:	8b 04 85 00 00 00 00 	mov    0x0(,%eax,4),%eax
     435:	89 44 24 58          	mov    %eax,0x58(%esp)
  mdl = mask_bits[bdl];
     439:	8b 44 24 34          	mov    0x34(%esp),%eax
    if (tb != (struct huft *)NULL) huft_free(tb);
    return (int)r;
  }

  if (tb != NULL) {
    r = explode_lit(__G__ tb, tl, td, bb, bl, bd, bdl);
     43d:	8b 9c 24 88 00 00 00 	mov    0x88(%esp),%ebx
     444:	8b bc 24 84 00 00 00 	mov    0x84(%esp),%edi
     44b:	8b 8c 24 80 00 00 00 	mov    0x80(%esp),%ecx
  b = k = w = 0;                /* initialize bit buffer, window */
  u = 1;                        /* buffer unflushed */
  mb = mask_bits[bb];           /* precompute masks for speed */
  ml = mask_bits[bl];
  md = mask_bits[bd];
  mdl = mask_bits[bdl];
     452:	8b 04 85 00 00 00 00 	mov    0x0(,%eax,4),%eax
    if (tb != (struct huft *)NULL) huft_free(tb);
    return (int)r;
  }

  if (tb != NULL) {
    r = explode_lit(__G__ tb, tl, td, bb, bl, bd, bdl);
     459:	89 5c 24 5c          	mov    %ebx,0x5c(%esp)
     45d:	89 7c 24 4c          	mov    %edi,0x4c(%esp)
     461:	89 4c 24 50          	mov    %ecx,0x50(%esp)


  /* explode the coded data */
  b = k = w = 0;                /* initialize bit buffer, window */
  u = 1;                        /* buffer unflushed */
  mb = mask_bits[bb];           /* precompute masks for speed */
     465:	8b 3c bd 00 00 00 00 	mov    0x0(,%edi,4),%edi
    if (tb != (struct huft *)NULL) huft_free(tb);
    return (int)r;
  }

  if (tb != NULL) {
    r = explode_lit(__G__ tb, tl, td, bb, bl, bd, bdl);
     46c:	8b 4c 24 7c          	mov    0x7c(%esp),%ecx

  /* explode the coded data */
  b = k = w = 0;                /* initialize bit buffer, window */
  u = 1;                        /* buffer unflushed */
  mb = mask_bits[bb];           /* precompute masks for speed */
  ml = mask_bits[bl];
     470:	8b 1c 9d 00 00 00 00 	mov    0x0(,%ebx,4),%ebx
  md = mask_bits[bd];
  mdl = mask_bits[bdl];
     477:	89 44 24 68          	mov    %eax,0x68(%esp)
  s = G.lrec.ucsize;
     47b:	8b 86 24 09 01 00    	mov    0x10924(%esi),%eax
    if (tb != (struct huft *)NULL) huft_free(tb);
    return (int)r;
  }

  if (tb != NULL) {
    r = explode_lit(__G__ tb, tl, td, bb, bl, bd, bdl);
     481:	89 4c 24 60          	mov    %ecx,0x60(%esp)


  /* explode the coded data */
  b = k = w = 0;                /* initialize bit buffer, window */
  u = 1;                        /* buffer unflushed */
  mb = mask_bits[bb];           /* precompute masks for speed */
     485:	89 7c 24 54          	mov    %edi,0x54(%esp)
  ml = mask_bits[bl];
     489:	89 5c 24 64          	mov    %ebx,0x64(%esp)
  md = mask_bits[bd];
  mdl = mask_bits[bdl];
  s = G.lrec.ucsize;
     48d:	89 44 24 3c          	mov    %eax,0x3c(%esp)
  while (s > 0)                 /* do until ucsize bytes uncompressed */
     491:	85 c0                	test   %eax,%eax
     493:	0f 84 94 0f 00 00    	je     142d <_explode+0x132d>
     499:	31 ed                	xor    %ebp,%ebp
     49b:	c7 44 24 38 01 00 00 	movl   $0x1,0x38(%esp)
     4a2:	00 
     4a3:	c7 44 24 40 00 00 00 	movl   $0x0,0x40(%esp)
     4aa:	00 
        n += (unsigned)b & 0xff;
        DUMPBITS(8)
      }

      /* do the copy */
      s = (s > (ulg)n ? s - (ulg)n : 0);
     4ab:	89 eb                	mov    %ebp,%ebx
  md = mask_bits[bd];
  mdl = mask_bits[bdl];
  s = G.lrec.ucsize;
  while (s > 0)                 /* do until ucsize bytes uncompressed */
  {
    NEEDBITS(1)
     4ad:	85 db                	test   %ebx,%ebx
     4af:	0f 85 19 0b 00 00    	jne    fce <_explode+0xece>
     4b5:	8b 86 ec 08 01 00    	mov    0x108ec(%esi),%eax
     4bb:	85 c0                	test   %eax,%eax
     4bd:	8d 50 ff             	lea    -0x1(%eax),%edx
     4c0:	89 96 ec 08 01 00    	mov    %edx,0x108ec(%esi)
     4c6:	0f 8e 14 01 00 00    	jle    5e0 <_explode+0x4e0>
     4cc:	8b 86 e8 08 01 00    	mov    0x108e8(%esi),%eax
     4d2:	8d 50 01             	lea    0x1(%eax),%edx
     4d5:	89 96 e8 08 01 00    	mov    %edx,0x108e8(%esi)
     4db:	8a 18                	mov    (%eax),%bl
     4dd:	81 e3 ff 00 00 00    	and    $0xff,%ebx
     4e3:	89 d8                	mov    %ebx,%eax
     4e5:	09 c5                	or     %eax,%ebp
    if (b & 1)                  /* then literal--decode it */
     4e7:	f7 c5 01 00 00 00    	test   $0x1,%ebp
     4ed:	0f 85 7d 00 00 00    	jne    570 <_explode+0x470>
        w = u = 0;
      }
    }
    else                        /* else distance/length */
    {
      DUMPBITS(1)
     4f3:	d1 ed                	shr    %ebp
     4f5:	bb 07 00 00 00       	mov    $0x7,%ebx
     4fa:	89 6c 24 30          	mov    %ebp,0x30(%esp)
     4fe:	66 90                	xchg   %ax,%ax
      NEEDBITS(bdl)             /* get distance low bits */
      d = (unsigned)b & mdl;
      DUMPBITS(bdl)
     500:	8b 44 24 34          	mov    0x34(%esp),%eax
     504:	8b 6c 24 30          	mov    0x30(%esp),%ebp
     508:	88 c1                	mov    %al,%cl
     50a:	29 c3                	sub    %eax,%ebx
      DECODEHUFT(td, bd, md)    /* get coded distance high bits */
     50c:	8b 44 24 48          	mov    0x48(%esp),%eax
    else                        /* else distance/length */
    {
      DUMPBITS(1)
      NEEDBITS(bdl)             /* get distance low bits */
      d = (unsigned)b & mdl;
      DUMPBITS(bdl)
     510:	d3 ed                	shr    %cl,%ebp
      DECODEHUFT(td, bd, md)    /* get coded distance high bits */
     512:	39 d8                	cmp    %ebx,%eax
     514:	0f 86 f5 00 00 00    	jbe    60f <_explode+0x50f>
     51a:	89 d9                	mov    %ebx,%ecx
     51c:	89 c3                	mov    %eax,%ebx
     51e:	eb 29                	jmp    549 <_explode+0x449>
     520:	8b 86 e8 08 01 00    	mov    0x108e8(%esi),%eax
     526:	8d 50 01             	lea    0x1(%eax),%edx
     529:	89 96 e8 08 01 00    	mov    %edx,0x108e8(%esi)
     52f:	0f b6 38             	movzbl (%eax),%edi
     532:	81 e7 ff 00 00 00    	and    $0xff,%edi
     538:	89 f8                	mov    %edi,%eax
     53a:	d3 e0                	shl    %cl,%eax
     53c:	83 c1 08             	add    $0x8,%ecx
     53f:	09 c5                	or     %eax,%ebp
     541:	39 cb                	cmp    %ecx,%ebx
     543:	0f 86 c4 00 00 00    	jbe    60d <_explode+0x50d>
     549:	8b 86 ec 08 01 00    	mov    0x108ec(%esi),%eax
     54f:	85 c0                	test   %eax,%eax
     551:	8d 50 ff             	lea    -0x1(%eax),%edx
     554:	89 96 ec 08 01 00    	mov    %edx,0x108ec(%esi)
     55a:	7f c4                	jg     520 <_explode+0x420>
     55c:	89 34 24             	mov    %esi,(%esp)
     55f:	89 4c 24 28          	mov    %ecx,0x28(%esp)
     563:	e8 00 00 00 00       	call   568 <_explode+0x468>
     568:	8b 4c 24 28          	mov    0x28(%esp),%ecx
     56c:	eb cc                	jmp    53a <_explode+0x43a>
     56e:	66 90                	xchg   %ax,%ax
  mdl = mask_bits[bdl];
  s = G.lrec.ucsize;
  while (s > 0)                 /* do until ucsize bytes uncompressed */
  {
    NEEDBITS(1)
    if (b & 1)                  /* then literal--decode it */
     570:	bb 07 00 00 00       	mov    $0x7,%ebx
    {
      DUMPBITS(1)
      s--;
     575:	8b 4c 24 3c          	mov    0x3c(%esp),%ecx
      DECODEHUFT(tb, bb, mb)    /* get coded literal */
     579:	8b 44 24 4c          	mov    0x4c(%esp),%eax
  while (s > 0)                 /* do until ucsize bytes uncompressed */
  {
    NEEDBITS(1)
    if (b & 1)                  /* then literal--decode it */
    {
      DUMPBITS(1)
     57d:	d1 ed                	shr    %ebp
      s--;
     57f:	49                   	dec    %ecx
     580:	89 4c 24 3c          	mov    %ecx,0x3c(%esp)
      DECODEHUFT(tb, bb, mb)    /* get coded literal */
     584:	39 d8                	cmp    %ebx,%eax
     586:	0f 86 9d 01 00 00    	jbe    729 <_explode+0x629>
     58c:	89 d9                	mov    %ebx,%ecx
     58e:	89 c3                	mov    %eax,%ebx
     590:	eb 29                	jmp    5bb <_explode+0x4bb>
     592:	8b 86 e8 08 01 00    	mov    0x108e8(%esi),%eax
     598:	8d 50 01             	lea    0x1(%eax),%edx
     59b:	89 96 e8 08 01 00    	mov    %edx,0x108e8(%esi)
     5a1:	0f b6 38             	movzbl (%eax),%edi
     5a4:	81 e7 ff 00 00 00    	and    $0xff,%edi
     5aa:	89 f8                	mov    %edi,%eax
     5ac:	d3 e0                	shl    %cl,%eax
     5ae:	83 c1 08             	add    $0x8,%ecx
     5b1:	09 c5                	or     %eax,%ebp
     5b3:	39 cb                	cmp    %ecx,%ebx
     5b5:	0f 86 6c 01 00 00    	jbe    727 <_explode+0x627>
     5bb:	8b 86 ec 08 01 00    	mov    0x108ec(%esi),%eax
     5c1:	85 c0                	test   %eax,%eax
     5c3:	8d 50 ff             	lea    -0x1(%eax),%edx
     5c6:	89 96 ec 08 01 00    	mov    %edx,0x108ec(%esi)
     5cc:	7f c4                	jg     592 <_explode+0x492>
     5ce:	89 34 24             	mov    %esi,(%esp)
     5d1:	89 4c 24 28          	mov    %ecx,0x28(%esp)
     5d5:	e8 00 00 00 00       	call   5da <_explode+0x4da>
     5da:	8b 4c 24 28          	mov    0x28(%esp),%ecx
     5de:	eb cc                	jmp    5ac <_explode+0x4ac>
  md = mask_bits[bd];
  mdl = mask_bits[bdl];
  s = G.lrec.ucsize;
  while (s > 0)                 /* do until ucsize bytes uncompressed */
  {
    NEEDBITS(1)
     5e0:	89 34 24             	mov    %esi,(%esp)
     5e3:	e8 00 00 00 00       	call   5e8 <_explode+0x4e8>
     5e8:	e9 f8 fe ff ff       	jmp    4e5 <_explode+0x3e5>
     5ed:	8d 76 00             	lea    0x0(%esi),%esi
      return (int)r;
    }
  }

  if ((r = get_tree(__G__ l, 64)) != 0) {
    huft_free(tl);
     5f0:	8b 44 24 7c          	mov    0x7c(%esp),%eax
     5f4:	89 04 24             	mov    %eax,(%esp)
     5f7:	e8 00 00 00 00       	call   5fc <_explode+0x4fc>
    if (tb != (struct huft *)NULL) huft_free(tb);
     5fc:	8b 44 24 78          	mov    0x78(%esp),%eax
     600:	85 c0                	test   %eax,%eax
     602:	0f 85 23 fc ff ff    	jne    22b <_explode+0x12b>
     608:	e9 8f fb ff ff       	jmp    19c <_explode+0x9c>
     60d:	89 cb                	mov    %ecx,%ebx
    {
      DUMPBITS(1)
      NEEDBITS(bdl)             /* get distance low bits */
      d = (unsigned)b & mdl;
      DUMPBITS(bdl)
      DECODEHUFT(td, bd, md)    /* get coded distance high bits */
     60f:	89 e8                	mov    %ebp,%eax
     611:	8b 54 24 58          	mov    0x58(%esp),%edx
     615:	83 f0 ff             	xor    $0xffffffff,%eax
     618:	8b 7c 24 50          	mov    0x50(%esp),%edi
     61c:	21 d0                	and    %edx,%eax
     61e:	8d 14 c7             	lea    (%edi,%eax,8),%edx
     621:	31 c0                	xor    %eax,%eax
     623:	8a 4a 01             	mov    0x1(%edx),%cl
     626:	8a 42 01             	mov    0x1(%edx),%al
     629:	d3 ed                	shr    %cl,%ebp
     62b:	29 c3                	sub    %eax,%ebx
     62d:	31 c9                	xor    %ecx,%ecx
     62f:	8a 02                	mov    (%edx),%al
     631:	88 c1                	mov    %al,%cl
     633:	83 f9 20             	cmp    $0x20,%ecx
     636:	0f 86 2b 02 00 00    	jbe    867 <_explode+0x767>
     63c:	83 f9 63             	cmp    $0x63,%ecx
     63f:	0f 84 ba 00 00 00    	je     6ff <_explode+0x5ff>
     645:	89 c7                	mov    %eax,%edi
     647:	83 e7 1f             	and    $0x1f,%edi
     64a:	39 df                	cmp    %ebx,%edi
     64c:	76 5c                	jbe    6aa <_explode+0x5aa>
     64e:	89 d9                	mov    %ebx,%ecx
     650:	89 d3                	mov    %edx,%ebx
     652:	eb 24                	jmp    678 <_explode+0x578>
     654:	8b 86 e8 08 01 00    	mov    0x108e8(%esi),%eax
     65a:	8d 50 01             	lea    0x1(%eax),%edx
     65d:	89 96 e8 08 01 00    	mov    %edx,0x108e8(%esi)
     663:	8a 10                	mov    (%eax),%dl
     665:	81 e2 ff 00 00 00    	and    $0xff,%edx
     66b:	89 d0                	mov    %edx,%eax
     66d:	d3 e0                	shl    %cl,%eax
     66f:	83 c1 08             	add    $0x8,%ecx
     672:	09 c5                	or     %eax,%ebp
     674:	39 cf                	cmp    %ecx,%edi
     676:	76 2e                	jbe    6a6 <_explode+0x5a6>
     678:	8b 86 ec 08 01 00    	mov    0x108ec(%esi),%eax
     67e:	85 c0                	test   %eax,%eax
     680:	8d 50 ff             	lea    -0x1(%eax),%edx
     683:	89 96 ec 08 01 00    	mov    %edx,0x108ec(%esi)
     689:	7f c9                	jg     654 <_explode+0x554>
     68b:	89 34 24             	mov    %esi,(%esp)
     68e:	89 4c 24 28          	mov    %ecx,0x28(%esp)
     692:	e8 00 00 00 00       	call   697 <_explode+0x597>
     697:	8b 4c 24 28          	mov    0x28(%esp),%ecx
     69b:	d3 e0                	shl    %cl,%eax
     69d:	83 c1 08             	add    $0x8,%ecx
     6a0:	09 c5                	or     %eax,%ebp
     6a2:	39 cf                	cmp    %ecx,%edi
     6a4:	77 d2                	ja     678 <_explode+0x578>
     6a6:	89 da                	mov    %ebx,%edx
     6a8:	89 cb                	mov    %ecx,%ebx
     6aa:	89 e8                	mov    %ebp,%eax
     6ac:	8b 0c bd 00 00 00 00 	mov    0x0(,%edi,4),%ecx
     6b3:	83 f0 ff             	xor    $0xffffffff,%eax
     6b6:	8b 7a 04             	mov    0x4(%edx),%edi
     6b9:	21 c8                	and    %ecx,%eax
     6bb:	8d 04 c7             	lea    (%edi,%eax,8),%eax
     6be:	89 c2                	mov    %eax,%edx
     6c0:	e9 5c ff ff ff       	jmp    621 <_explode+0x521>
     6c5:	89 da                	mov    %ebx,%edx
     6c7:	89 cb                	mov    %ecx,%ebx
    NEEDBITS(1)
    if (b & 1)                  /* then literal--decode it */
    {
      DUMPBITS(1)
      s--;
      DECODEHUFT(tb, bb, mb)    /* get coded literal */
     6c9:	89 e8                	mov    %ebp,%eax
     6cb:	8b 0c bd 00 00 00 00 	mov    0x0(,%edi,4),%ecx
     6d2:	83 f0 ff             	xor    $0xffffffff,%eax
     6d5:	8b 7a 04             	mov    0x4(%edx),%edi
     6d8:	21 c8                	and    %ecx,%eax
     6da:	8d 04 c7             	lea    (%edi,%eax,8),%eax
     6dd:	89 c2                	mov    %eax,%edx
     6df:	31 c0                	xor    %eax,%eax
     6e1:	8a 42 01             	mov    0x1(%edx),%al
     6e4:	8a 4a 01             	mov    0x1(%edx),%cl
     6e7:	d3 ed                	shr    %cl,%ebp
     6e9:	29 c3                	sub    %eax,%ebx
     6eb:	31 c9                	xor    %ecx,%ecx
     6ed:	8a 02                	mov    (%edx),%al
     6ef:	88 c1                	mov    %al,%cl
     6f1:	83 f9 20             	cmp    $0x20,%ecx
     6f4:	0f 86 d3 00 00 00    	jbe    7cd <_explode+0x6cd>
     6fa:	83 f9 63             	cmp    $0x63,%ecx
     6fd:	75 67                	jne    766 <_explode+0x666>
      redirSlide[w++] = (uch)t->v.n;
      if (w == wszimpl)
      {
        if ((retval = flush(__G__ redirSlide, (ulg)w, 0)) != 0)
     6ff:	c7 44 24 24 01 00 00 	movl   $0x1,0x24(%esp)
     706:	00 
    return (int)r;
  }

  if (tb != NULL) {
    r = explode_lit(__G__ tb, tl, td, bb, bl, bd, bdl);
    huft_free(tb);
     707:	8b 44 24 78          	mov    0x78(%esp),%eax
     70b:	89 04 24             	mov    %eax,(%esp)
     70e:	e8 00 00 00 00       	call   713 <_explode+0x613>
  } else {
    r = explode_nolit(__G__ tl, td, bl, bd, bdl);
  }

  huft_free(td);
     713:	8b 84 24 80 00 00 00 	mov    0x80(%esp),%eax
     71a:	89 04 24             	mov    %eax,(%esp)
     71d:	e8 00 00 00 00       	call   722 <_explode+0x622>
     722:	e9 00 fb ff ff       	jmp    227 <_explode+0x127>
     727:	89 cb                	mov    %ecx,%ebx
    NEEDBITS(1)
    if (b & 1)                  /* then literal--decode it */
    {
      DUMPBITS(1)
      s--;
      DECODEHUFT(tb, bb, mb)    /* get coded literal */
     729:	89 e8                	mov    %ebp,%eax
     72b:	8b 54 24 54          	mov    0x54(%esp),%edx
     72f:	83 f0 ff             	xor    $0xffffffff,%eax
     732:	8b 7c 24 44          	mov    0x44(%esp),%edi
     736:	21 d0                	and    %edx,%eax
     738:	8d 04 c7             	lea    (%edi,%eax,8),%eax
     73b:	89 c7                	mov    %eax,%edi
     73d:	8a 40 01             	mov    0x1(%eax),%al
     740:	88 44 24 28          	mov    %al,0x28(%esp)
     744:	31 c0                	xor    %eax,%eax
     746:	8a 44 24 28          	mov    0x28(%esp),%al
     74a:	8a 17                	mov    (%edi),%dl
     74c:	29 c3                	sub    %eax,%ebx
     74e:	31 c0                	xor    %eax,%eax
     750:	8a 4c 24 28          	mov    0x28(%esp),%cl
     754:	88 d0                	mov    %dl,%al
     756:	d3 ed                	shr    %cl,%ebp
     758:	83 f8 20             	cmp    $0x20,%eax
     75b:	76 72                	jbe    7cf <_explode+0x6cf>
     75d:	83 f8 63             	cmp    $0x63,%eax
     760:	74 9d                	je     6ff <_explode+0x5ff>
     762:	88 d0                	mov    %dl,%al
     764:	89 fa                	mov    %edi,%edx
     766:	89 c7                	mov    %eax,%edi
     768:	83 e7 1f             	and    $0x1f,%edi
     76b:	39 df                	cmp    %ebx,%edi
     76d:	0f 86 56 ff ff ff    	jbe    6c9 <_explode+0x5c9>
     773:	89 d9                	mov    %ebx,%ecx
     775:	89 d3                	mov    %edx,%ebx
     777:	eb 2f                	jmp    7a8 <_explode+0x6a8>
     779:	8d b4 26 00 00 00 00 	lea    0x0(%esi,%eiz,1),%esi
     780:	8b 86 e8 08 01 00    	mov    0x108e8(%esi),%eax
     786:	8d 50 01             	lea    0x1(%eax),%edx
     789:	89 96 e8 08 01 00    	mov    %edx,0x108e8(%esi)
     78f:	8a 10                	mov    (%eax),%dl
     791:	81 e2 ff 00 00 00    	and    $0xff,%edx
     797:	89 d0                	mov    %edx,%eax
     799:	d3 e0                	shl    %cl,%eax
     79b:	83 c1 08             	add    $0x8,%ecx
     79e:	09 c5                	or     %eax,%ebp
     7a0:	39 cf                	cmp    %ecx,%edi
     7a2:	0f 86 1d ff ff ff    	jbe    6c5 <_explode+0x5c5>
     7a8:	8b 86 ec 08 01 00    	mov    0x108ec(%esi),%eax
     7ae:	85 c0                	test   %eax,%eax
     7b0:	8d 50 ff             	lea    -0x1(%eax),%edx
     7b3:	89 96 ec 08 01 00    	mov    %edx,0x108ec(%esi)
     7b9:	7f c5                	jg     780 <_explode+0x680>
     7bb:	89 34 24             	mov    %esi,(%esp)
     7be:	89 4c 24 28          	mov    %ecx,0x28(%esp)
     7c2:	e8 00 00 00 00       	call   7c7 <_explode+0x6c7>
     7c7:	8b 4c 24 28          	mov    0x28(%esp),%ecx
     7cb:	eb cc                	jmp    799 <_explode+0x699>
     7cd:	89 d7                	mov    %edx,%edi
      redirSlide[w++] = (uch)t->v.n;
     7cf:	8b 86 bc 00 00 00    	mov    0xbc(%esi),%eax
     7d5:	8b 57 04             	mov    0x4(%edi),%edx
     7d8:	8b 7c 24 40          	mov    0x40(%esp),%edi
     7dc:	88 14 38             	mov    %dl,(%eax,%edi,1)
      if (w == wszimpl)
     7df:	8d 47 01             	lea    0x1(%edi),%eax
     7e2:	89 44 24 40          	mov    %eax,0x40(%esp)
     7e6:	3b 86 ac 00 00 00    	cmp    0xac(%esi),%eax
     7ec:	0f 84 7d 0b 00 00    	je     136f <_explode+0x126f>
  mb = mask_bits[bb];           /* precompute masks for speed */
  ml = mask_bits[bl];
  md = mask_bits[bd];
  mdl = mask_bits[bdl];
  s = G.lrec.ucsize;
  while (s > 0)                 /* do until ucsize bytes uncompressed */
     7f2:	8b 44 24 3c          	mov    0x3c(%esp),%eax
     7f6:	85 c0                	test   %eax,%eax
     7f8:	0f 85 af fc ff ff    	jne    4ad <_explode+0x3ad>
     7fe:	89 dd                	mov    %ebx,%ebp
      } while (n);
    }
  }

  /* flush out redirSlide */
  if ((retval = flush(__G__ redirSlide, (ulg)w, 0)) != 0)
     800:	8b 44 24 40          	mov    0x40(%esp),%eax
     804:	c7 44 24 0c 00 00 00 	movl   $0x0,0xc(%esp)
     80b:	00 
     80c:	89 44 24 08          	mov    %eax,0x8(%esp)
     810:	8b 86 bc 00 00 00    	mov    0xbc(%esi),%eax
     816:	89 34 24             	mov    %esi,(%esp)
     819:	89 44 24 04          	mov    %eax,0x4(%esp)
     81d:	e8 00 00 00 00       	call   822 <_explode+0x722>
     822:	85 c0                	test   %eax,%eax
     824:	0f 85 a5 0b 00 00    	jne    13cf <_explode+0x12cf>
    return retval;
  if (G.csize + G.incnt + (k >> 3))   /* should have read csize bytes, but */
     82a:	8b 86 90 00 00 00    	mov    0x90(%esi),%eax
     830:	8b 96 ec 08 01 00    	mov    0x108ec(%esi),%edx
     836:	89 eb                	mov    %ebp,%ebx
     838:	c1 eb 03             	shr    $0x3,%ebx
     83b:	8d 0c 10             	lea    (%eax,%edx,1),%ecx
     83e:	01 d9                	add    %ebx,%ecx
     840:	0f 84 c1 fe ff ff    	je     707 <_explode+0x607>
  {                        /* sometimes read one too many:  k>>3 compensates */
    G.used_csize = G.lrec.csize - G.csize - G.incnt - (k >> 3);
     846:	8b be 20 09 01 00    	mov    0x10920(%esi),%edi
     84c:	c7 44 24 24 05 00 00 	movl   $0x5,0x24(%esp)
     853:	00 
     854:	29 c7                	sub    %eax,%edi
     856:	89 f8                	mov    %edi,%eax
     858:	29 d0                	sub    %edx,%eax
     85a:	29 d8                	sub    %ebx,%eax
     85c:	89 86 94 00 00 00    	mov    %eax,0x94(%esi)
     862:	e9 a0 fe ff ff       	jmp    707 <_explode+0x607>
      DUMPBITS(1)
      NEEDBITS(bdl)             /* get distance low bits */
      d = (unsigned)b & mdl;
      DUMPBITS(bdl)
      DECODEHUFT(td, bd, md)    /* get coded distance high bits */
      d = w - d - t->v.n;       /* construct offset */
     867:	8b 42 04             	mov    0x4(%edx),%eax
     86a:	66 89 44 24 6c       	mov    %ax,0x6c(%esp)
      DECODEHUFT(tl, bl, ml)    /* get coded length */
     86f:	8b 44 24 5c          	mov    0x5c(%esp),%eax
     873:	39 d8                	cmp    %ebx,%eax
     875:	76 55                	jbe    8cc <_explode+0x7cc>
     877:	89 d9                	mov    %ebx,%ecx
     879:	89 c3                	mov    %eax,%ebx
     87b:	eb 28                	jmp    8a5 <_explode+0x7a5>
     87d:	8d 76 00             	lea    0x0(%esi),%esi
     880:	8b 86 e8 08 01 00    	mov    0x108e8(%esi),%eax
     886:	8d 50 01             	lea    0x1(%eax),%edx
     889:	89 96 e8 08 01 00    	mov    %edx,0x108e8(%esi)
     88f:	0f b6 38             	movzbl (%eax),%edi
     892:	81 e7 ff 00 00 00    	and    $0xff,%edi
     898:	89 f8                	mov    %edi,%eax
     89a:	d3 e0                	shl    %cl,%eax
     89c:	83 c1 08             	add    $0x8,%ecx
     89f:	09 c5                	or     %eax,%ebp
     8a1:	39 cb                	cmp    %ecx,%ebx
     8a3:	76 25                	jbe    8ca <_explode+0x7ca>
     8a5:	8b 86 ec 08 01 00    	mov    0x108ec(%esi),%eax
     8ab:	85 c0                	test   %eax,%eax
     8ad:	8d 50 ff             	lea    -0x1(%eax),%edx
     8b0:	89 96 ec 08 01 00    	mov    %edx,0x108ec(%esi)
     8b6:	7f c8                	jg     880 <_explode+0x780>
     8b8:	89 34 24             	mov    %esi,(%esp)
     8bb:	89 4c 24 28          	mov    %ecx,0x28(%esp)
     8bf:	e8 00 00 00 00       	call   8c4 <_explode+0x7c4>
     8c4:	8b 4c 24 28          	mov    0x28(%esp),%ecx
     8c8:	eb d0                	jmp    89a <_explode+0x79a>
     8ca:	89 cb                	mov    %ecx,%ebx
     8cc:	89 e8                	mov    %ebp,%eax
     8ce:	8b 54 24 64          	mov    0x64(%esp),%edx
     8d2:	83 f0 ff             	xor    $0xffffffff,%eax
     8d5:	8b 7c 24 60          	mov    0x60(%esp),%edi
     8d9:	21 d0                	and    %edx,%eax
     8db:	8d 04 c7             	lea    (%edi,%eax,8),%eax
     8de:	89 c7                	mov    %eax,%edi
     8e0:	8a 40 01             	mov    0x1(%eax),%al
     8e3:	88 44 24 28          	mov    %al,0x28(%esp)
     8e7:	31 c0                	xor    %eax,%eax
     8e9:	8a 44 24 28          	mov    0x28(%esp),%al
     8ed:	8a 17                	mov    (%edi),%dl
     8ef:	29 c3                	sub    %eax,%ebx
     8f1:	31 c0                	xor    %eax,%eax
     8f3:	8a 4c 24 28          	mov    0x28(%esp),%cl
     8f7:	88 d0                	mov    %dl,%al
     8f9:	d3 ed                	shr    %cl,%ebp
     8fb:	83 f8 20             	cmp    $0x20,%eax
     8fe:	0f 86 af 00 00 00    	jbe    9b3 <_explode+0x8b3>
     904:	83 f8 63             	cmp    $0x63,%eax
     907:	0f 84 f2 fd ff ff    	je     6ff <_explode+0x5ff>
     90d:	88 d1                	mov    %dl,%cl
     90f:	89 fa                	mov    %edi,%edx
     911:	89 cf                	mov    %ecx,%edi
     913:	83 e7 1f             	and    $0x1f,%edi
     916:	39 df                	cmp    %ebx,%edi
     918:	76 5c                	jbe    976 <_explode+0x876>
     91a:	89 d9                	mov    %ebx,%ecx
     91c:	89 d3                	mov    %edx,%ebx
     91e:	eb 24                	jmp    944 <_explode+0x844>
     920:	8b 86 e8 08 01 00    	mov    0x108e8(%esi),%eax
     926:	8d 50 01             	lea    0x1(%eax),%edx
     929:	89 96 e8 08 01 00    	mov    %edx,0x108e8(%esi)
     92f:	8a 10                	mov    (%eax),%dl
     931:	81 e2 ff 00 00 00    	and    $0xff,%edx
     937:	89 d0                	mov    %edx,%eax
     939:	d3 e0                	shl    %cl,%eax
     93b:	83 c1 08             	add    $0x8,%ecx
     93e:	09 c5                	or     %eax,%ebp
     940:	39 cf                	cmp    %ecx,%edi
     942:	76 2e                	jbe    972 <_explode+0x872>
     944:	8b 86 ec 08 01 00    	mov    0x108ec(%esi),%eax
     94a:	85 c0                	test   %eax,%eax
     94c:	8d 50 ff             	lea    -0x1(%eax),%edx
     94f:	89 96 ec 08 01 00    	mov    %edx,0x108ec(%esi)
     955:	7f c9                	jg     920 <_explode+0x820>
     957:	89 34 24             	mov    %esi,(%esp)
     95a:	89 4c 24 28          	mov    %ecx,0x28(%esp)
     95e:	e8 00 00 00 00       	call   963 <_explode+0x863>
     963:	8b 4c 24 28          	mov    0x28(%esp),%ecx
     967:	d3 e0                	shl    %cl,%eax
     969:	83 c1 08             	add    $0x8,%ecx
     96c:	09 c5                	or     %eax,%ebp
     96e:	39 cf                	cmp    %ecx,%edi
     970:	77 d2                	ja     944 <_explode+0x844>
     972:	89 da                	mov    %ebx,%edx
     974:	89 cb                	mov    %ecx,%ebx
     976:	89 e8                	mov    %ebp,%eax
     978:	8b 0c bd 00 00 00 00 	mov    0x0(,%edi,4),%ecx
     97f:	83 f0 ff             	xor    $0xffffffff,%eax
     982:	8b 7a 04             	mov    0x4(%edx),%edi
     985:	21 c8                	and    %ecx,%eax
     987:	8d 04 c7             	lea    (%edi,%eax,8),%eax
     98a:	89 c2                	mov    %eax,%edx
     98c:	31 c0                	xor    %eax,%eax
     98e:	8a 42 01             	mov    0x1(%edx),%al
     991:	8a 4a 01             	mov    0x1(%edx),%cl
     994:	d3 ed                	shr    %cl,%ebp
     996:	29 c3                	sub    %eax,%ebx
     998:	8a 0a                	mov    (%edx),%cl
     99a:	31 c0                	xor    %eax,%eax
     99c:	88 c8                	mov    %cl,%al
     99e:	83 f8 20             	cmp    $0x20,%eax
     9a1:	76 0e                	jbe    9b1 <_explode+0x8b1>
     9a3:	83 f8 63             	cmp    $0x63,%eax
     9a6:	0f 85 65 ff ff ff    	jne    911 <_explode+0x811>
     9ac:	e9 4e fd ff ff       	jmp    6ff <_explode+0x5ff>
     9b1:	89 d7                	mov    %edx,%edi
      n = t->v.n;
     9b3:	31 c9                	xor    %ecx,%ecx
      if (e)                    /* get length extra bits */
     9b5:	85 c0                	test   %eax,%eax
      d = (unsigned)b & mdl;
      DUMPBITS(bdl)
      DECODEHUFT(td, bd, md)    /* get coded distance high bits */
      d = w - d - t->v.n;       /* construct offset */
      DECODEHUFT(tl, bl, ml)    /* get coded length */
      n = t->v.n;
     9b7:	66 8b 4f 04          	mov    0x4(%edi),%cx
     9bb:	89 4c 24 2c          	mov    %ecx,0x2c(%esp)
      if (e)                    /* get length extra bits */
     9bf:	74 56                	je     a17 <_explode+0x917>
      {
        NEEDBITS(8)
     9c1:	83 fb 07             	cmp    $0x7,%ebx
     9c4:	77 3a                	ja     a00 <_explode+0x900>
     9c6:	8b 86 ec 08 01 00    	mov    0x108ec(%esi),%eax
     9cc:	85 c0                	test   %eax,%eax
     9ce:	8d 50 ff             	lea    -0x1(%eax),%edx
     9d1:	89 96 ec 08 01 00    	mov    %edx,0x108ec(%esi)
     9d7:	0f 8e 55 06 00 00    	jle    1032 <_explode+0xf32>
     9dd:	8b 86 e8 08 01 00    	mov    0x108e8(%esi),%eax
     9e3:	8d 50 01             	lea    0x1(%eax),%edx
     9e6:	89 96 e8 08 01 00    	mov    %edx,0x108e8(%esi)
     9ec:	0f b6 38             	movzbl (%eax),%edi
     9ef:	81 e7 ff 00 00 00    	and    $0xff,%edi
     9f5:	89 f8                	mov    %edi,%eax
     9f7:	88 d9                	mov    %bl,%cl
     9f9:	83 c3 08             	add    $0x8,%ebx
     9fc:	d3 e0                	shl    %cl,%eax
     9fe:	09 c5                	or     %eax,%ebp
        n += (unsigned)b & 0xff;
     a00:	89 e8                	mov    %ebp,%eax
     a02:	8b 4c 24 2c          	mov    0x2c(%esp),%ecx
     a06:	25 ff 00 00 00       	and    $0xff,%eax
        DUMPBITS(8)
     a0b:	83 eb 08             	sub    $0x8,%ebx
     a0e:	c1 ed 08             	shr    $0x8,%ebp
      DECODEHUFT(tl, bl, ml)    /* get coded length */
      n = t->v.n;
      if (e)                    /* get length extra bits */
      {
        NEEDBITS(8)
        n += (unsigned)b & 0xff;
     a11:	01 c1                	add    %eax,%ecx
     a13:	89 4c 24 2c          	mov    %ecx,0x2c(%esp)
        DUMPBITS(8)
      }

      /* do the copy */
      s = (s > (ulg)n ? s - (ulg)n : 0);
     a17:	8b 7c 24 3c          	mov    0x3c(%esp),%edi
     a1b:	8b 4c 24 2c          	mov    0x2c(%esp),%ecx
     a1f:	89 f8                	mov    %edi,%eax
    }
    else                        /* else distance/length */
    {
      DUMPBITS(1)
      NEEDBITS(bdl)             /* get distance low bits */
      d = (unsigned)b & mdl;
     a21:	8b 54 24 68          	mov    0x68(%esp),%edx
        n += (unsigned)b & 0xff;
        DUMPBITS(8)
      }

      /* do the copy */
      s = (s > (ulg)n ? s - (ulg)n : 0);
     a25:	29 c8                	sub    %ecx,%eax
     a27:	39 f9                	cmp    %edi,%ecx
     a29:	bf 00 00 00 00       	mov    $0x0,%edi
     a2e:	0f 43 c7             	cmovae %edi,%eax
     a31:	89 44 24 3c          	mov    %eax,0x3c(%esp)
      DUMPBITS(1)
      NEEDBITS(bdl)             /* get distance low bits */
      d = (unsigned)b & mdl;
      DUMPBITS(bdl)
      DECODEHUFT(td, bd, md)    /* get coded distance high bits */
      d = w - d - t->v.n;       /* construct offset */
     a35:	8b 7c 24 40          	mov    0x40(%esp),%edi
    }
    else                        /* else distance/length */
    {
      DUMPBITS(1)
      NEEDBITS(bdl)             /* get distance low bits */
      d = (unsigned)b & mdl;
     a39:	8b 44 24 30          	mov    0x30(%esp),%eax
      DUMPBITS(bdl)
      DECODEHUFT(td, bd, md)    /* get coded distance high bits */
      d = w - d - t->v.n;       /* construct offset */
     a3d:	89 6c 24 30          	mov    %ebp,0x30(%esp)
    }
    else                        /* else distance/length */
    {
      DUMPBITS(1)
      NEEDBITS(bdl)             /* get distance low bits */
      d = (unsigned)b & mdl;
     a41:	21 d0                	and    %edx,%eax
      DUMPBITS(bdl)
      DECODEHUFT(td, bd, md)    /* get coded distance high bits */
      d = w - d - t->v.n;       /* construct offset */
     a43:	89 fa                	mov    %edi,%edx
     a45:	29 c2                	sub    %eax,%edx
     a47:	31 c0                	xor    %eax,%eax
     a49:	66 8b 44 24 6c       	mov    0x6c(%esp),%ax
     a4e:	89 5c 24 6c          	mov    %ebx,0x6c(%esp)
     a52:	29 c2                	sub    %eax,%edx
     a54:	89 fb                	mov    %edi,%ebx
     a56:	89 54 24 28          	mov    %edx,0x28(%esp)
     a5a:	8d b6 00 00 00 00    	lea    0x0(%esi),%esi

      /* do the copy */
      s = (s > (ulg)n ? s - (ulg)n : 0);
      do {
#if (defined(DLL) && !defined(NO_SLIDE_REDIR))
        if (G.redirect_slide) {
     a60:	8b ae a8 00 00 00    	mov    0xa8(%esi),%ebp
     a66:	85 ed                	test   %ebp,%ebp
          /* &= w/ wszimpl not needed and wrong if redirect */
          if (d >= wszimpl)
     a68:	8b ae ac 00 00 00    	mov    0xac(%esi),%ebp

      /* do the copy */
      s = (s > (ulg)n ? s - (ulg)n : 0);
      do {
#if (defined(DLL) && !defined(NO_SLIDE_REDIR))
        if (G.redirect_slide) {
     a6e:	0f 84 9c 00 00 00    	je     b10 <_explode+0xa10>
          /* &= w/ wszimpl not needed and wrong if redirect */
          if (d >= wszimpl)
     a74:	8b 44 24 28          	mov    0x28(%esp),%eax
     a78:	39 c5                	cmp    %eax,%ebp
     a7a:	0f 86 7f fc ff ff    	jbe    6ff <_explode+0x5ff>
            return 1;
          e = wszimpl - (d > w ? d : w);
     a80:	39 c3                	cmp    %eax,%ebx
     a82:	0f 43 c3             	cmovae %ebx,%eax
     a85:	29 c5                	sub    %eax,%ebp
     a87:	8b 44 24 2c          	mov    0x2c(%esp),%eax
     a8b:	39 c5                	cmp    %eax,%ebp
     a8d:	0f 47 e8             	cmova  %eax,%ebp
        } else
#endif
          e = wszimpl - ((d &= wszimpl-1) > w ? d : w);
        if (e > n) e = n;
        n -= e;
     a90:	29 e8                	sub    %ebp,%eax
        if (u && w <= d)
     a92:	3b 5c 24 28          	cmp    0x28(%esp),%ebx
          e = wszimpl - (d > w ? d : w);
        } else
#endif
          e = wszimpl - ((d &= wszimpl-1) > w ? d : w);
        if (e > n) e = n;
        n -= e;
     a96:	89 44 24 2c          	mov    %eax,0x2c(%esp)
        if (u && w <= d)
        {
          memzero(redirSlide + w, e);
     a9a:	89 d8                	mov    %ebx,%eax
        } else
#endif
          e = wszimpl - ((d &= wszimpl-1) > w ? d : w);
        if (e > n) e = n;
        n -= e;
        if (u && w <= d)
     a9c:	77 0c                	ja     aaa <_explode+0x9aa>
     a9e:	8b 4c 24 38          	mov    0x38(%esp),%ecx
     aa2:	85 c9                	test   %ecx,%ecx
     aa4:	0f 85 86 00 00 00    	jne    b30 <_explode+0xa30>
          w += e;
          d += e;
        }
        else
#ifndef NOMEMCPY
          if (w - d >= e)       /* (this test assumes unsigned comparison) */
     aaa:	8b 4c 24 28          	mov    0x28(%esp),%ecx
     aae:	29 c8                	sub    %ecx,%eax
     ab0:	39 e8                	cmp    %ebp,%eax
     ab2:	0f 83 b8 00 00 00    	jae    b70 <_explode+0xa70>
     ab8:	89 d8                	mov    %ebx,%eax
     aba:	8d 7c 1d 00          	lea    0x0(%ebp,%ebx,1),%edi
     abe:	8b 5c 24 28          	mov    0x28(%esp),%ebx
     ac2:	29 c3                	sub    %eax,%ebx
            d += e;
          }
          else                  /* do it slow to avoid memcpy() overlap */
#endif /* !NOMEMCPY */
            do {
              redirSlide[w++] = redirSlide[d++];
     ac4:	8b 96 bc 00 00 00    	mov    0xbc(%esi),%edx
     aca:	8d 0c 02             	lea    (%edx,%eax,1),%ecx
     acd:	8a 0c 19             	mov    (%ecx,%ebx,1),%cl
     ad0:	88 0c 02             	mov    %cl,(%edx,%eax,1)
     ad3:	40                   	inc    %eax
            } while (--e);
     ad4:	39 f8                	cmp    %edi,%eax
     ad6:	75 ec                	jne    ac4 <_explode+0x9c4>
     ad8:	8b 54 24 28          	mov    0x28(%esp),%edx
     adc:	89 c3                	mov    %eax,%ebx
     ade:	01 ea                	add    %ebp,%edx
     ae0:	89 54 24 28          	mov    %edx,0x28(%esp)
        if (w == wszimpl)
     ae4:	39 9e ac 00 00 00    	cmp    %ebx,0xac(%esi)
     aea:	0f 84 ac 00 00 00    	je     b9c <_explode+0xa9c>
        {
          if ((retval = flush(__G__ redirSlide, (ulg)w, 0)) != 0)
            return retval;
          w = u = 0;
        }
      } while (n);
     af0:	8b 44 24 2c          	mov    0x2c(%esp),%eax
     af4:	85 c0                	test   %eax,%eax
     af6:	0f 85 64 ff ff ff    	jne    a60 <_explode+0x960>
     afc:	89 5c 24 40          	mov    %ebx,0x40(%esp)
     b00:	8b 6c 24 30          	mov    0x30(%esp),%ebp
     b04:	8b 5c 24 6c          	mov    0x6c(%esp),%ebx
     b08:	e9 e5 fc ff ff       	jmp    7f2 <_explode+0x6f2>
     b0d:	8d 76 00             	lea    0x0(%esi),%esi
          if (d >= wszimpl)
            return 1;
          e = wszimpl - (d > w ? d : w);
        } else
#endif
          e = wszimpl - ((d &= wszimpl-1) > w ? d : w);
     b10:	8d 45 ff             	lea    -0x1(%ebp),%eax
     b13:	8b 7c 24 28          	mov    0x28(%esp),%edi
     b17:	21 c7                	and    %eax,%edi
     b19:	89 7c 24 28          	mov    %edi,0x28(%esp)
     b1d:	8b 7c 24 28          	mov    0x28(%esp),%edi
     b21:	89 f8                	mov    %edi,%eax
     b23:	39 df                	cmp    %ebx,%edi
     b25:	0f 42 c3             	cmovb  %ebx,%eax
     b28:	29 c5                	sub    %eax,%ebp
     b2a:	e9 58 ff ff ff       	jmp    a87 <_explode+0x987>
     b2f:	90                   	nop
        if (e > n) e = n;
        n -= e;
        if (u && w <= d)
        {
          memzero(redirSlide + w, e);
     b30:	8b 96 bc 00 00 00    	mov    0xbc(%esi),%edx
     b36:	01 d0                	add    %edx,%eax
     b38:	89 ea                	mov    %ebp,%edx
     b3a:	89 c7                	mov    %eax,%edi
     b3c:	83 fd 04             	cmp    $0x4,%ebp
     b3f:	0f 83 8c 00 00 00    	jae    bd1 <_explode+0xad1>
     b45:	f6 c2 02             	test   $0x2,%dl
     b48:	74 08                	je     b52 <_explode+0xa52>
     b4a:	66 c7 07 00 00       	movw   $0x0,(%edi)
     b4f:	83 c7 02             	add    $0x2,%edi
     b52:	83 e2 01             	and    $0x1,%edx
     b55:	74 03                	je     b5a <_explode+0xa5a>
     b57:	c6 07 00             	movb   $0x0,(%edi)
          w += e;
          d += e;
     b5a:	8b 7c 24 28          	mov    0x28(%esp),%edi
        if (e > n) e = n;
        n -= e;
        if (u && w <= d)
        {
          memzero(redirSlide + w, e);
          w += e;
     b5e:	01 eb                	add    %ebp,%ebx
          d += e;
     b60:	01 ef                	add    %ebp,%edi
     b62:	89 7c 24 28          	mov    %edi,0x28(%esp)
     b66:	e9 79 ff ff ff       	jmp    ae4 <_explode+0x9e4>
     b6b:	90                   	nop
     b6c:	8d 74 26 00          	lea    0x0(%esi,%eiz,1),%esi
        }
        else
#ifndef NOMEMCPY
          if (w - d >= e)       /* (this test assumes unsigned comparison) */
          {
            memcpy(redirSlide + w, redirSlide + d, e);
     b70:	8b 86 bc 00 00 00    	mov    0xbc(%esi),%eax
     b76:	8b 7c 24 28          	mov    0x28(%esp),%edi
     b7a:	89 6c 24 08          	mov    %ebp,0x8(%esp)
     b7e:	8d 14 18             	lea    (%eax,%ebx,1),%edx
     b81:	01 f8                	add    %edi,%eax
     b83:	89 44 24 04          	mov    %eax,0x4(%esp)
     b87:	89 14 24             	mov    %edx,(%esp)
            w += e;
            d += e;
     b8a:	01 ef                	add    %ebp,%edi
        }
        else
#ifndef NOMEMCPY
          if (w - d >= e)       /* (this test assumes unsigned comparison) */
          {
            memcpy(redirSlide + w, redirSlide + d, e);
     b8c:	e8 00 00 00 00       	call   b91 <_explode+0xa91>
            w += e;
     b91:	01 eb                	add    %ebp,%ebx
            d += e;
     b93:	89 7c 24 28          	mov    %edi,0x28(%esp)
     b97:	e9 48 ff ff ff       	jmp    ae4 <_explode+0x9e4>
            do {
              redirSlide[w++] = redirSlide[d++];
            } while (--e);
        if (w == wszimpl)
        {
          if ((retval = flush(__G__ redirSlide, (ulg)w, 0)) != 0)
     b9c:	c7 44 24 0c 00 00 00 	movl   $0x0,0xc(%esp)
     ba3:	00 
     ba4:	89 5c 24 08          	mov    %ebx,0x8(%esp)
     ba8:	8b 86 bc 00 00 00    	mov    0xbc(%esi),%eax
     bae:	89 34 24             	mov    %esi,(%esp)
     bb1:	89 44 24 04          	mov    %eax,0x4(%esp)
     bb5:	e8 00 00 00 00       	call   bba <_explode+0xaba>
     bba:	85 c0                	test   %eax,%eax
     bbc:	0f 85 0d 08 00 00    	jne    13cf <_explode+0x12cf>
            return retval;
          w = u = 0;
     bc2:	c7 44 24 38 00 00 00 	movl   $0x0,0x38(%esp)
     bc9:	00 
     bca:	31 db                	xor    %ebx,%ebx
     bcc:	e9 1f ff ff ff       	jmp    af0 <_explode+0x9f0>
          e = wszimpl - ((d &= wszimpl-1) > w ? d : w);
        if (e > n) e = n;
        n -= e;
        if (u && w <= d)
        {
          memzero(redirSlide + w, e);
     bd1:	a8 01                	test   $0x1,%al
     bd3:	0f 85 dd 07 00 00    	jne    13b6 <_explode+0x12b6>
     bd9:	f7 c7 02 00 00 00    	test   $0x2,%edi
     bdf:	0f 85 c1 07 00 00    	jne    13a6 <_explode+0x12a6>
     be5:	89 d1                	mov    %edx,%ecx
     be7:	31 c0                	xor    %eax,%eax
     be9:	c1 e9 02             	shr    $0x2,%ecx
     bec:	f3 ab                	rep stos %eax,%es:(%edi)
     bee:	e9 52 ff ff ff       	jmp    b45 <_explode+0xa45>

  if (tb != NULL) {
    r = explode_lit(__G__ tb, tl, td, bb, bl, bd, bdl);
    huft_free(tb);
  } else {
    r = explode_nolit(__G__ tl, td, bl, bd, bdl);
     bf3:	89 44 24 44          	mov    %eax,0x44(%esp)

  /* explode the coded data */
  b = k = w = 0;                /* initialize bit buffer, window */
  u = 1;                        /* buffer unflushed */
  ml = mask_bits[bl];           /* precompute masks for speed */
  md = mask_bits[bd];
     bf7:	8b 04 85 00 00 00 00 	mov    0x0(,%eax,4),%eax
     bfe:	89 44 24 4c          	mov    %eax,0x4c(%esp)
  mdl = mask_bits[bdl];
     c02:	8b 44 24 34          	mov    0x34(%esp),%eax

  if (tb != NULL) {
    r = explode_lit(__G__ tb, tl, td, bb, bl, bd, bdl);
    huft_free(tb);
  } else {
    r = explode_nolit(__G__ tl, td, bl, bd, bdl);
     c06:	8b 9c 24 88 00 00 00 	mov    0x88(%esp),%ebx
     c0d:	8b bc 24 80 00 00 00 	mov    0x80(%esp),%edi
  /* explode the coded data */
  b = k = w = 0;                /* initialize bit buffer, window */
  u = 1;                        /* buffer unflushed */
  ml = mask_bits[bl];           /* precompute masks for speed */
  md = mask_bits[bd];
  mdl = mask_bits[bdl];
     c14:	8b 04 85 00 00 00 00 	mov    0x0(,%eax,4),%eax

  if (tb != NULL) {
    r = explode_lit(__G__ tb, tl, td, bb, bl, bd, bdl);
    huft_free(tb);
  } else {
    r = explode_nolit(__G__ tl, td, bl, bd, bdl);
     c1b:	89 5c 24 54          	mov    %ebx,0x54(%esp)
     c1f:	89 7c 24 48          	mov    %edi,0x48(%esp)


  /* explode the coded data */
  b = k = w = 0;                /* initialize bit buffer, window */
  u = 1;                        /* buffer unflushed */
  ml = mask_bits[bl];           /* precompute masks for speed */
     c23:	8b 1c 9d 00 00 00 00 	mov    0x0(,%ebx,4),%ebx

  if (tb != NULL) {
    r = explode_lit(__G__ tb, tl, td, bb, bl, bd, bdl);
    huft_free(tb);
  } else {
    r = explode_nolit(__G__ tl, td, bl, bd, bdl);
     c2a:	8b 7c 24 7c          	mov    0x7c(%esp),%edi
  /* explode the coded data */
  b = k = w = 0;                /* initialize bit buffer, window */
  u = 1;                        /* buffer unflushed */
  ml = mask_bits[bl];           /* precompute masks for speed */
  md = mask_bits[bd];
  mdl = mask_bits[bdl];
     c2e:	89 44 24 5c          	mov    %eax,0x5c(%esp)
  s = G.lrec.ucsize;
     c32:	8b 86 24 09 01 00    	mov    0x10924(%esi),%eax

  if (tb != NULL) {
    r = explode_lit(__G__ tb, tl, td, bb, bl, bd, bdl);
    huft_free(tb);
  } else {
    r = explode_nolit(__G__ tl, td, bl, bd, bdl);
     c38:	89 7c 24 58          	mov    %edi,0x58(%esp)


  /* explode the coded data */
  b = k = w = 0;                /* initialize bit buffer, window */
  u = 1;                        /* buffer unflushed */
  ml = mask_bits[bl];           /* precompute masks for speed */
     c3c:	89 5c 24 50          	mov    %ebx,0x50(%esp)
  md = mask_bits[bd];
  mdl = mask_bits[bdl];
  s = G.lrec.ucsize;
     c40:	89 44 24 40          	mov    %eax,0x40(%esp)
  while (s > 0)                 /* do until ucsize bytes uncompressed */
     c44:	85 c0                	test   %eax,%eax
     c46:	0f 84 f9 07 00 00    	je     1445 <_explode+0x1345>
     c4c:	c7 44 24 38 01 00 00 	movl   $0x1,0x38(%esp)
     c53:	00 
     c54:	c7 44 24 3c 00 00 00 	movl   $0x0,0x3c(%esp)
     c5b:	00 
     c5c:	31 ed                	xor    %ebp,%ebp
     c5e:	c7 44 24 28 00 00 00 	movl   $0x0,0x28(%esp)
     c65:	00 
  {
    NEEDBITS(1)
     c66:	85 ed                	test   %ebp,%ebp
     c68:	0f 85 ad 01 00 00    	jne    e1b <_explode+0xd1b>
     c6e:	8b 86 ec 08 01 00    	mov    0x108ec(%esi),%eax
     c74:	85 c0                	test   %eax,%eax
     c76:	8d 50 ff             	lea    -0x1(%eax),%edx
     c79:	89 96 ec 08 01 00    	mov    %edx,0x108ec(%esi)
     c7f:	0f 8e 89 01 00 00    	jle    e0e <_explode+0xd0e>
     c85:	8b 86 e8 08 01 00    	mov    0x108e8(%esi),%eax
     c8b:	8d 50 01             	lea    0x1(%eax),%edx
     c8e:	89 96 e8 08 01 00    	mov    %edx,0x108e8(%esi)
     c94:	8a 18                	mov    (%eax),%bl
     c96:	81 e3 ff 00 00 00    	and    $0xff,%ebx
     c9c:	89 d8                	mov    %ebx,%eax
     c9e:	8b 6c 24 28          	mov    0x28(%esp),%ebp
     ca2:	09 e8                	or     %ebp,%eax
    if (b & 1)                  /* then literal--get eight bits */
     ca4:	a8 01                	test   $0x1,%al
     ca6:	0f 84 e4 00 00 00    	je     d90 <_explode+0xc90>
    {
      DUMPBITS(1)
      s--;
     cac:	ff 4c 24 40          	decl   0x40(%esp)
  while (s > 0)                 /* do until ucsize bytes uncompressed */
  {
    NEEDBITS(1)
    if (b & 1)                  /* then literal--get eight bits */
    {
      DUMPBITS(1)
     cb0:	b9 07 00 00 00       	mov    $0x7,%ecx
     cb5:	d1 e8                	shr    %eax
     cb7:	89 c3                	mov    %eax,%ebx
      s--;
      NEEDBITS(8)
     cb9:	8b 86 ec 08 01 00    	mov    0x108ec(%esi),%eax
     cbf:	85 c0                	test   %eax,%eax
     cc1:	8d 50 ff             	lea    -0x1(%eax),%edx
     cc4:	89 96 ec 08 01 00    	mov    %edx,0x108ec(%esi)
     cca:	0f 8e a6 01 00 00    	jle    e76 <_explode+0xd76>
     cd0:	8b 86 e8 08 01 00    	mov    0x108e8(%esi),%eax
     cd6:	8d 50 01             	lea    0x1(%eax),%edx
     cd9:	89 96 e8 08 01 00    	mov    %edx,0x108e8(%esi)
     cdf:	0f b6 38             	movzbl (%eax),%edi
     ce2:	81 e7 ff 00 00 00    	and    $0xff,%edi
     ce8:	89 f8                	mov    %edi,%eax
     cea:	d3 e0                	shl    %cl,%eax
     cec:	09 c3                	or     %eax,%ebx
     cee:	83 c1 08             	add    $0x8,%ecx
      redirSlide[w++] = (uch)b;
     cf1:	8b 7c 24 3c          	mov    0x3c(%esp),%edi
     cf5:	8b 96 bc 00 00 00    	mov    0xbc(%esi),%edx
     cfb:	89 f8                	mov    %edi,%eax
     cfd:	40                   	inc    %eax
     cfe:	88 1c 3a             	mov    %bl,(%edx,%edi,1)
      if (w == wszimpl)
     d01:	3b 86 ac 00 00 00    	cmp    0xac(%esi),%eax
     d07:	0f 84 cb 06 00 00    	je     13d8 <_explode+0x12d8>
      {
        if ((retval = flush(__G__ redirSlide, (ulg)w, 0)) != 0)
          return retval;
        w = u = 0;
      }
      DUMPBITS(8)
     d0d:	c1 eb 08             	shr    $0x8,%ebx
     d10:	8d 69 f8             	lea    -0x8(%ecx),%ebp
     d13:	89 5c 24 28          	mov    %ebx,0x28(%esp)
     d17:	89 44 24 3c          	mov    %eax,0x3c(%esp)
  u = 1;                        /* buffer unflushed */
  ml = mask_bits[bl];           /* precompute masks for speed */
  md = mask_bits[bd];
  mdl = mask_bits[bdl];
  s = G.lrec.ucsize;
  while (s > 0)                 /* do until ucsize bytes uncompressed */
     d1b:	8b 44 24 40          	mov    0x40(%esp),%eax
     d1f:	85 c0                	test   %eax,%eax
     d21:	0f 85 3f ff ff ff    	jne    c66 <_explode+0xb66>
      } while (n);
    }
  }

  /* flush out redirSlide */
  if ((retval = flush(__G__ redirSlide, (ulg)w, 0)) != 0)
     d27:	8b 44 24 3c          	mov    0x3c(%esp),%eax
     d2b:	c7 44 24 0c 00 00 00 	movl   $0x0,0xc(%esp)
     d32:	00 
     d33:	89 44 24 08          	mov    %eax,0x8(%esp)
     d37:	8b 86 bc 00 00 00    	mov    0xbc(%esi),%eax
     d3d:	89 34 24             	mov    %esi,(%esp)
     d40:	89 44 24 04          	mov    %eax,0x4(%esp)
     d44:	e8 00 00 00 00       	call   d49 <_explode+0xc49>
     d49:	85 c0                	test   %eax,%eax
     d4b:	0f 85 eb 06 00 00    	jne    143c <_explode+0x133c>
    return retval;
  if (G.csize + G.incnt + (k >> 3))   /* should have read csize bytes, but */
     d51:	8b 86 90 00 00 00    	mov    0x90(%esi),%eax
     d57:	8b 96 ec 08 01 00    	mov    0x108ec(%esi),%edx
     d5d:	89 eb                	mov    %ebp,%ebx
     d5f:	c1 eb 03             	shr    $0x3,%ebx
     d62:	8d 0c 10             	lea    (%eax,%edx,1),%ecx
     d65:	01 d9                	add    %ebx,%ecx
     d67:	0f 84 a6 f9 ff ff    	je     713 <_explode+0x613>
  {                        /* sometimes read one too many:  k>>3 compensates */
    G.used_csize = G.lrec.csize - G.csize - G.incnt - (k >> 3);
     d6d:	8b be 20 09 01 00    	mov    0x10920(%esi),%edi
     d73:	c7 44 24 24 05 00 00 	movl   $0x5,0x24(%esp)
     d7a:	00 
     d7b:	29 c7                	sub    %eax,%edi
     d7d:	89 f8                	mov    %edi,%eax
     d7f:	29 d0                	sub    %edx,%eax
     d81:	29 d8                	sub    %ebx,%eax
     d83:	89 86 94 00 00 00    	mov    %eax,0x94(%esi)
     d89:	e9 85 f9 ff ff       	jmp    713 <_explode+0x613>
     d8e:	66 90                	xchg   %ax,%ax
      }
      DUMPBITS(8)
    }
    else                        /* else distance/length */
    {
      DUMPBITS(1)
     d90:	d1 e8                	shr    %eax
  mdl = mask_bits[bdl];
  s = G.lrec.ucsize;
  while (s > 0)                 /* do until ucsize bytes uncompressed */
  {
    NEEDBITS(1)
    if (b & 1)                  /* then literal--get eight bits */
     d92:	bb 07 00 00 00       	mov    $0x7,%ebx
      }
      DUMPBITS(8)
    }
    else                        /* else distance/length */
    {
      DUMPBITS(1)
     d97:	89 44 24 2c          	mov    %eax,0x2c(%esp)
      NEEDBITS(bdl)             /* get distance low bits */
      d = (unsigned)b & mdl;
      DUMPBITS(bdl)
     d9b:	8b 44 24 34          	mov    0x34(%esp),%eax
     d9f:	8b 6c 24 2c          	mov    0x2c(%esp),%ebp
     da3:	88 c1                	mov    %al,%cl
     da5:	29 c3                	sub    %eax,%ebx
      DECODEHUFT(td, bd, md)    /* get coded distance high bits */
     da7:	8b 44 24 44          	mov    0x44(%esp),%eax
    else                        /* else distance/length */
    {
      DUMPBITS(1)
      NEEDBITS(bdl)             /* get distance low bits */
      d = (unsigned)b & mdl;
      DUMPBITS(bdl)
     dab:	d3 ed                	shr    %cl,%ebp
      DECODEHUFT(td, bd, md)    /* get coded distance high bits */
     dad:	39 d8                	cmp    %ebx,%eax
     daf:	0f 86 02 01 00 00    	jbe    eb7 <_explode+0xdb7>
     db5:	89 d9                	mov    %ebx,%ecx
     db7:	89 c3                	mov    %eax,%ebx
     db9:	eb 2e                	jmp    de9 <_explode+0xce9>
     dbb:	90                   	nop
     dbc:	8d 74 26 00          	lea    0x0(%esi,%eiz,1),%esi
     dc0:	8b 86 e8 08 01 00    	mov    0x108e8(%esi),%eax
     dc6:	8d 50 01             	lea    0x1(%eax),%edx
     dc9:	89 96 e8 08 01 00    	mov    %edx,0x108e8(%esi)
     dcf:	0f b6 38             	movzbl (%eax),%edi
     dd2:	81 e7 ff 00 00 00    	and    $0xff,%edi
     dd8:	89 f8                	mov    %edi,%eax
     dda:	d3 e0                	shl    %cl,%eax
     ddc:	83 c1 08             	add    $0x8,%ecx
     ddf:	09 c5                	or     %eax,%ebp
     de1:	39 cb                	cmp    %ecx,%ebx
     de3:	0f 86 cc 00 00 00    	jbe    eb5 <_explode+0xdb5>
     de9:	8b 86 ec 08 01 00    	mov    0x108ec(%esi),%eax
     def:	85 c0                	test   %eax,%eax
     df1:	8d 50 ff             	lea    -0x1(%eax),%edx
     df4:	89 96 ec 08 01 00    	mov    %edx,0x108ec(%esi)
     dfa:	7f c4                	jg     dc0 <_explode+0xcc0>
     dfc:	89 34 24             	mov    %esi,(%esp)
     dff:	89 4c 24 28          	mov    %ecx,0x28(%esp)
     e03:	e8 00 00 00 00       	call   e08 <_explode+0xd08>
     e08:	8b 4c 24 28          	mov    0x28(%esp),%ecx
     e0c:	eb cc                	jmp    dda <_explode+0xcda>
  md = mask_bits[bd];
  mdl = mask_bits[bdl];
  s = G.lrec.ucsize;
  while (s > 0)                 /* do until ucsize bytes uncompressed */
  {
    NEEDBITS(1)
     e0e:	89 34 24             	mov    %esi,(%esp)
     e11:	e8 00 00 00 00       	call   e16 <_explode+0xd16>
     e16:	e9 83 fe ff ff       	jmp    c9e <_explode+0xb9e>
    if (b & 1)                  /* then literal--get eight bits */
     e1b:	f6 44 24 28 01       	testb  $0x1,0x28(%esp)
     e20:	75 73                	jne    e95 <_explode+0xd95>
      }
      DUMPBITS(8)
    }
    else                        /* else distance/length */
    {
      DUMPBITS(1)
     e22:	8b 44 24 28          	mov    0x28(%esp),%eax
     e26:	8d 5d ff             	lea    -0x1(%ebp),%ebx
     e29:	d1 e8                	shr    %eax
      NEEDBITS(bdl)             /* get distance low bits */
     e2b:	39 5c 24 34          	cmp    %ebx,0x34(%esp)
      }
      DUMPBITS(8)
    }
    else                        /* else distance/length */
    {
      DUMPBITS(1)
     e2f:	89 44 24 2c          	mov    %eax,0x2c(%esp)
      NEEDBITS(bdl)             /* get distance low bits */
     e33:	0f 86 62 ff ff ff    	jbe    d9b <_explode+0xc9b>
     e39:	8b 86 ec 08 01 00    	mov    0x108ec(%esi),%eax
     e3f:	85 c0                	test   %eax,%eax
     e41:	8d 50 ff             	lea    -0x1(%eax),%edx
     e44:	89 96 ec 08 01 00    	mov    %edx,0x108ec(%esi)
     e4a:	7e 3f                	jle    e8b <_explode+0xd8b>
     e4c:	8b 86 e8 08 01 00    	mov    0x108e8(%esi),%eax
     e52:	8d 50 01             	lea    0x1(%eax),%edx
     e55:	89 96 e8 08 01 00    	mov    %edx,0x108e8(%esi)
     e5b:	0f b6 38             	movzbl (%eax),%edi
     e5e:	81 e7 ff 00 00 00    	and    $0xff,%edi
     e64:	89 f8                	mov    %edi,%eax
     e66:	88 d9                	mov    %bl,%cl
     e68:	83 c3 08             	add    $0x8,%ebx
     e6b:	d3 e0                	shl    %cl,%eax
     e6d:	09 44 24 2c          	or     %eax,0x2c(%esp)
     e71:	e9 25 ff ff ff       	jmp    d9b <_explode+0xc9b>
    NEEDBITS(1)
    if (b & 1)                  /* then literal--get eight bits */
    {
      DUMPBITS(1)
      s--;
      NEEDBITS(8)
     e76:	89 34 24             	mov    %esi,(%esp)
     e79:	89 4c 24 28          	mov    %ecx,0x28(%esp)
     e7d:	e8 00 00 00 00       	call   e82 <_explode+0xd82>
     e82:	8b 4c 24 28          	mov    0x28(%esp),%ecx
     e86:	e9 5f fe ff ff       	jmp    cea <_explode+0xbea>
      DUMPBITS(8)
    }
    else                        /* else distance/length */
    {
      DUMPBITS(1)
      NEEDBITS(bdl)             /* get distance low bits */
     e8b:	89 34 24             	mov    %esi,(%esp)
     e8e:	e8 00 00 00 00       	call   e93 <_explode+0xd93>
     e93:	eb d1                	jmp    e66 <_explode+0xd66>
  {
    NEEDBITS(1)
    if (b & 1)                  /* then literal--get eight bits */
    {
      DUMPBITS(1)
      s--;
     e95:	8b 7c 24 40          	mov    0x40(%esp),%edi
  while (s > 0)                 /* do until ucsize bytes uncompressed */
  {
    NEEDBITS(1)
    if (b & 1)                  /* then literal--get eight bits */
    {
      DUMPBITS(1)
     e99:	8b 5c 24 28          	mov    0x28(%esp),%ebx
      s--;
     e9d:	4f                   	dec    %edi
  while (s > 0)                 /* do until ucsize bytes uncompressed */
  {
    NEEDBITS(1)
    if (b & 1)                  /* then literal--get eight bits */
    {
      DUMPBITS(1)
     e9e:	8d 4d ff             	lea    -0x1(%ebp),%ecx
     ea1:	d1 eb                	shr    %ebx
      s--;
     ea3:	89 7c 24 40          	mov    %edi,0x40(%esp)
      NEEDBITS(8)
     ea7:	83 f9 07             	cmp    $0x7,%ecx
     eaa:	0f 86 09 fe ff ff    	jbe    cb9 <_explode+0xbb9>
     eb0:	e9 3c fe ff ff       	jmp    cf1 <_explode+0xbf1>
     eb5:	89 cb                	mov    %ecx,%ebx
    {
      DUMPBITS(1)
      NEEDBITS(bdl)             /* get distance low bits */
      d = (unsigned)b & mdl;
      DUMPBITS(bdl)
      DECODEHUFT(td, bd, md)    /* get coded distance high bits */
     eb7:	89 e8                	mov    %ebp,%eax
     eb9:	8b 54 24 4c          	mov    0x4c(%esp),%edx
     ebd:	83 f0 ff             	xor    $0xffffffff,%eax
     ec0:	8b 7c 24 48          	mov    0x48(%esp),%edi
     ec4:	21 d0                	and    %edx,%eax
     ec6:	8d 14 c7             	lea    (%edi,%eax,8),%edx
     ec9:	8d b4 26 00 00 00 00 	lea    0x0(%esi,%eiz,1),%esi
     ed0:	31 c0                	xor    %eax,%eax
     ed2:	8a 4a 01             	mov    0x1(%edx),%cl
     ed5:	8a 42 01             	mov    0x1(%edx),%al
     ed8:	d3 ed                	shr    %cl,%ebp
     eda:	29 c3                	sub    %eax,%ebx
     edc:	31 c9                	xor    %ecx,%ecx
     ede:	8a 02                	mov    (%edx),%al
     ee0:	88 c1                	mov    %al,%cl
     ee2:	83 f9 20             	cmp    $0x20,%ecx
     ee5:	0f 86 54 01 00 00    	jbe    103f <_explode+0xf3f>
     eeb:	83 f9 63             	cmp    $0x63,%ecx
     eee:	0f 84 cd 00 00 00    	je     fc1 <_explode+0xec1>
     ef4:	89 c7                	mov    %eax,%edi
     ef6:	83 e7 1f             	and    $0x1f,%edi
     ef9:	39 df                	cmp    %ebx,%edi
     efb:	76 57                	jbe    f54 <_explode+0xe54>
     efd:	89 d9                	mov    %ebx,%ecx
     eff:	89 d3                	mov    %edx,%ebx
     f01:	eb 24                	jmp    f27 <_explode+0xe27>
     f03:	8b 86 e8 08 01 00    	mov    0x108e8(%esi),%eax
     f09:	8d 50 01             	lea    0x1(%eax),%edx
     f0c:	89 96 e8 08 01 00    	mov    %edx,0x108e8(%esi)
     f12:	8a 10                	mov    (%eax),%dl
     f14:	81 e2 ff 00 00 00    	and    $0xff,%edx
     f1a:	89 d0                	mov    %edx,%eax
     f1c:	d3 e0                	shl    %cl,%eax
     f1e:	83 c1 08             	add    $0x8,%ecx
     f21:	09 c5                	or     %eax,%ebp
     f23:	39 cf                	cmp    %ecx,%edi
     f25:	76 29                	jbe    f50 <_explode+0xe50>
     f27:	8b 86 ec 08 01 00    	mov    0x108ec(%esi),%eax
     f2d:	85 c0                	test   %eax,%eax
     f2f:	8d 50 ff             	lea    -0x1(%eax),%edx
     f32:	89 96 ec 08 01 00    	mov    %edx,0x108ec(%esi)
     f38:	7f c9                	jg     f03 <_explode+0xe03>
     f3a:	89 34 24             	mov    %esi,(%esp)
     f3d:	89 4c 24 28          	mov    %ecx,0x28(%esp)
     f41:	e8 00 00 00 00       	call   f46 <_explode+0xe46>
     f46:	8b 4c 24 28          	mov    0x28(%esp),%ecx
     f4a:	eb d0                	jmp    f1c <_explode+0xe1c>
     f4c:	8d 74 26 00          	lea    0x0(%esi,%eiz,1),%esi
     f50:	89 da                	mov    %ebx,%edx
     f52:	89 cb                	mov    %ecx,%ebx
     f54:	89 e8                	mov    %ebp,%eax
     f56:	8b 0c bd 00 00 00 00 	mov    0x0(,%edi,4),%ecx
     f5d:	83 f0 ff             	xor    $0xffffffff,%eax
     f60:	8b 7a 04             	mov    0x4(%edx),%edi
     f63:	21 c8                	and    %ecx,%eax
     f65:	8d 04 c7             	lea    (%edi,%eax,8),%eax
     f68:	89 c2                	mov    %eax,%edx
     f6a:	e9 61 ff ff ff       	jmp    ed0 <_explode+0xdd0>
    r = huft_build(__G__ l, 64, 0, cpdist4, extra, &td, &bd);
  }
  if (r != 0)
  {
    if (r == 1)
      huft_free(td);
     f6f:	8b 84 24 80 00 00 00 	mov    0x80(%esp),%eax
     f76:	89 04 24             	mov    %eax,(%esp)
     f79:	e8 00 00 00 00       	call   f7e <_explode+0xe7e>
     f7e:	e9 b7 f3 ff ff       	jmp    33a <_explode+0x23a>
     f83:	89 ea                	mov    %ebp,%edx
     f85:	89 cd                	mov    %ecx,%ebp
      NEEDBITS(bdl)             /* get distance low bits */
      d = (unsigned)b & mdl;
      DUMPBITS(bdl)
      DECODEHUFT(td, bd, md)    /* get coded distance high bits */
      d = w - d - t->v.n;       /* construct offset */
      DECODEHUFT(tl, bl, ml)    /* get coded length */
     f87:	89 d8                	mov    %ebx,%eax
     f89:	8b 0c bd 00 00 00 00 	mov    0x0(,%edi,4),%ecx
     f90:	83 f0 ff             	xor    $0xffffffff,%eax
     f93:	8b 7a 04             	mov    0x4(%edx),%edi
     f96:	21 c8                	and    %ecx,%eax
     f98:	8d 04 c7             	lea    (%edi,%eax,8),%eax
     f9b:	89 c2                	mov    %eax,%edx
     f9d:	31 c0                	xor    %eax,%eax
     f9f:	8a 42 01             	mov    0x1(%edx),%al
     fa2:	8a 4a 01             	mov    0x1(%edx),%cl
     fa5:	d3 eb                	shr    %cl,%ebx
     fa7:	29 c5                	sub    %eax,%ebp
     fa9:	8a 0a                	mov    (%edx),%cl
     fab:	31 c0                	xor    %eax,%eax
     fad:	88 c8                	mov    %cl,%al
     faf:	83 f8 20             	cmp    $0x20,%eax
     fb2:	0f 86 89 01 00 00    	jbe    1141 <_explode+0x1041>
     fb8:	83 f8 63             	cmp    $0x63,%eax
     fbb:	0f 85 20 01 00 00    	jne    10e1 <_explode+0xfe1>
      s--;
      NEEDBITS(8)
      redirSlide[w++] = (uch)b;
      if (w == wszimpl)
      {
        if ((retval = flush(__G__ redirSlide, (ulg)w, 0)) != 0)
     fc1:	c7 44 24 24 01 00 00 	movl   $0x1,0x24(%esp)
     fc8:	00 
     fc9:	e9 45 f7 ff ff       	jmp    713 <_explode+0x613>
     fce:	4b                   	dec    %ebx
  mdl = mask_bits[bdl];
  s = G.lrec.ucsize;
  while (s > 0)                 /* do until ucsize bytes uncompressed */
  {
    NEEDBITS(1)
    if (b & 1)                  /* then literal--decode it */
     fcf:	f7 c5 01 00 00 00    	test   $0x1,%ebp
     fd5:	0f 85 9a f5 ff ff    	jne    575 <_explode+0x475>
        w = u = 0;
      }
    }
    else                        /* else distance/length */
    {
      DUMPBITS(1)
     fdb:	d1 ed                	shr    %ebp
      NEEDBITS(bdl)             /* get distance low bits */
     fdd:	39 5c 24 34          	cmp    %ebx,0x34(%esp)
        w = u = 0;
      }
    }
    else                        /* else distance/length */
    {
      DUMPBITS(1)
     fe1:	89 6c 24 30          	mov    %ebp,0x30(%esp)
      NEEDBITS(bdl)             /* get distance low bits */
     fe5:	0f 86 15 f5 ff ff    	jbe    500 <_explode+0x400>
     feb:	8b 86 ec 08 01 00    	mov    0x108ec(%esi),%eax
     ff1:	85 c0                	test   %eax,%eax
     ff3:	8d 50 ff             	lea    -0x1(%eax),%edx
     ff6:	89 96 ec 08 01 00    	mov    %edx,0x108ec(%esi)
     ffc:	7e 2a                	jle    1028 <_explode+0xf28>
     ffe:	8b 86 e8 08 01 00    	mov    0x108e8(%esi),%eax
    1004:	8d 50 01             	lea    0x1(%eax),%edx
    1007:	89 96 e8 08 01 00    	mov    %edx,0x108e8(%esi)
    100d:	0f b6 38             	movzbl (%eax),%edi
    1010:	81 e7 ff 00 00 00    	and    $0xff,%edi
    1016:	89 f8                	mov    %edi,%eax
    1018:	88 d9                	mov    %bl,%cl
    101a:	83 c3 08             	add    $0x8,%ebx
    101d:	d3 e0                	shl    %cl,%eax
    101f:	09 44 24 30          	or     %eax,0x30(%esp)
    1023:	e9 d8 f4 ff ff       	jmp    500 <_explode+0x400>
    1028:	89 34 24             	mov    %esi,(%esp)
    102b:	e8 00 00 00 00       	call   1030 <_explode+0xf30>
    1030:	eb e6                	jmp    1018 <_explode+0xf18>
      d = w - d - t->v.n;       /* construct offset */
      DECODEHUFT(tl, bl, ml)    /* get coded length */
      n = t->v.n;
      if (e)                    /* get length extra bits */
      {
        NEEDBITS(8)
    1032:	89 34 24             	mov    %esi,(%esp)
    1035:	e8 00 00 00 00       	call   103a <_explode+0xf3a>
    103a:	e9 b8 f9 ff ff       	jmp    9f7 <_explode+0x8f7>
      DUMPBITS(1)
      NEEDBITS(bdl)             /* get distance low bits */
      d = (unsigned)b & mdl;
      DUMPBITS(bdl)
      DECODEHUFT(td, bd, md)    /* get coded distance high bits */
      d = w - d - t->v.n;       /* construct offset */
    103f:	8b 42 04             	mov    0x4(%edx),%eax
    1042:	66 89 44 24 60       	mov    %ax,0x60(%esp)
      DECODEHUFT(tl, bl, ml)    /* get coded length */
    1047:	8b 44 24 54          	mov    0x54(%esp),%eax
    104b:	39 d8                	cmp    %ebx,%eax
    104d:	76 52                	jbe    10a1 <_explode+0xfa1>
    104f:	89 d9                	mov    %ebx,%ecx
    1051:	89 c3                	mov    %eax,%ebx
    1053:	eb 25                	jmp    107a <_explode+0xf7a>
    1055:	8b 86 e8 08 01 00    	mov    0x108e8(%esi),%eax
    105b:	8d 50 01             	lea    0x1(%eax),%edx
    105e:	89 96 e8 08 01 00    	mov    %edx,0x108e8(%esi)
    1064:	0f b6 38             	movzbl (%eax),%edi
    1067:	81 e7 ff 00 00 00    	and    $0xff,%edi
    106d:	89 f8                	mov    %edi,%eax
    106f:	d3 e0                	shl    %cl,%eax
    1071:	83 c1 08             	add    $0x8,%ecx
    1074:	09 c5                	or     %eax,%ebp
    1076:	39 cb                	cmp    %ecx,%ebx
    1078:	76 25                	jbe    109f <_explode+0xf9f>
    107a:	8b 86 ec 08 01 00    	mov    0x108ec(%esi),%eax
    1080:	85 c0                	test   %eax,%eax
    1082:	8d 50 ff             	lea    -0x1(%eax),%edx
    1085:	89 96 ec 08 01 00    	mov    %edx,0x108ec(%esi)
    108b:	7f c8                	jg     1055 <_explode+0xf55>
    108d:	89 34 24             	mov    %esi,(%esp)
    1090:	89 4c 24 28          	mov    %ecx,0x28(%esp)
    1094:	e8 00 00 00 00       	call   1099 <_explode+0xf99>
    1099:	8b 4c 24 28          	mov    0x28(%esp),%ecx
    109d:	eb d0                	jmp    106f <_explode+0xf6f>
    109f:	89 cb                	mov    %ecx,%ebx
    10a1:	89 e8                	mov    %ebp,%eax
    10a3:	8b 54 24 50          	mov    0x50(%esp),%edx
    10a7:	83 f0 ff             	xor    $0xffffffff,%eax
    10aa:	8b 7c 24 58          	mov    0x58(%esp),%edi
    10ae:	21 d0                	and    %edx,%eax
    10b0:	8d 3c c7             	lea    (%edi,%eax,8),%edi
    10b3:	31 c0                	xor    %eax,%eax
    10b5:	8a 47 01             	mov    0x1(%edi),%al
    10b8:	8a 4f 01             	mov    0x1(%edi),%cl
    10bb:	29 c3                	sub    %eax,%ebx
    10bd:	31 c0                	xor    %eax,%eax
    10bf:	d3 ed                	shr    %cl,%ebp
    10c1:	89 6c 24 28          	mov    %ebp,0x28(%esp)
    10c5:	89 dd                	mov    %ebx,%ebp
    10c7:	8a 1f                	mov    (%edi),%bl
    10c9:	88 d8                	mov    %bl,%al
    10cb:	83 f8 20             	cmp    $0x20,%eax
    10ce:	76 77                	jbe    1147 <_explode+0x1047>
    10d0:	83 f8 63             	cmp    $0x63,%eax
    10d3:	0f 84 e8 fe ff ff    	je     fc1 <_explode+0xec1>
    10d9:	88 d9                	mov    %bl,%cl
    10db:	89 fa                	mov    %edi,%edx
    10dd:	8b 5c 24 28          	mov    0x28(%esp),%ebx
    10e1:	89 cf                	mov    %ecx,%edi
    10e3:	83 e7 1f             	and    $0x1f,%edi
    10e6:	39 ef                	cmp    %ebp,%edi
    10e8:	0f 86 99 fe ff ff    	jbe    f87 <_explode+0xe87>
    10ee:	89 e9                	mov    %ebp,%ecx
    10f0:	89 d5                	mov    %edx,%ebp
    10f2:	eb 28                	jmp    111c <_explode+0x101c>
    10f4:	8b 86 e8 08 01 00    	mov    0x108e8(%esi),%eax
    10fa:	8d 50 01             	lea    0x1(%eax),%edx
    10fd:	89 96 e8 08 01 00    	mov    %edx,0x108e8(%esi)
    1103:	8a 10                	mov    (%eax),%dl
    1105:	81 e2 ff 00 00 00    	and    $0xff,%edx
    110b:	89 d0                	mov    %edx,%eax
    110d:	d3 e0                	shl    %cl,%eax
    110f:	83 c1 08             	add    $0x8,%ecx
    1112:	09 c3                	or     %eax,%ebx
    1114:	39 cf                	cmp    %ecx,%edi
    1116:	0f 86 67 fe ff ff    	jbe    f83 <_explode+0xe83>
    111c:	8b 86 ec 08 01 00    	mov    0x108ec(%esi),%eax
    1122:	85 c0                	test   %eax,%eax
    1124:	8d 50 ff             	lea    -0x1(%eax),%edx
    1127:	89 96 ec 08 01 00    	mov    %edx,0x108ec(%esi)
    112d:	7f c5                	jg     10f4 <_explode+0xff4>
    112f:	89 34 24             	mov    %esi,(%esp)
    1132:	89 4c 24 28          	mov    %ecx,0x28(%esp)
    1136:	e8 00 00 00 00       	call   113b <_explode+0x103b>
    113b:	8b 4c 24 28          	mov    0x28(%esp),%ecx
    113f:	eb cc                	jmp    110d <_explode+0x100d>
    1141:	89 5c 24 28          	mov    %ebx,0x28(%esp)
    1145:	89 d7                	mov    %edx,%edi
      n = t->v.n;
    1147:	31 db                	xor    %ebx,%ebx
      if (e)                    /* get length extra bits */
    1149:	85 c0                	test   %eax,%eax
      d = (unsigned)b & mdl;
      DUMPBITS(bdl)
      DECODEHUFT(td, bd, md)    /* get coded distance high bits */
      d = w - d - t->v.n;       /* construct offset */
      DECODEHUFT(tl, bl, ml)    /* get coded length */
      n = t->v.n;
    114b:	66 8b 5f 04          	mov    0x4(%edi),%bx
    114f:	89 5c 24 30          	mov    %ebx,0x30(%esp)
      if (e)                    /* get length extra bits */
    1153:	74 5e                	je     11b3 <_explode+0x10b3>
      {
        NEEDBITS(8)
    1155:	83 fd 07             	cmp    $0x7,%ebp
    1158:	77 3b                	ja     1195 <_explode+0x1095>
    115a:	8b 86 ec 08 01 00    	mov    0x108ec(%esi),%eax
    1160:	85 c0                	test   %eax,%eax
    1162:	8d 50 ff             	lea    -0x1(%eax),%edx
    1165:	89 96 ec 08 01 00    	mov    %edx,0x108ec(%esi)
    116b:	0f 8e 51 02 00 00    	jle    13c2 <_explode+0x12c2>
    1171:	8b 86 e8 08 01 00    	mov    0x108e8(%esi),%eax
    1177:	8d 50 01             	lea    0x1(%eax),%edx
    117a:	89 96 e8 08 01 00    	mov    %edx,0x108e8(%esi)
    1180:	8a 18                	mov    (%eax),%bl
    1182:	81 e3 ff 00 00 00    	and    $0xff,%ebx
    1188:	89 d8                	mov    %ebx,%eax
    118a:	89 e9                	mov    %ebp,%ecx
    118c:	83 c5 08             	add    $0x8,%ebp
    118f:	d3 e0                	shl    %cl,%eax
    1191:	09 44 24 28          	or     %eax,0x28(%esp)
        n += (unsigned)b & 0xff;
    1195:	8b 5c 24 28          	mov    0x28(%esp),%ebx
    1199:	31 c0                	xor    %eax,%eax
    119b:	88 d8                	mov    %bl,%al
    119d:	8b 4c 24 30          	mov    0x30(%esp),%ecx
    11a1:	01 c1                	add    %eax,%ecx
        DUMPBITS(8)
    11a3:	89 d8                	mov    %ebx,%eax
    11a5:	c1 e8 08             	shr    $0x8,%eax
      DECODEHUFT(tl, bl, ml)    /* get coded length */
      n = t->v.n;
      if (e)                    /* get length extra bits */
      {
        NEEDBITS(8)
        n += (unsigned)b & 0xff;
    11a8:	89 4c 24 30          	mov    %ecx,0x30(%esp)
        DUMPBITS(8)
    11ac:	89 44 24 28          	mov    %eax,0x28(%esp)
    11b0:	83 ed 08             	sub    $0x8,%ebp
      }

      /* do the copy */
      s = (s > (ulg)n ? s - (ulg)n : 0);
    11b3:	8b 5c 24 40          	mov    0x40(%esp),%ebx
    11b7:	8b 7c 24 30          	mov    0x30(%esp),%edi
    11bb:	89 d8                	mov    %ebx,%eax
    }
    else                        /* else distance/length */
    {
      DUMPBITS(1)
      NEEDBITS(bdl)             /* get distance low bits */
      d = (unsigned)b & mdl;
    11bd:	8b 54 24 5c          	mov    0x5c(%esp),%edx
        n += (unsigned)b & 0xff;
        DUMPBITS(8)
      }

      /* do the copy */
      s = (s > (ulg)n ? s - (ulg)n : 0);
    11c1:	29 f8                	sub    %edi,%eax
    11c3:	39 df                	cmp    %ebx,%edi
    11c5:	bb 00 00 00 00       	mov    $0x0,%ebx
    11ca:	0f 43 c3             	cmovae %ebx,%eax
    11cd:	89 44 24 40          	mov    %eax,0x40(%esp)
      DUMPBITS(1)
      NEEDBITS(bdl)             /* get distance low bits */
      d = (unsigned)b & mdl;
      DUMPBITS(bdl)
      DECODEHUFT(td, bd, md)    /* get coded distance high bits */
      d = w - d - t->v.n;       /* construct offset */
    11d1:	8b 5c 24 3c          	mov    0x3c(%esp),%ebx
    }
    else                        /* else distance/length */
    {
      DUMPBITS(1)
      NEEDBITS(bdl)             /* get distance low bits */
      d = (unsigned)b & mdl;
    11d5:	8b 44 24 2c          	mov    0x2c(%esp),%eax
      DUMPBITS(bdl)
      DECODEHUFT(td, bd, md)    /* get coded distance high bits */
      d = w - d - t->v.n;       /* construct offset */
    11d9:	89 6c 24 3c          	mov    %ebp,0x3c(%esp)
    }
    else                        /* else distance/length */
    {
      DUMPBITS(1)
      NEEDBITS(bdl)             /* get distance low bits */
      d = (unsigned)b & mdl;
    11dd:	21 d0                	and    %edx,%eax
      DUMPBITS(bdl)
      DECODEHUFT(td, bd, md)    /* get coded distance high bits */
      d = w - d - t->v.n;       /* construct offset */
    11df:	89 da                	mov    %ebx,%edx
    11e1:	29 c2                	sub    %eax,%edx
    11e3:	31 c0                	xor    %eax,%eax
    11e5:	66 8b 44 24 60       	mov    0x60(%esp),%ax
    11ea:	29 c2                	sub    %eax,%edx
    11ec:	89 54 24 2c          	mov    %edx,0x2c(%esp)

      /* do the copy */
      s = (s > (ulg)n ? s - (ulg)n : 0);
      do {
#if (defined(DLL) && !defined(NO_SLIDE_REDIR))
        if (G.redirect_slide) {
    11f0:	8b ae a8 00 00 00    	mov    0xa8(%esi),%ebp
    11f6:	85 ed                	test   %ebp,%ebp
          /* &= w/ wszimpl not needed and wrong if redirect */
          if (d >= wszimpl)
    11f8:	8b ae ac 00 00 00    	mov    0xac(%esi),%ebp

      /* do the copy */
      s = (s > (ulg)n ? s - (ulg)n : 0);
      do {
#if (defined(DLL) && !defined(NO_SLIDE_REDIR))
        if (G.redirect_slide) {
    11fe:	0f 84 91 00 00 00    	je     1295 <_explode+0x1195>
          /* &= w/ wszimpl not needed and wrong if redirect */
          if (d >= wszimpl)
    1204:	8b 44 24 2c          	mov    0x2c(%esp),%eax
    1208:	39 c5                	cmp    %eax,%ebp
    120a:	0f 86 b1 fd ff ff    	jbe    fc1 <_explode+0xec1>
            return 1;
          e = wszimpl - (d > w ? d : w);
    1210:	39 c3                	cmp    %eax,%ebx
    1212:	0f 43 c3             	cmovae %ebx,%eax
    1215:	29 c5                	sub    %eax,%ebp
    1217:	8b 44 24 30          	mov    0x30(%esp),%eax
    121b:	39 c5                	cmp    %eax,%ebp
    121d:	0f 47 e8             	cmova  %eax,%ebp
        } else
#endif
          e = wszimpl - ((d &= wszimpl-1) > w ? d : w);
        if (e > n) e = n;
        n -= e;
    1220:	29 e8                	sub    %ebp,%eax
        if (u && w <= d)
    1222:	3b 5c 24 2c          	cmp    0x2c(%esp),%ebx
          e = wszimpl - (d > w ? d : w);
        } else
#endif
          e = wszimpl - ((d &= wszimpl-1) > w ? d : w);
        if (e > n) e = n;
        n -= e;
    1226:	89 44 24 30          	mov    %eax,0x30(%esp)
        if (u && w <= d)
        {
          memzero(redirSlide + w, e);
    122a:	89 d8                	mov    %ebx,%eax
        } else
#endif
          e = wszimpl - ((d &= wszimpl-1) > w ? d : w);
        if (e > n) e = n;
        n -= e;
        if (u && w <= d)
    122c:	77 08                	ja     1236 <_explode+0x1136>
    122e:	8b 4c 24 38          	mov    0x38(%esp),%ecx
    1232:	85 c9                	test   %ecx,%ecx
    1234:	75 7e                	jne    12b4 <_explode+0x11b4>
          w += e;
          d += e;
        }
        else
#ifndef NOMEMCPY
          if (w - d >= e)       /* (this test assumes unsigned comparison) */
    1236:	8b 7c 24 2c          	mov    0x2c(%esp),%edi
    123a:	29 f8                	sub    %edi,%eax
    123c:	39 c5                	cmp    %eax,%ebp
    123e:	0f 86 a8 00 00 00    	jbe    12ec <_explode+0x11ec>
    1244:	89 d8                	mov    %ebx,%eax
    1246:	8d 7c 1d 00          	lea    0x0(%ebp,%ebx,1),%edi
    124a:	8b 5c 24 2c          	mov    0x2c(%esp),%ebx
    124e:	29 c3                	sub    %eax,%ebx
            d += e;
          }
          else                  /* do it slow to avoid memcpy() overlap */
#endif /* !NOMEMCPY */
            do {
              redirSlide[w++] = redirSlide[d++];
    1250:	8b 96 bc 00 00 00    	mov    0xbc(%esi),%edx
    1256:	8d 0c 02             	lea    (%edx,%eax,1),%ecx
    1259:	8a 0c 19             	mov    (%ecx,%ebx,1),%cl
    125c:	88 0c 02             	mov    %cl,(%edx,%eax,1)
    125f:	40                   	inc    %eax
            } while (--e);
    1260:	39 f8                	cmp    %edi,%eax
    1262:	75 ec                	jne    1250 <_explode+0x1150>
    1264:	8b 4c 24 2c          	mov    0x2c(%esp),%ecx
    1268:	89 c3                	mov    %eax,%ebx
    126a:	01 e9                	add    %ebp,%ecx
    126c:	89 4c 24 2c          	mov    %ecx,0x2c(%esp)
        if (w == wszimpl)
    1270:	39 9e ac 00 00 00    	cmp    %ebx,0xac(%esi)
    1276:	0f 84 9c 00 00 00    	je     1318 <_explode+0x1218>
        {
          if ((retval = flush(__G__ redirSlide, (ulg)w, 0)) != 0)
            return retval;
          w = u = 0;
        }
      } while (n);
    127c:	8b 54 24 30          	mov    0x30(%esp),%edx
    1280:	85 d2                	test   %edx,%edx
    1282:	0f 85 68 ff ff ff    	jne    11f0 <_explode+0x10f0>
    1288:	8b 6c 24 3c          	mov    0x3c(%esp),%ebp
    128c:	89 5c 24 3c          	mov    %ebx,0x3c(%esp)
    1290:	e9 86 fa ff ff       	jmp    d1b <_explode+0xc1b>
          if (d >= wszimpl)
            return 1;
          e = wszimpl - (d > w ? d : w);
        } else
#endif
          e = wszimpl - ((d &= wszimpl-1) > w ? d : w);
    1295:	8d 45 ff             	lea    -0x1(%ebp),%eax
    1298:	8b 7c 24 2c          	mov    0x2c(%esp),%edi
    129c:	21 c7                	and    %eax,%edi
    129e:	89 7c 24 2c          	mov    %edi,0x2c(%esp)
    12a2:	8b 7c 24 2c          	mov    0x2c(%esp),%edi
    12a6:	89 f8                	mov    %edi,%eax
    12a8:	39 df                	cmp    %ebx,%edi
    12aa:	0f 42 c3             	cmovb  %ebx,%eax
    12ad:	29 c5                	sub    %eax,%ebp
    12af:	e9 63 ff ff ff       	jmp    1217 <_explode+0x1117>
        if (e > n) e = n;
        n -= e;
        if (u && w <= d)
        {
          memzero(redirSlide + w, e);
    12b4:	8b 96 bc 00 00 00    	mov    0xbc(%esi),%edx
    12ba:	01 d0                	add    %edx,%eax
    12bc:	89 ea                	mov    %ebp,%edx
    12be:	89 c7                	mov    %eax,%edi
    12c0:	83 fd 04             	cmp    $0x4,%ebp
    12c3:	0f 83 84 00 00 00    	jae    134d <_explode+0x124d>
    12c9:	f6 c2 02             	test   $0x2,%dl
    12cc:	74 08                	je     12d6 <_explode+0x11d6>
    12ce:	66 c7 07 00 00       	movw   $0x0,(%edi)
    12d3:	83 c7 02             	add    $0x2,%edi
    12d6:	83 e2 01             	and    $0x1,%edx
    12d9:	74 03                	je     12de <_explode+0x11de>
    12db:	c6 07 00             	movb   $0x0,(%edi)
          w += e;
          d += e;
    12de:	8b 44 24 2c          	mov    0x2c(%esp),%eax
        if (e > n) e = n;
        n -= e;
        if (u && w <= d)
        {
          memzero(redirSlide + w, e);
          w += e;
    12e2:	01 eb                	add    %ebp,%ebx
          d += e;
    12e4:	01 e8                	add    %ebp,%eax
    12e6:	89 44 24 2c          	mov    %eax,0x2c(%esp)
    12ea:	eb 84                	jmp    1270 <_explode+0x1170>
        }
        else
#ifndef NOMEMCPY
          if (w - d >= e)       /* (this test assumes unsigned comparison) */
          {
            memcpy(redirSlide + w, redirSlide + d, e);
    12ec:	8b 86 bc 00 00 00    	mov    0xbc(%esi),%eax
    12f2:	8b 7c 24 2c          	mov    0x2c(%esp),%edi
    12f6:	89 6c 24 08          	mov    %ebp,0x8(%esp)
    12fa:	8d 14 18             	lea    (%eax,%ebx,1),%edx
    12fd:	01 f8                	add    %edi,%eax
    12ff:	89 44 24 04          	mov    %eax,0x4(%esp)
    1303:	89 14 24             	mov    %edx,(%esp)
            w += e;
            d += e;
    1306:	01 ef                	add    %ebp,%edi
        }
        else
#ifndef NOMEMCPY
          if (w - d >= e)       /* (this test assumes unsigned comparison) */
          {
            memcpy(redirSlide + w, redirSlide + d, e);
    1308:	e8 00 00 00 00       	call   130d <_explode+0x120d>
            w += e;
    130d:	01 eb                	add    %ebp,%ebx
            d += e;
    130f:	89 7c 24 2c          	mov    %edi,0x2c(%esp)
    1313:	e9 58 ff ff ff       	jmp    1270 <_explode+0x1170>
            do {
              redirSlide[w++] = redirSlide[d++];
            } while (--e);
        if (w == wszimpl)
        {
          if ((retval = flush(__G__ redirSlide, (ulg)w, 0)) != 0)
    1318:	c7 44 24 0c 00 00 00 	movl   $0x0,0xc(%esp)
    131f:	00 
    1320:	89 5c 24 08          	mov    %ebx,0x8(%esp)
    1324:	8b 86 bc 00 00 00    	mov    0xbc(%esi),%eax
    132a:	89 34 24             	mov    %esi,(%esp)
    132d:	89 44 24 04          	mov    %eax,0x4(%esp)
    1331:	e8 00 00 00 00       	call   1336 <_explode+0x1236>
    1336:	85 c0                	test   %eax,%eax
    1338:	0f 85 fe 00 00 00    	jne    143c <_explode+0x133c>
            return retval;
          w = u = 0;
    133e:	c7 44 24 38 00 00 00 	movl   $0x0,0x38(%esp)
    1345:	00 
    1346:	31 db                	xor    %ebx,%ebx
    1348:	e9 2f ff ff ff       	jmp    127c <_explode+0x117c>
          e = wszimpl - ((d &= wszimpl-1) > w ? d : w);
        if (e > n) e = n;
        n -= e;
        if (u && w <= d)
        {
          memzero(redirSlide + w, e);
    134d:	a8 01                	test   $0x1,%al
    134f:	0f 85 cc 00 00 00    	jne    1421 <_explode+0x1321>
    1355:	f7 c7 02 00 00 00    	test   $0x2,%edi
    135b:	0f 85 b0 00 00 00    	jne    1411 <_explode+0x1311>
    1361:	89 d1                	mov    %edx,%ecx
    1363:	31 c0                	xor    %eax,%eax
    1365:	c1 e9 02             	shr    $0x2,%ecx
    1368:	f3 ab                	rep stos %eax,%es:(%edi)
    136a:	e9 5a ff ff ff       	jmp    12c9 <_explode+0x11c9>
      s--;
      DECODEHUFT(tb, bb, mb)    /* get coded literal */
      redirSlide[w++] = (uch)t->v.n;
      if (w == wszimpl)
      {
        if ((retval = flush(__G__ redirSlide, (ulg)w, 0)) != 0)
    136f:	c7 44 24 0c 00 00 00 	movl   $0x0,0xc(%esp)
    1376:	00 
    1377:	89 44 24 08          	mov    %eax,0x8(%esp)
    137b:	8b 86 bc 00 00 00    	mov    0xbc(%esi),%eax
    1381:	89 34 24             	mov    %esi,(%esp)
    1384:	89 44 24 04          	mov    %eax,0x4(%esp)
    1388:	e8 00 00 00 00       	call   138d <_explode+0x128d>
    138d:	85 c0                	test   %eax,%eax
    138f:	75 3e                	jne    13cf <_explode+0x12cf>
          return retval;
        w = u = 0;
    1391:	c7 44 24 38 00 00 00 	movl   $0x0,0x38(%esp)
    1398:	00 
    1399:	c7 44 24 40 00 00 00 	movl   $0x0,0x40(%esp)
    13a0:	00 
    13a1:	e9 4c f4 ff ff       	jmp    7f2 <_explode+0x6f2>
          e = wszimpl - ((d &= wszimpl-1) > w ? d : w);
        if (e > n) e = n;
        n -= e;
        if (u && w <= d)
        {
          memzero(redirSlide + w, e);
    13a6:	66 c7 07 00 00       	movw   $0x0,(%edi)
    13ab:	83 ea 02             	sub    $0x2,%edx
    13ae:	83 c7 02             	add    $0x2,%edi
    13b1:	e9 2f f8 ff ff       	jmp    be5 <_explode+0xae5>
    13b6:	c6 00 00             	movb   $0x0,(%eax)
    13b9:	47                   	inc    %edi
    13ba:	8d 55 ff             	lea    -0x1(%ebp),%edx
    13bd:	e9 17 f8 ff ff       	jmp    bd9 <_explode+0xad9>
      d = w - d - t->v.n;       /* construct offset */
      DECODEHUFT(tl, bl, ml)    /* get coded length */
      n = t->v.n;
      if (e)                    /* get length extra bits */
      {
        NEEDBITS(8)
    13c2:	89 34 24             	mov    %esi,(%esp)
    13c5:	e8 00 00 00 00       	call   13ca <_explode+0x12ca>
    13ca:	e9 bb fd ff ff       	jmp    118a <_explode+0x108a>
      } while (n);
    }
  }

  /* flush out redirSlide */
  if ((retval = flush(__G__ redirSlide, (ulg)w, 0)) != 0)
    13cf:	89 44 24 24          	mov    %eax,0x24(%esp)
    13d3:	e9 2f f3 ff ff       	jmp    707 <_explode+0x607>
      s--;
      NEEDBITS(8)
      redirSlide[w++] = (uch)b;
      if (w == wszimpl)
      {
        if ((retval = flush(__G__ redirSlide, (ulg)w, 0)) != 0)
    13d8:	c7 44 24 0c 00 00 00 	movl   $0x0,0xc(%esp)
    13df:	00 
    13e0:	89 44 24 08          	mov    %eax,0x8(%esp)
    13e4:	8b 86 bc 00 00 00    	mov    0xbc(%esi),%eax
    13ea:	89 34 24             	mov    %esi,(%esp)
    13ed:	89 44 24 04          	mov    %eax,0x4(%esp)
    13f1:	89 4c 24 28          	mov    %ecx,0x28(%esp)
    13f5:	e8 00 00 00 00       	call   13fa <_explode+0x12fa>
    13fa:	8b 4c 24 28          	mov    0x28(%esp),%ecx
    13fe:	85 c0                	test   %eax,%eax
    1400:	75 3a                	jne    143c <_explode+0x133c>
          return retval;
        w = u = 0;
    1402:	c7 44 24 38 00 00 00 	movl   $0x0,0x38(%esp)
    1409:	00 
    140a:	31 c0                	xor    %eax,%eax
    140c:	e9 fc f8 ff ff       	jmp    d0d <_explode+0xc0d>
          e = wszimpl - ((d &= wszimpl-1) > w ? d : w);
        if (e > n) e = n;
        n -= e;
        if (u && w <= d)
        {
          memzero(redirSlide + w, e);
    1411:	66 c7 07 00 00       	movw   $0x0,(%edi)
    1416:	83 ea 02             	sub    $0x2,%edx
    1419:	83 c7 02             	add    $0x2,%edi
    141c:	e9 40 ff ff ff       	jmp    1361 <_explode+0x1261>
    1421:	c6 00 00             	movb   $0x0,(%eax)
    1424:	47                   	inc    %edi
    1425:	8d 55 ff             	lea    -0x1(%ebp),%edx
    1428:	e9 28 ff ff ff       	jmp    1355 <_explode+0x1255>
  unsigned u;           /* true if unflushed */
  int retval = 0;       /* error code returned: initialized to "no error" */


  /* explode the coded data */
  b = k = w = 0;                /* initialize bit buffer, window */
    142d:	31 ed                	xor    %ebp,%ebp
    142f:	c7 44 24 40 00 00 00 	movl   $0x0,0x40(%esp)
    1436:	00 
    1437:	e9 c4 f3 ff ff       	jmp    800 <_explode+0x700>
      } while (n);
    }
  }

  /* flush out redirSlide */
  if ((retval = flush(__G__ redirSlide, (ulg)w, 0)) != 0)
    143c:	89 44 24 24          	mov    %eax,0x24(%esp)
    1440:	e9 ce f2 ff ff       	jmp    713 <_explode+0x613>
  unsigned u;           /* true if unflushed */
  int retval = 0;       /* error code returned: initialized to "no error" */


  /* explode the coded data */
  b = k = w = 0;                /* initialize bit buffer, window */
    1445:	31 ed                	xor    %ebp,%ebp
    1447:	c7 44 24 3c 00 00 00 	movl   $0x0,0x3c(%esp)
    144e:	00 
    144f:	e9 d3 f8 ff ff       	jmp    d27 <_explode+0xc27>
    1454:	90                   	nop
    1455:	90                   	nop
    1456:	90                   	nop
    1457:	90                   	nop
    1458:	90                   	nop
    1459:	90                   	nop
    145a:	90                   	nop
    145b:	90                   	nop
    145c:	90                   	nop
    145d:	90                   	nop
    145e:	90                   	nop
    145f:	90                   	nop

extract.o:     file format pe-i386


Disassembly of section .text:

00000000 <_dircomp>:

static int Cdecl dircomp(a, b)  /* used by qsort(); swiped from Zip */
    ZCONST zvoid *a, *b;
{
    /* order is significant:  this sorts in reverse order (deepest first) */
    return strcmp((*(direntry **)b)->fn, (*(direntry **)a)->fn);
       0:	8b 54 24 04          	mov    0x4(%esp),%edx
/*  Function dircomp()  */
/************************/

static int Cdecl dircomp(a, b)  /* used by qsort(); swiped from Zip */
    ZCONST zvoid *a, *b;
{
       4:	8b 44 24 08          	mov    0x8(%esp),%eax
    /* order is significant:  this sorts in reverse order (deepest first) */
    return strcmp((*(direntry **)b)->fn, (*(direntry **)a)->fn);
       8:	8b 12                	mov    (%edx),%edx
       a:	8b 52 04             	mov    0x4(%edx),%edx
       d:	89 54 24 08          	mov    %edx,0x8(%esp)
      11:	8b 00                	mov    (%eax),%eax
      13:	8b 40 04             	mov    0x4(%eax),%eax
      16:	89 44 24 04          	mov    %eax,0x4(%esp)
      1a:	e9 00 00 00 00       	jmp    1f <_dircomp+0x1f>
      1f:	90                   	nop

00000020 <_memextract>:
    __GDEF                                        /*  extra field block; */
    uch *tgt;                                     /*  return PK-type error */
    ulg tgtsize;                                  /*  level */
    ZCONST uch *src;
    ulg srcsize;
{
      20:	55                   	push   %ebp
      21:	57                   	push   %edi
      22:	56                   	push   %esi
      23:	53                   	push   %ebx
      24:	83 ec 3c             	sub    $0x3c,%esp
      27:	8b 6c 24 50          	mov    0x50(%esp),%ebp
      2b:	8b 5c 24 5c          	mov    0x5c(%esp),%ebx
    long old_csize=G.csize;
      2f:	8b 85 90 00 00 00    	mov    0x90(%ebp),%eax
    uch *old_inptr=G.inptr;
      35:	8b bd e8 08 01 00    	mov    0x108e8(%ebp),%edi
    uch *tgt;                                     /*  return PK-type error */
    ulg tgtsize;                                  /*  level */
    ZCONST uch *src;
    ulg srcsize;
{
    long old_csize=G.csize;
      3b:	89 44 24 24          	mov    %eax,0x24(%esp)
    uch *old_inptr=G.inptr;
    int  old_incnt=G.incnt;
      3f:	8b 85 ec 08 01 00    	mov    0x108ec(%ebp),%eax
    int  r, error=PK_OK;
    ush  method;
    ulg  extra_field_crc;


    method = makeword(src);
      45:	89 1c 24             	mov    %ebx,(%esp)
    ZCONST uch *src;
    ulg srcsize;
{
    long old_csize=G.csize;
    uch *old_inptr=G.inptr;
    int  old_incnt=G.incnt;
      48:	89 44 24 28          	mov    %eax,0x28(%esp)
    int  r, error=PK_OK;
    ush  method;
    ulg  extra_field_crc;


    method = makeword(src);
      4c:	e8 00 00 00 00       	call   51 <_memextract+0x31>
      51:	89 c6                	mov    %eax,%esi
    extra_field_crc = makelong(src+2);
      53:	8d 43 02             	lea    0x2(%ebx),%eax
      56:	89 04 24             	mov    %eax,(%esp)

    /* compressed extra field exists completely in memory at this location: */
    G.inptr = (uch *)src + (2 + 4);     /* method and extra_field_crc */
      59:	83 c3 06             	add    $0x6,%ebx
    ush  method;
    ulg  extra_field_crc;


    method = makeword(src);
    extra_field_crc = makelong(src+2);
      5c:	e8 00 00 00 00       	call   61 <_memextract+0x41>

    /* compressed extra field exists completely in memory at this location: */
    G.inptr = (uch *)src + (2 + 4);     /* method and extra_field_crc */
    G.incnt = (int)(G.csize = (long)(srcsize - (2 + 4)));
    G.mem_mode = TRUE;
    G.outbufptr = tgt;
      61:	8b 54 24 54          	mov    0x54(%esp),%edx
    ush  method;
    ulg  extra_field_crc;


    method = makeword(src);
    extra_field_crc = makelong(src+2);
      65:	89 44 24 2c          	mov    %eax,0x2c(%esp)

    /* compressed extra field exists completely in memory at this location: */
    G.inptr = (uch *)src + (2 + 4);     /* method and extra_field_crc */
    G.incnt = (int)(G.csize = (long)(srcsize - (2 + 4)));
      69:	8b 44 24 60          	mov    0x60(%esp),%eax
      6d:	83 e8 06             	sub    $0x6,%eax
    G.mem_mode = TRUE;
    G.outbufptr = tgt;
    G.outsize = tgtsize;
      70:	8b 4c 24 58          	mov    0x58(%esp),%ecx

    method = makeword(src);
    extra_field_crc = makelong(src+2);

    /* compressed extra field exists completely in memory at this location: */
    G.inptr = (uch *)src + (2 + 4);     /* method and extra_field_crc */
      74:	89 9d e8 08 01 00    	mov    %ebx,0x108e8(%ebp)
    G.incnt = (int)(G.csize = (long)(srcsize - (2 + 4)));
      7a:	89 85 90 00 00 00    	mov    %eax,0x90(%ebp)
      80:	89 85 ec 08 01 00    	mov    %eax,0x108ec(%ebp)
    G.mem_mode = TRUE;
      86:	c7 85 a0 09 01 00 01 	movl   $0x1,0x109a0(%ebp)
      8d:	00 00 00 
    G.outbufptr = tgt;
      90:	89 95 a4 09 01 00    	mov    %edx,0x109a4(%ebp)
    G.outsize = tgtsize;
      96:	89 8d a8 09 01 00    	mov    %ecx,0x109a8(%ebp)

    switch (method) {
      9c:	66 85 f6             	test   %si,%si
      9f:	0f 84 eb 00 00 00    	je     190 <_memextract+0x170>
      a5:	8d 46 f8             	lea    -0x8(%esi),%eax
      a8:	66 83 f8 01          	cmp    $0x1,%ax
      ac:	76 42                	jbe    f0 <_memextract+0xd0>
            }
            if (G.outcnt == 0L)   /* inflate's final FLUSH sets outcnt */
                break;
            break;
        default:
            if (uO.tflag)
      ae:	8b 4d 44             	mov    0x44(%ebp),%ecx
      b1:	85 c9                	test   %ecx,%ecx
      b3:	0f 84 b7 01 00 00    	je     270 <_memextract+0x250>
                error = PK_ERR | ((int)method << 8);
      b9:	31 c0                	xor    %eax,%eax
      bb:	66 89 f0             	mov    %si,%ax
      be:	c1 e0 08             	shl    $0x8,%eax
      c1:	83 c8 02             	or     $0x2,%eax
                error = PK_ERR;  /* GRR:  should be passed on up via SetEAs() */
            }
            break;
    }

    G.inptr = old_inptr;
      c4:	89 bd e8 08 01 00    	mov    %edi,0x108e8(%ebp)
    G.incnt = old_incnt;
    G.csize = old_csize;
      ca:	8b 54 24 24          	mov    0x24(%esp),%edx
            }
            break;
    }

    G.inptr = old_inptr;
    G.incnt = old_incnt;
      ce:	8b 7c 24 28          	mov    0x28(%esp),%edi
    G.csize = old_csize;
      d2:	89 95 90 00 00 00    	mov    %edx,0x90(%ebp)
            }
            break;
    }

    G.inptr = old_inptr;
    G.incnt = old_incnt;
      d8:	89 bd ec 08 01 00    	mov    %edi,0x108ec(%ebp)
    G.csize = old_csize;
    G.mem_mode = FALSE;
      de:	c7 85 a0 09 01 00 00 	movl   $0x0,0x109a0(%ebp)
      e5:	00 00 00 
            }
        }
    }
    return error;

} /* end function memextract() */
      e8:	83 c4 3c             	add    $0x3c,%esp
      eb:	5b                   	pop    %ebx
      ec:	5e                   	pop    %esi
      ed:	5f                   	pop    %edi
      ee:	5d                   	pop    %ebp
      ef:	c3                   	ret    
        case DEFLATED:
#ifdef USE_DEFLATE64
        case ENHDEFLATED:
#endif
            G.outcnt = 0L;
            if ((r = UZinflate(__G__ (method == ENHDEFLATED))) != 0) {
      f0:	31 c0                	xor    %eax,%eax
            break;
        case DEFLATED:
#ifdef USE_DEFLATE64
        case ENHDEFLATED:
#endif
            G.outcnt = 0L;
      f2:	c7 85 dc 09 01 00 00 	movl   $0x0,0x109dc(%ebp)
      f9:	00 00 00 
            if ((r = UZinflate(__G__ (method == ENHDEFLATED))) != 0) {
      fc:	66 83 fe 09          	cmp    $0x9,%si
     100:	89 2c 24             	mov    %ebp,(%esp)
     103:	0f 94 c0             	sete   %al
     106:	89 44 24 04          	mov    %eax,0x4(%esp)
     10a:	e8 00 00 00 00       	call   10f <_memextract+0xef>
     10f:	89 c3                	mov    %eax,%ebx
     111:	85 c0                	test   %eax,%eax
     113:	0f 84 3f 01 00 00    	je     258 <_memextract+0x238>
                if (!uO.tflag)
     119:	8b 75 44             	mov    0x44(%ebp),%esi
     11c:	85 f6                	test   %esi,%esi
     11e:	75 56                	jne    176 <_memextract+0x156>
                    Info(slide, 0x401, ((char *)slide,
     120:	8b 85 44 0b 01 00    	mov    0x10b44(%ebp),%eax
     126:	b9 40 05 00 00       	mov    $0x540,%ecx
     12b:	89 44 24 2c          	mov    %eax,0x2c(%esp)
     12f:	b8 5c 05 00 00       	mov    $0x55c,%eax
     134:	83 fb 03             	cmp    $0x3,%ebx
     137:	8d b5 dc 08 00 00    	lea    0x8dc(%ebp),%esi
     13d:	0f 45 c1             	cmovne %ecx,%eax
     140:	c7 44 24 0c 38 05 00 	movl   $0x538,0xc(%esp)
     147:	00 
     148:	89 44 24 08          	mov    %eax,0x8(%esp)
     14c:	c7 44 24 04 74 05 00 	movl   $0x574,0x4(%esp)
     153:	00 
     154:	89 34 24             	mov    %esi,(%esp)
     157:	e8 00 00 00 00       	call   15c <_memextract+0x13c>
     15c:	c7 44 24 0c 01 04 00 	movl   $0x401,0xc(%esp)
     163:	00 
     164:	89 44 24 08          	mov    %eax,0x8(%esp)
     168:	89 74 24 04          	mov    %esi,0x4(%esp)
     16c:	89 2c 24             	mov    %ebp,(%esp)
     16f:	ff 54 24 2c          	call   *0x2c(%esp)
     173:	83 ec 10             	sub    $0x10,%esp
                      LoadFarStringSmall(ErrUnzipNoFile), r == 3?
                      LoadFarString(NotEnoughMem) :
                      LoadFarString(InvalidComprData),
                      LoadFarStringSmall2(Inflate)));
                error = (r == 3)? PK_MEM3 : PK_ERR;
     176:	31 c0                	xor    %eax,%eax
     178:	83 fb 03             	cmp    $0x3,%ebx
     17b:	0f 94 c0             	sete   %al
     17e:	8d 04 85 02 00 00 00 	lea    0x2(,%eax,4),%eax
     185:	e9 3a ff ff ff       	jmp    c4 <_memextract+0xa4>
     18a:	8d b6 00 00 00 00    	lea    0x0(%esi),%esi
    G.outbufptr = tgt;
    G.outsize = tgtsize;

    switch (method) {
        case STORED:
            memcpy((char *)tgt, (char *)G.inptr, (extent)G.incnt);
     190:	89 44 24 08          	mov    %eax,0x8(%esp)
     194:	8b 44 24 54          	mov    0x54(%esp),%eax
     198:	89 5c 24 04          	mov    %ebx,0x4(%esp)
     19c:	89 04 24             	mov    %eax,(%esp)
     19f:	e8 00 00 00 00       	call   1a4 <_memextract+0x184>
            G.outcnt = G.csize;   /* for CRC calculation */
     1a4:	8b 85 90 00 00 00    	mov    0x90(%ebp),%eax
     1aa:	89 85 dc 09 01 00    	mov    %eax,0x109dc(%ebp)
                error = PK_ERR;  /* GRR:  should be passed on up via SetEAs() */
            }
            break;
    }

    G.inptr = old_inptr;
     1b0:	89 bd e8 08 01 00    	mov    %edi,0x108e8(%ebp)
    G.incnt = old_incnt;
    G.csize = old_csize;
     1b6:	8b 54 24 24          	mov    0x24(%esp),%edx
            }
            break;
    }

    G.inptr = old_inptr;
    G.incnt = old_incnt;
     1ba:	8b 7c 24 28          	mov    0x28(%esp),%edi
    G.csize = old_csize;
     1be:	89 95 90 00 00 00    	mov    %edx,0x90(%ebp)
            }
            break;
    }

    G.inptr = old_inptr;
    G.incnt = old_incnt;
     1c4:	89 bd ec 08 01 00    	mov    %edi,0x108ec(%ebp)
    G.csize = old_csize;
    G.mem_mode = FALSE;
     1ca:	c7 85 a0 09 01 00 00 	movl   $0x0,0x109a0(%ebp)
     1d1:	00 00 00 

    if (!error) {
        register ulg crcval = crc32(CRCVAL_INITIAL, tgt, (extent)G.outcnt);
     1d4:	89 44 24 08          	mov    %eax,0x8(%esp)
     1d8:	8b 44 24 54          	mov    0x54(%esp),%eax
     1dc:	89 44 24 04          	mov    %eax,0x4(%esp)
     1e0:	c7 04 24 00 00 00 00 	movl   $0x0,(%esp)
     1e7:	e8 00 00 00 00       	call   1ec <_memextract+0x1cc>
     1ec:	89 c1                	mov    %eax,%ecx

        if (crcval != extra_field_crc) {
     1ee:	3b 44 24 2c          	cmp    0x2c(%esp),%eax
     1f2:	74 6f                	je     263 <_memextract+0x243>
            if (uO.tflag)
     1f4:	8b 55 44             	mov    0x44(%ebp),%edx
                error = PK_ERR | (DEFLATED << 8);  /* kludge for now */
     1f7:	b8 02 08 00 00       	mov    $0x802,%eax

    if (!error) {
        register ulg crcval = crc32(CRCVAL_INITIAL, tgt, (extent)G.outcnt);

        if (crcval != extra_field_crc) {
            if (uO.tflag)
     1fc:	85 d2                	test   %edx,%edx
     1fe:	0f 85 e4 fe ff ff    	jne    e8 <_memextract+0xc8>
                error = PK_ERR | (DEFLATED << 8);  /* kludge for now */
            else {
                Info(slide, 0x401, ((char *)slide,
     204:	8b 44 24 2c          	mov    0x2c(%esp),%eax
     208:	8b 9d 44 0b 01 00    	mov    0x10b44(%ebp),%ebx
     20e:	89 44 24 10          	mov    %eax,0x10(%esp)
     212:	89 4c 24 0c          	mov    %ecx,0xc(%esp)
     216:	8b 85 04 09 01 00    	mov    0x10904(%ebp),%eax
     21c:	8d b5 dc 08 00 00    	lea    0x8dc(%ebp),%esi
     222:	89 44 24 08          	mov    %eax,0x8(%esp)
     226:	c7 44 24 04 80 02 00 	movl   $0x280,0x4(%esp)
     22d:	00 
     22e:	89 34 24             	mov    %esi,(%esp)
     231:	e8 00 00 00 00       	call   236 <_memextract+0x216>
     236:	c7 44 24 0c 01 04 00 	movl   $0x401,0xc(%esp)
     23d:	00 
     23e:	89 44 24 08          	mov    %eax,0x8(%esp)
     242:	89 74 24 04          	mov    %esi,0x4(%esp)
     246:	89 2c 24             	mov    %ebp,(%esp)
     249:	ff d3                	call   *%ebx
                  LoadFarString(BadExtraFieldCRC), G.zipfn, crcval,
                  extra_field_crc));
                error = PK_ERR;
     24b:	b8 02 00 00 00       	mov    $0x2,%eax

        if (crcval != extra_field_crc) {
            if (uO.tflag)
                error = PK_ERR | (DEFLATED << 8);  /* kludge for now */
            else {
                Info(slide, 0x401, ((char *)slide,
     250:	83 ec 10             	sub    $0x10,%esp
     253:	e9 90 fe ff ff       	jmp    e8 <_memextract+0xc8>
     258:	8b 85 dc 09 01 00    	mov    0x109dc(%ebp),%eax
     25e:	e9 4d ff ff ff       	jmp    1b0 <_memextract+0x190>
     263:	31 c0                	xor    %eax,%eax
     265:	e9 7e fe ff ff       	jmp    e8 <_memextract+0xc8>
     26a:	8d b6 00 00 00 00    	lea    0x0(%esi),%esi
            break;
        default:
            if (uO.tflag)
                error = PK_ERR | ((int)method << 8);
            else {
                Info(slide, 0x401, ((char *)slide,
     270:	31 c9                	xor    %ecx,%ecx
     272:	8d 9d dc 08 00 00    	lea    0x8dc(%ebp),%ebx
     278:	66 89 f1             	mov    %si,%cx
     27b:	8b 85 44 0b 01 00    	mov    0x10b44(%ebp),%eax
     281:	89 4c 24 08          	mov    %ecx,0x8(%esp)
     285:	c7 44 24 04 c0 02 00 	movl   $0x2c0,0x4(%esp)
     28c:	00 
     28d:	89 1c 24             	mov    %ebx,(%esp)
     290:	89 44 24 2c          	mov    %eax,0x2c(%esp)
     294:	e8 00 00 00 00       	call   299 <_memextract+0x279>
     299:	c7 44 24 0c 01 04 00 	movl   $0x401,0xc(%esp)
     2a0:	00 
     2a1:	89 44 24 08          	mov    %eax,0x8(%esp)
     2a5:	89 5c 24 04          	mov    %ebx,0x4(%esp)
     2a9:	89 2c 24             	mov    %ebp,(%esp)
     2ac:	ff 54 24 2c          	call   *0x2c(%esp)
                  LoadFarString(UnsupportedExtraField), method));
                error = PK_ERR;  /* GRR:  should be passed on up via SetEAs() */
     2b0:	b8 02 00 00 00       	mov    $0x2,%eax
            break;
        default:
            if (uO.tflag)
                error = PK_ERR | ((int)method << 8);
            else {
                Info(slide, 0x401, ((char *)slide,
     2b5:	83 ec 10             	sub    $0x10,%esp
     2b8:	e9 07 fe ff ff       	jmp    c4 <_memextract+0xa4>
     2bd:	8d 76 00             	lea    0x0(%esi),%esi

000002c0 <_test_compr_eb.part.0>:
/******************************/
/*  Function test_compr_eb()  */
/******************************/

#ifdef PROTO
static int test_compr_eb(
     2c0:	55                   	push   %ebp
     2c1:	57                   	push   %edi
     2c2:	56                   	push   %esi
     2c3:	53                   	push   %ebx
     2c4:	83 ec 3c             	sub    $0x3c,%esp
     2c7:	89 c5                	mov    %eax,%ebp

    if (compr_offset < 4)                /* field is not compressed: */
        return PK_OK;                    /* do nothing and signal OK */

    if ((eb_size < (EB_UCSIZE_P + 4)) ||
        ((eb_ucsize = makelong(eb+(EB_HEADSIZE+EB_UCSIZE_P))) > 0L &&
     2c9:	8d 42 04             	lea    0x4(%edx),%eax
/******************************/
/*  Function test_compr_eb()  */
/******************************/

#ifdef PROTO
static int test_compr_eb(
     2cc:	89 d6                	mov    %edx,%esi
    int r;

    if (compr_offset < 4)                /* field is not compressed: */
        return PK_OK;                    /* do nothing and signal OK */

    if ((eb_size < (EB_UCSIZE_P + 4)) ||
     2ce:	89 04 24             	mov    %eax,(%esp)
/******************************/
/*  Function test_compr_eb()  */
/******************************/

#ifdef PROTO
static int test_compr_eb(
     2d1:	89 cf                	mov    %ecx,%edi
    int r;

    if (compr_offset < 4)                /* field is not compressed: */
        return PK_OK;                    /* do nothing and signal OK */

    if ((eb_size < (EB_UCSIZE_P + 4)) ||
     2d3:	e8 00 00 00 00       	call   2d8 <_test_compr_eb.part.0+0x18>
     2d8:	89 c3                	mov    %eax,%ebx
     2da:	85 c0                	test   %eax,%eax
     2dc:	74 18                	je     2f6 <_test_compr_eb.part.0+0x36>
        ((eb_ucsize = makelong(eb+(EB_HEADSIZE+EB_UCSIZE_P))) > 0L &&
         eb_size <= (compr_offset + EB_CMPRHEADLEN)))
     2de:	8b 44 24 50          	mov    0x50(%esp),%eax
     2e2:	8d 48 06             	lea    0x6(%eax),%ecx
        return IZ_EF_TRUNC;               /* no compressed data! */
     2e5:	b8 4f 00 00 00       	mov    $0x4f,%eax

    if (compr_offset < 4)                /* field is not compressed: */
        return PK_OK;                    /* do nothing and signal OK */

    if ((eb_size < (EB_UCSIZE_P + 4)) ||
        ((eb_ucsize = makelong(eb+(EB_HEADSIZE+EB_UCSIZE_P))) > 0L &&
     2ea:	39 f9                	cmp    %edi,%ecx
     2ec:	72 08                	jb     2f6 <_test_compr_eb.part.0+0x36>
        r = (*test_uc_ebdata)(__G__ eb, eb_size, eb_ucptr, eb_ucsize);

    free(eb_ucptr);
    return r;

} /* end function test_compr_eb() */
     2ee:	83 c4 3c             	add    $0x3c,%esp
     2f1:	5b                   	pop    %ebx
     2f2:	5e                   	pop    %esi
     2f3:	5f                   	pop    %edi
     2f4:	5d                   	pop    %ebp
     2f5:	c3                   	ret    
    if ((eb_size < (EB_UCSIZE_P + 4)) ||
        ((eb_ucsize = makelong(eb+(EB_HEADSIZE+EB_UCSIZE_P))) > 0L &&
         eb_size <= (compr_offset + EB_CMPRHEADLEN)))
        return IZ_EF_TRUNC;               /* no compressed data! */

    if (
     2f6:	89 1c 24             	mov    %ebx,(%esp)
     2f9:	e8 00 00 00 00       	call   2fe <_test_compr_eb.part.0+0x3e>
     2fe:	89 c1                	mov    %eax,%ecx
#ifdef INT_16BIT
        (((ulg)(extent)eb_ucsize) != eb_ucsize) ||
#endif
        (eb_ucptr = (uch *)malloc((extent)eb_ucsize)) == (uch *)NULL)
        return PK_MEM4;
     300:	b8 07 00 00 00       	mov    $0x7,%eax
    if ((eb_size < (EB_UCSIZE_P + 4)) ||
        ((eb_ucsize = makelong(eb+(EB_HEADSIZE+EB_UCSIZE_P))) > 0L &&
         eb_size <= (compr_offset + EB_CMPRHEADLEN)))
        return IZ_EF_TRUNC;               /* no compressed data! */

    if (
     305:	85 c9                	test   %ecx,%ecx
     307:	74 e5                	je     2ee <_test_compr_eb.part.0+0x2e>
        (eb_ucptr = (uch *)malloc((extent)eb_ucsize)) == (uch *)NULL)
        return PK_MEM4;

    r = memextract(__G__ eb_ucptr, eb_ucsize,
                   eb + (EB_HEADSIZE + compr_offset),
                   (ulg)(eb_size - compr_offset));
     309:	8b 54 24 50          	mov    0x50(%esp),%edx
     30d:	89 f8                	mov    %edi,%eax
     30f:	29 d0                	sub    %edx,%eax
        (((ulg)(extent)eb_ucsize) != eb_ucsize) ||
#endif
        (eb_ucptr = (uch *)malloc((extent)eb_ucsize)) == (uch *)NULL)
        return PK_MEM4;

    r = memextract(__G__ eb_ucptr, eb_ucsize,
     311:	89 4c 24 04          	mov    %ecx,0x4(%esp)
     315:	89 44 24 10          	mov    %eax,0x10(%esp)
     319:	8b 44 24 50          	mov    0x50(%esp),%eax
     31d:	89 5c 24 08          	mov    %ebx,0x8(%esp)
     321:	89 2c 24             	mov    %ebp,(%esp)
     324:	8d 44 06 04          	lea    0x4(%esi,%eax,1),%eax
     328:	89 4c 24 2c          	mov    %ecx,0x2c(%esp)
     32c:	89 44 24 0c          	mov    %eax,0xc(%esp)
     330:	e8 eb fc ff ff       	call   20 <_memextract>
                   eb + (EB_HEADSIZE + compr_offset),
                   (ulg)(eb_size - compr_offset));

    if (r == PK_OK && test_uc_ebdata != NULL)
     335:	8b 4c 24 2c          	mov    0x2c(%esp),%ecx
     339:	85 c0                	test   %eax,%eax
     33b:	75 23                	jne    360 <_test_compr_eb.part.0+0xa0>
     33d:	8b 54 24 54          	mov    0x54(%esp),%edx
     341:	85 d2                	test   %edx,%edx
     343:	74 1b                	je     360 <_test_compr_eb.part.0+0xa0>
        r = (*test_uc_ebdata)(__G__ eb, eb_size, eb_ucptr, eb_ucsize);
     345:	89 4c 24 0c          	mov    %ecx,0xc(%esp)
     349:	89 5c 24 10          	mov    %ebx,0x10(%esp)
     34d:	89 7c 24 08          	mov    %edi,0x8(%esp)
     351:	89 74 24 04          	mov    %esi,0x4(%esp)
     355:	89 2c 24             	mov    %ebp,(%esp)
     358:	ff 54 24 54          	call   *0x54(%esp)
     35c:	8b 4c 24 2c          	mov    0x2c(%esp),%ecx

    free(eb_ucptr);
     360:	89 0c 24             	mov    %ecx,(%esp)
     363:	89 44 24 2c          	mov    %eax,0x2c(%esp)
     367:	e8 00 00 00 00       	call   36c <_test_compr_eb.part.0+0xac>
    return r;
     36c:	8b 44 24 2c          	mov    0x2c(%esp),%eax

} /* end function test_compr_eb() */
     370:	83 c4 3c             	add    $0x3c,%esp
     373:	5b                   	pop    %ebx
     374:	5e                   	pop    %esi
     375:	5f                   	pop    %edi
     376:	5d                   	pop    %ebp
     377:	c3                   	ret    
     378:	90                   	nop
     379:	8d b4 26 00 00 00 00 	lea    0x0(%esi,%eiz,1),%esi

00000380 <_memflush>:

int memflush(__G__ rawbuf, size)
    __GDEF
    ZCONST uch *rawbuf;
    ulg size;
{
     380:	56                   	push   %esi
     381:	53                   	push   %ebx
     382:	83 ec 14             	sub    $0x14,%esp
    if (size > G.outsize)
        /* Here, PK_DISK is a bit off-topic, but in the sense of marking
           "overflow of output space", its use may be tolerated. */
        return PK_DISK;   /* more data than output buffer can hold */
     385:	b8 32 00 00 00       	mov    $0x32,%eax

int memflush(__G__ rawbuf, size)
    __GDEF
    ZCONST uch *rawbuf;
    ulg size;
{
     38a:	8b 5c 24 20          	mov    0x20(%esp),%ebx
     38e:	8b 74 24 28          	mov    0x28(%esp),%esi
    if (size > G.outsize)
     392:	39 b3 a8 09 01 00    	cmp    %esi,0x109a8(%ebx)
     398:	73 06                	jae    3a0 <_memflush+0x20>
    G.outsize -= size;
    G.outcnt += size;

    return 0;

} /* end function memflush() */
     39a:	83 c4 14             	add    $0x14,%esp
     39d:	5b                   	pop    %ebx
     39e:	5e                   	pop    %esi
     39f:	c3                   	ret    
           "overflow of output space", its use may be tolerated. */
        return PK_DISK;   /* more data than output buffer can hold */



    memcpy((char *)G.outbufptr, (char *)rawbuf, (extent)size);
     3a0:	8b 83 a4 09 01 00    	mov    0x109a4(%ebx),%eax
     3a6:	8b 54 24 24          	mov    0x24(%esp),%edx
     3aa:	89 74 24 08          	mov    %esi,0x8(%esp)
     3ae:	89 54 24 04          	mov    %edx,0x4(%esp)
     3b2:	89 04 24             	mov    %eax,(%esp)
     3b5:	e8 00 00 00 00       	call   3ba <_memflush+0x3a>
    G.outbufptr += (unsigned int)size;
     3ba:	8b 83 a4 09 01 00    	mov    0x109a4(%ebx),%eax
    G.outsize -= size;
     3c0:	8b 93 a8 09 01 00    	mov    0x109a8(%ebx),%edx
    G.outcnt += size;
     3c6:	8b 8b dc 09 01 00    	mov    0x109dc(%ebx),%ecx
        return PK_DISK;   /* more data than output buffer can hold */



    memcpy((char *)G.outbufptr, (char *)rawbuf, (extent)size);
    G.outbufptr += (unsigned int)size;
     3cc:	01 f0                	add    %esi,%eax
    G.outsize -= size;
     3ce:	29 f2                	sub    %esi,%edx
    G.outcnt += size;
     3d0:	01 f1                	add    %esi,%ecx
        return PK_DISK;   /* more data than output buffer can hold */



    memcpy((char *)G.outbufptr, (char *)rawbuf, (extent)size);
    G.outbufptr += (unsigned int)size;
     3d2:	89 83 a4 09 01 00    	mov    %eax,0x109a4(%ebx)
    G.outsize -= size;
     3d8:	89 93 a8 09 01 00    	mov    %edx,0x109a8(%ebx)
    G.outcnt += size;
     3de:	89 8b dc 09 01 00    	mov    %ecx,0x109dc(%ebx)

    return 0;

} /* end function memflush() */
     3e4:	83 c4 14             	add    $0x14,%esp
    memcpy((char *)G.outbufptr, (char *)rawbuf, (extent)size);
    G.outbufptr += (unsigned int)size;
    G.outsize -= size;
    G.outcnt += size;

    return 0;
     3e7:	31 c0                	xor    %eax,%eax

} /* end function memflush() */
     3e9:	5b                   	pop    %ebx
     3ea:	5e                   	pop    %esi
     3eb:	c3                   	ret    
     3ec:	8d 74 26 00          	lea    0x0(%esi,%eiz,1),%esi

000003f0 <_extract_izvms_block>:
    ZCONST uch *ebdata;
    unsigned size;
    unsigned *retlen;
    ZCONST uch *init;
    unsigned needlen;
{
     3f0:	55                   	push   %ebp
     3f1:	57                   	push   %edi
     3f2:	56                   	push   %esi
     3f3:	53                   	push   %ebx
     3f4:	83 ec 2c             	sub    $0x2c,%esp
    uch *ucdata;       /* Pointer to block allocated */
    int cmptype;
    unsigned usiz, csiz;

    cmptype = (makeword(ebdata+EB_IZVMS_FLGS) & EB_IZVMS_BCMASK);
     3f7:	8b 44 24 44          	mov    0x44(%esp),%eax
    ZCONST uch *ebdata;
    unsigned size;
    unsigned *retlen;
    ZCONST uch *init;
    unsigned needlen;
{
     3fb:	8b 6c 24 4c          	mov    0x4c(%esp),%ebp
    uch *ucdata;       /* Pointer to block allocated */
    int cmptype;
    unsigned usiz, csiz;

    cmptype = (makeword(ebdata+EB_IZVMS_FLGS) & EB_IZVMS_BCMASK);
     3ff:	83 c0 04             	add    $0x4,%eax
     402:	89 04 24             	mov    %eax,(%esp)
     405:	e8 00 00 00 00       	call   40a <_extract_izvms_block+0x1a>
    csiz = size - EB_IZVMS_HLEN;
     40a:	8b 74 24 48          	mov    0x48(%esp),%esi
     40e:	83 ee 0c             	sub    $0xc,%esi
    usiz = (cmptype == EB_IZVMS_BCSTOR ?
            csiz : makeword(ebdata+EB_IZVMS_UCSIZ));
     411:	83 e0 07             	and    $0x7,%eax
     414:	89 f7                	mov    %esi,%edi
     416:	89 c3                	mov    %eax,%ebx
     418:	0f 85 f3 00 00 00    	jne    511 <_extract_izvms_block+0x121>

    if (retlen)
     41e:	85 ed                	test   %ebp,%ebp
     420:	74 03                	je     425 <_extract_izvms_block+0x35>
        *retlen = usiz;
     422:	89 7d 00             	mov    %edi,0x0(%ebp)

    if ((ucdata = (uch *)malloc(MAX(needlen, usiz))) == NULL)
     425:	89 f8                	mov    %edi,%eax
     427:	3b 7c 24 54          	cmp    0x54(%esp),%edi
     42b:	0f 42 44 24 54       	cmovb  0x54(%esp),%eax
     430:	89 04 24             	mov    %eax,(%esp)
     433:	e8 00 00 00 00       	call   438 <_extract_izvms_block+0x48>
     438:	89 c5                	mov    %eax,%ebp
     43a:	85 c0                	test   %eax,%eax
     43c:	0f 84 24 01 00 00    	je     566 <_extract_izvms_block+0x176>
        return NULL;

    if (init && (usiz < needlen))
     442:	3b 7c 24 54          	cmp    0x54(%esp),%edi
     446:	73 08                	jae    450 <_extract_izvms_block+0x60>
     448:	8b 44 24 50          	mov    0x50(%esp),%eax
     44c:	85 c0                	test   %eax,%eax
     44e:	75 43                	jne    493 <_extract_izvms_block+0xa3>
        memcpy((char *)ucdata, (ZCONST char *)init, needlen);

    switch (cmptype)
     450:	66 83 fb 01          	cmp    $0x1,%bx
     454:	74 5b                	je     4b1 <_extract_izvms_block+0xc1>
     456:	0f 82 94 00 00 00    	jb     4f0 <_extract_izvms_block+0x100>
     45c:	66 83 fb 02          	cmp    $0x2,%bx
     460:	0f 85 ca 00 00 00    	jne    530 <_extract_izvms_block+0x140>
            break;
        case EB_IZVMS_BC00:
            decompress_bits(ucdata, usiz, ebdata+EB_IZVMS_HLEN);
            break;
        case EB_IZVMS_BCDEFL:
            memextract(__G__ ucdata, (ulg)usiz,
     466:	8b 44 24 44          	mov    0x44(%esp),%eax
     46a:	89 74 24 10          	mov    %esi,0x10(%esp)
     46e:	83 c0 0c             	add    $0xc,%eax
     471:	89 7c 24 08          	mov    %edi,0x8(%esp)
     475:	89 44 24 0c          	mov    %eax,0xc(%esp)
     479:	8b 44 24 40          	mov    0x40(%esp),%eax
     47d:	89 6c 24 04          	mov    %ebp,0x4(%esp)
     481:	89 04 24             	mov    %eax,(%esp)
     484:	e8 97 fb ff ff       	call   20 <_memextract>
                       ebdata+EB_IZVMS_HLEN, (ulg)csiz);
            break;
     489:	89 e8                	mov    %ebp,%eax
            free(ucdata);
            ucdata = NULL;
    }
    return ucdata;

} /* end of extract_izvms_block */
     48b:	83 c4 2c             	add    $0x2c,%esp
     48e:	5b                   	pop    %ebx
     48f:	5e                   	pop    %esi
     490:	5f                   	pop    %edi
     491:	5d                   	pop    %ebp
     492:	c3                   	ret    

    if ((ucdata = (uch *)malloc(MAX(needlen, usiz))) == NULL)
        return NULL;

    if (init && (usiz < needlen))
        memcpy((char *)ucdata, (ZCONST char *)init, needlen);
     493:	8b 44 24 54          	mov    0x54(%esp),%eax
     497:	89 2c 24             	mov    %ebp,(%esp)
     49a:	89 44 24 08          	mov    %eax,0x8(%esp)
     49e:	8b 44 24 50          	mov    0x50(%esp),%eax
     4a2:	89 44 24 04          	mov    %eax,0x4(%esp)
     4a6:	e8 00 00 00 00       	call   4ab <_extract_izvms_block+0xbb>

    switch (cmptype)
     4ab:	66 83 fb 01          	cmp    $0x1,%bx
     4af:	75 a5                	jne    456 <_extract_izvms_block+0x66>
    {
        case EB_IZVMS_BCSTOR: /* The simplest case */
            memcpy(ucdata, ebdata+EB_IZVMS_HLEN, usiz);
            break;
        case EB_IZVMS_BC00:
            decompress_bits(ucdata, usiz, ebdata+EB_IZVMS_HLEN);
     4b1:	8b 44 24 44          	mov    0x44(%esp),%eax
     4b5:	8d 55 01             	lea    0x1(%ebp),%edx
     4b8:	8d 5c 3d 01          	lea    0x1(%ebp,%edi,1),%ebx
    uch *outptr;        /* Pointer into output block */
    unsigned needlen;   /* Size of uncompressed block */
    ZCONST uch *bitptr; /* Pointer into compressed data */
{
    ulg bitbuf = 0;
    int bitcnt = 0;
     4bc:	31 c9                	xor    %ecx,%ecx
    {
        case EB_IZVMS_BCSTOR: /* The simplest case */
            memcpy(ucdata, ebdata+EB_IZVMS_HLEN, usiz);
            break;
        case EB_IZVMS_BC00:
            decompress_bits(ucdata, usiz, ebdata+EB_IZVMS_HLEN);
     4be:	8d 70 0c             	lea    0xc(%eax),%esi
static void decompress_bits(outptr, needlen, bitptr)
    uch *outptr;        /* Pointer into output block */
    unsigned needlen;   /* Size of uncompressed block */
    ZCONST uch *bitptr; /* Pointer into compressed data */
{
    ulg bitbuf = 0;
     4c1:	31 c0                	xor    %eax,%eax

#define _FILL   {       bitbuf |= (*bitptr++) << bitcnt;\
                        bitcnt += 8;                    \
                }

    while (needlen--)
     4c3:	39 da                	cmp    %ebx,%edx
     4c5:	74 c2                	je     489 <_extract_izvms_block+0x99>
    {
        if (bitcnt <= 0)
     4c7:	85 c9                	test   %ecx,%ecx
     4c9:	0f 8e 81 00 00 00    	jle    550 <_extract_izvms_block+0x160>
            _FILL;

        if (bitbuf & 1)
     4cf:	a8 01                	test   $0x1,%al
     4d1:	74 6f                	je     542 <_extract_izvms_block+0x152>
        {
            bitbuf >>= 1;
            if ((bitcnt -= 1) < 8)
                _FILL;
     4d3:	0f b6 3e             	movzbl (%esi),%edi
            _FILL;

        if (bitbuf & 1)
        {
            bitbuf >>= 1;
            if ((bitcnt -= 1) < 8)
     4d6:	49                   	dec    %ecx
                _FILL;
     4d7:	81 e7 ff 00 00 00    	and    $0xff,%edi
        if (bitcnt <= 0)
            _FILL;

        if (bitbuf & 1)
        {
            bitbuf >>= 1;
     4dd:	d1 e8                	shr    %eax
            if ((bitcnt -= 1) < 8)
                _FILL;
            *outptr++ = (uch)bitbuf;
            bitcnt -= 8;
            bitbuf >>= 8;
     4df:	46                   	inc    %esi

        if (bitbuf & 1)
        {
            bitbuf >>= 1;
            if ((bitcnt -= 1) < 8)
                _FILL;
     4e0:	d3 e7                	shl    %cl,%edi
     4e2:	09 f8                	or     %edi,%eax
     4e4:	42                   	inc    %edx
            *outptr++ = (uch)bitbuf;
     4e5:	88 42 fe             	mov    %al,-0x2(%edx)
            bitcnt -= 8;
            bitbuf >>= 8;
     4e8:	c1 e8 08             	shr    $0x8,%eax
     4eb:	eb d6                	jmp    4c3 <_extract_izvms_block+0xd3>
     4ed:	8d 76 00             	lea    0x0(%esi),%esi
        memcpy((char *)ucdata, (ZCONST char *)init, needlen);

    switch (cmptype)
    {
        case EB_IZVMS_BCSTOR: /* The simplest case */
            memcpy(ucdata, ebdata+EB_IZVMS_HLEN, usiz);
     4f0:	8b 44 24 44          	mov    0x44(%esp),%eax
     4f4:	89 7c 24 08          	mov    %edi,0x8(%esp)
     4f8:	83 c0 0c             	add    $0xc,%eax
     4fb:	89 2c 24             	mov    %ebp,(%esp)
     4fe:	89 44 24 04          	mov    %eax,0x4(%esp)
     502:	e8 00 00 00 00       	call   507 <_extract_izvms_block+0x117>
            free(ucdata);
            ucdata = NULL;
    }
    return ucdata;

} /* end of extract_izvms_block */
     507:	83 c4 2c             	add    $0x2c,%esp

    switch (cmptype)
    {
        case EB_IZVMS_BCSTOR: /* The simplest case */
            memcpy(ucdata, ebdata+EB_IZVMS_HLEN, usiz);
            break;
     50a:	89 e8                	mov    %ebp,%eax
            free(ucdata);
            ucdata = NULL;
    }
    return ucdata;

} /* end of extract_izvms_block */
     50c:	5b                   	pop    %ebx
     50d:	5e                   	pop    %esi
     50e:	5f                   	pop    %edi
     50f:	5d                   	pop    %ebp
     510:	c3                   	ret    
    unsigned usiz, csiz;

    cmptype = (makeword(ebdata+EB_IZVMS_FLGS) & EB_IZVMS_BCMASK);
    csiz = size - EB_IZVMS_HLEN;
    usiz = (cmptype == EB_IZVMS_BCSTOR ?
            csiz : makeword(ebdata+EB_IZVMS_UCSIZ));
     511:	8b 44 24 44          	mov    0x44(%esp),%eax
     515:	31 ff                	xor    %edi,%edi
     517:	83 c0 06             	add    $0x6,%eax
     51a:	89 04 24             	mov    %eax,(%esp)
     51d:	e8 00 00 00 00       	call   522 <_extract_izvms_block+0x132>
     522:	66 89 c7             	mov    %ax,%di
     525:	e9 f4 fe ff ff       	jmp    41e <_extract_izvms_block+0x2e>
     52a:	8d b6 00 00 00 00    	lea    0x0(%esi),%esi
        case EB_IZVMS_BCDEFL:
            memextract(__G__ ucdata, (ulg)usiz,
                       ebdata+EB_IZVMS_HLEN, (ulg)csiz);
            break;
        default:
            free(ucdata);
     530:	89 2c 24             	mov    %ebp,(%esp)
     533:	e8 00 00 00 00       	call   538 <_extract_izvms_block+0x148>
            ucdata = NULL;
    }
    return ucdata;

} /* end of extract_izvms_block */
     538:	83 c4 2c             	add    $0x2c,%esp
            memextract(__G__ ucdata, (ulg)usiz,
                       ebdata+EB_IZVMS_HLEN, (ulg)csiz);
            break;
        default:
            free(ucdata);
            ucdata = NULL;
     53b:	31 c0                	xor    %eax,%eax
    }
    return ucdata;

} /* end of extract_izvms_block */
     53d:	5b                   	pop    %ebx
     53e:	5e                   	pop    %esi
     53f:	5f                   	pop    %edi
     540:	5d                   	pop    %ebp
     541:	c3                   	ret    
            bitcnt -= 8;
            bitbuf >>= 8;
        }
        else
        {
            *outptr++ = '\0';
     542:	c6 42 ff 00          	movb   $0x0,-0x1(%edx)
            bitcnt -= 1;
     546:	49                   	dec    %ecx
            bitbuf >>= 1;
     547:	d1 e8                	shr    %eax
     549:	42                   	inc    %edx
     54a:	e9 74 ff ff ff       	jmp    4c3 <_extract_izvms_block+0xd3>
     54f:	90                   	nop
                }

    while (needlen--)
    {
        if (bitcnt <= 0)
            _FILL;
     550:	0f b6 3e             	movzbl (%esi),%edi
     553:	81 e7 ff 00 00 00    	and    $0xff,%edi
     559:	46                   	inc    %esi
     55a:	d3 e7                	shl    %cl,%edi
     55c:	09 f8                	or     %edi,%eax
     55e:	83 c1 08             	add    $0x8,%ecx
     561:	e9 69 ff ff ff       	jmp    4cf <_extract_izvms_block+0xdf>

    if (retlen)
        *retlen = usiz;

    if ((ucdata = (uch *)malloc(MAX(needlen, usiz))) == NULL)
        return NULL;
     566:	31 c0                	xor    %eax,%eax
     568:	e9 1e ff ff ff       	jmp    48b <_extract_izvms_block+0x9b>
     56d:	8d 76 00             	lea    0x0(%esi),%esi

00000570 <_fnfilter>:
/*************************/

char *fnfilter(raw, space)         /* convert name to safely printable form */
    ZCONST char *raw;
    uch *space;
{
     570:	57                   	push   %edi
     571:	56                   	push   %esi
     572:	53                   	push   %ebx
     573:	83 ec 10             	sub    $0x10,%esp
        if (*r < 32) {
            *s++ = '^', *s++ = (uch)(64 + *r++);
        } else {
#ifdef _MBCS
            unsigned i;
            for (i = CLEN(r); i > 0; i--)
     576:	8b 35 00 00 00 00    	mov    0x0,%esi
/*************************/

char *fnfilter(raw, space)         /* convert name to safely printable form */
    ZCONST char *raw;
    uch *space;
{
     57c:	8b 5c 24 20          	mov    0x20(%esp),%ebx
#ifndef NATIVE   /* ASCII:  filter ANSI escape codes, etc. */
    ZCONST uch *r=(ZCONST uch *)raw;
    uch *s=space;
     580:	8b 7c 24 24          	mov    0x24(%esp),%edi

    while (*r) {
     584:	8a 03                	mov    (%ebx),%al
     586:	84 c0                	test   %al,%al
     588:	74 1a                	je     5a4 <_fnfilter+0x34>
                *s++ = '_';
                continue;
            }
        } else
#endif
        if (*r < 32) {
     58a:	3c 1f                	cmp    $0x1f,%al
     58c:	77 24                	ja     5b2 <_fnfilter+0x42>
            *s++ = '^', *s++ = (uch)(64 + *r++);
     58e:	c6 07 5e             	movb   $0x5e,(%edi)
     591:	43                   	inc    %ebx
     592:	8a 43 ff             	mov    -0x1(%ebx),%al
     595:	83 c7 02             	add    $0x2,%edi
     598:	83 c0 40             	add    $0x40,%eax
     59b:	88 47 ff             	mov    %al,-0x1(%edi)
{
#ifndef NATIVE   /* ASCII:  filter ANSI escape codes, etc. */
    ZCONST uch *r=(ZCONST uch *)raw;
    uch *s=space;

    while (*r) {
     59e:	8a 03                	mov    (%ebx),%al
     5a0:	84 c0                	test   %al,%al
     5a2:	75 e6                	jne    58a <_fnfilter+0x1a>
#else
            *s++ = *r++;
#endif
         }
    }
    *s = '\0';
     5a4:	c6 07 00             	movb   $0x0,(%edi)

#else /* NATIVE:  EBCDIC or whatever */
    return (char *)raw;
#endif

} /* end function fnfilter() */
     5a7:	8b 44 24 24          	mov    0x24(%esp),%eax
     5ab:	83 c4 10             	add    $0x10,%esp
     5ae:	5b                   	pop    %ebx
     5af:	5e                   	pop    %esi
     5b0:	5f                   	pop    %edi
     5b1:	c3                   	ret    
        if (*r < 32) {
            *s++ = '^', *s++ = (uch)(64 + *r++);
        } else {
#ifdef _MBCS
            unsigned i;
            for (i = CLEN(r); i > 0; i--)
     5b2:	8b 06                	mov    (%esi),%eax
     5b4:	89 1c 24             	mov    %ebx,(%esp)
     5b7:	89 44 24 04          	mov    %eax,0x4(%esp)
     5bb:	e8 00 00 00 00       	call   5c0 <_fnfilter+0x50>
     5c0:	85 c0                	test   %eax,%eax
     5c2:	74 c0                	je     584 <_fnfilter+0x14>
     5c4:	31 d2                	xor    %edx,%edx
                *s++ = *r++;
     5c6:	8a 0c 13             	mov    (%ebx,%edx,1),%cl
     5c9:	88 0c 17             	mov    %cl,(%edi,%edx,1)
     5cc:	42                   	inc    %edx
        if (*r < 32) {
            *s++ = '^', *s++ = (uch)(64 + *r++);
        } else {
#ifdef _MBCS
            unsigned i;
            for (i = CLEN(r); i > 0; i--)
     5cd:	39 d0                	cmp    %edx,%eax
     5cf:	75 f5                	jne    5c6 <_fnfilter+0x56>
     5d1:	01 c7                	add    %eax,%edi
     5d3:	01 c3                	add    %eax,%ebx
     5d5:	eb ad                	jmp    584 <_fnfilter+0x14>
     5d7:	89 f6                	mov    %esi,%esi
     5d9:	8d bc 27 00 00 00 00 	lea    0x0(%edi,%eiz,1),%edi

000005e0 <_store_info>:
/*  Function store_info()  */
/***************************/

static int store_info(__G)   /* return 0 if skipping, 1 if OK */
    __GDEF
{
     5e0:	55                   	push   %ebp
     5e1:	57                   	push   %edi
     5e2:	56                   	push   %esi
     5e3:	53                   	push   %ebx
     5e4:	83 ec 3c             	sub    $0x3c,%esp
     5e7:	89 c3                	mov    %eax,%ebx

/*---------------------------------------------------------------------------
    Check central directory info for version/compatibility requirements.
  ---------------------------------------------------------------------------*/

    G.pInfo->encrypted = G.crec.general_purpose_bit_flag & 1;   /* bit field */
     5e9:	8b 88 d8 08 00 00    	mov    0x8d8(%eax),%ecx
     5ef:	8a 80 40 09 01 00    	mov    0x10940(%eax),%al
     5f5:	83 e0 01             	and    $0x1,%eax
     5f8:	8a 51 18             	mov    0x18(%ecx),%dl
     5fb:	83 e2 fe             	and    $0xfffffffe,%edx
     5fe:	09 d0                	or     %edx,%eax
     600:	88 41 18             	mov    %al,0x18(%ecx)
    G.pInfo->ExtLocHdr = (G.crec.general_purpose_bit_flag & 8) == 8;  /* bit */
     603:	8b 8b d8 08 00 00    	mov    0x8d8(%ebx),%ecx
     609:	8b 83 40 09 01 00    	mov    0x10940(%ebx),%eax
     60f:	66 c1 e8 03          	shr    $0x3,%ax
     613:	8a 51 18             	mov    0x18(%ecx),%dl
     616:	83 e0 01             	and    $0x1,%eax
     619:	83 e2 fd             	and    $0xfffffffd,%edx
     61c:	01 c0                	add    %eax,%eax
     61e:	09 d0                	or     %edx,%eax
     620:	88 41 18             	mov    %al,0x18(%ecx)
    G.pInfo->textfile = G.crec.internal_file_attributes & 1;    /* bit field */
     623:	8b 8b d8 08 00 00    	mov    0x8d8(%ebx),%ecx
     629:	8a 83 5c 09 01 00    	mov    0x1095c(%ebx),%al
     62f:	83 e0 01             	and    $0x1,%eax
     632:	c1 e0 02             	shl    $0x2,%eax
     635:	8a 51 18             	mov    0x18(%ecx),%dl
     638:	83 e2 fb             	and    $0xfffffffb,%edx
     63b:	09 d0                	or     %edx,%eax
     63d:	88 41 18             	mov    %al,0x18(%ecx)
    G.pInfo->crc = G.crec.crc32;
     640:	8b 83 d8 08 00 00    	mov    0x8d8(%ebx),%eax
     646:	8b 93 48 09 01 00    	mov    0x10948(%ebx),%edx
     64c:	89 50 0c             	mov    %edx,0xc(%eax)
    G.pInfo->compr_size = G.crec.csize;
     64f:	8b 93 4c 09 01 00    	mov    0x1094c(%ebx),%edx
     655:	89 50 04             	mov    %edx,0x4(%eax)
    G.pInfo->uncompr_size = G.crec.ucsize;
     658:	8b 93 50 09 01 00    	mov    0x10950(%ebx),%edx
     65e:	89 50 08             	mov    %edx,0x8(%eax)

    switch (uO.aflag) {
     661:	8b 53 10             	mov    0x10(%ebx),%edx
     664:	85 d2                	test   %edx,%edx
     666:	0f 84 a8 01 00 00    	je     814 <_store_info+0x234>
     66c:	4a                   	dec    %edx
     66d:	74 33                	je     6a2 <_store_info+0xc2>
            break;
        case 1:
            G.pInfo->textmode = G.pInfo->textfile;   /* auto-convert mode */
            break;
        default:  /* case 2: */
            G.pInfo->textmode = TRUE;
     66f:	80 48 18 08          	orb    $0x8,0x18(%eax)
            break;
    }

    if (G.crec.version_needed_to_extract[1] == VMS_) {
     673:	80 bb 3f 09 01 00 02 	cmpb   $0x2,0x1093f(%ebx)
        if (G.crec.version_needed_to_extract[0] > VMS_UNZIP_VERSION) {
     67a:	8a 93 3e 09 01 00    	mov    0x1093e(%ebx),%dl
        default:  /* case 2: */
            G.pInfo->textmode = TRUE;
            break;
    }

    if (G.crec.version_needed_to_extract[1] == VMS_) {
     680:	74 43                	je     6c5 <_store_info+0xe5>
            if ((*G.answerbuf != 'y') && (*G.answerbuf != 'Y'))
                return 0;
        }
#endif /* !VMS */
    /* usual file type:  don't need VMS to extract */
    } else if (G.crec.version_needed_to_extract[0] > UNZIP_VERSION) {
     682:	80 fa 15             	cmp    $0x15,%dl
     685:	0f 86 d8 00 00 00    	jbe    763 <_store_info+0x183>
        if (!((uO.tflag && uO.qflag) || (!uO.tflag && !QCOND2)))
     68b:	8b 73 38             	mov    0x38(%ebx),%esi
     68e:	85 f6                	test   %esi,%esi
     690:	0f 84 ef 02 00 00    	je     985 <_store_info+0x3a5>
                Info(slide, 0x401, ((char *)slide, LoadFarString(VersionMsg),
                  FnFilter1(G.filename), "VMS",
                  G.crec.version_needed_to_extract[0] / 10,
                  G.crec.version_needed_to_extract[0] % 10,
                  VMS_UNZIP_VERSION / 10, VMS_UNZIP_VERSION % 10));
            return 0;
     696:	31 f6                	xor    %esi,%esi

    G.pInfo->diskstart = G.crec.disk_number_start;
    G.pInfo->offset = (Z_OFF_T)G.crec.relative_offset_local_header;
    return 1;

} /* end function store_info() */
     698:	83 c4 3c             	add    $0x3c,%esp
     69b:	89 f0                	mov    %esi,%eax
     69d:	5b                   	pop    %ebx
     69e:	5e                   	pop    %esi
     69f:	5f                   	pop    %edi
     6a0:	5d                   	pop    %ebp
     6a1:	c3                   	ret    
    switch (uO.aflag) {
        case 0:
            G.pInfo->textmode = FALSE;   /* bit field */
            break;
        case 1:
            G.pInfo->textmode = G.pInfo->textfile;   /* auto-convert mode */
     6a2:	0f b6 78 18          	movzbl 0x18(%eax),%edi
     6a6:	89 f9                	mov    %edi,%ecx
     6a8:	8d 14 3f             	lea    (%edi,%edi,1),%edx
     6ab:	83 e1 f7             	and    $0xfffffff7,%ecx
     6ae:	83 e2 08             	and    $0x8,%edx
     6b1:	09 ca                	or     %ecx,%edx
     6b3:	88 50 18             	mov    %dl,0x18(%eax)
        default:  /* case 2: */
            G.pInfo->textmode = TRUE;
            break;
    }

    if (G.crec.version_needed_to_extract[1] == VMS_) {
     6b6:	80 bb 3f 09 01 00 02 	cmpb   $0x2,0x1093f(%ebx)
        if (G.crec.version_needed_to_extract[0] > VMS_UNZIP_VERSION) {
     6bd:	8a 93 3e 09 01 00    	mov    0x1093e(%ebx),%dl
        default:  /* case 2: */
            G.pInfo->textmode = TRUE;
            break;
    }

    if (G.crec.version_needed_to_extract[1] == VMS_) {
     6c3:	75 bd                	jne    682 <_store_info+0xa2>
        if (G.crec.version_needed_to_extract[0] > VMS_UNZIP_VERSION) {
     6c5:	80 fa 2a             	cmp    $0x2a,%dl
     6c8:	0f 87 b2 01 00 00    	ja     880 <_store_info+0x2a0>
                  G.crec.version_needed_to_extract[0] % 10,
                  VMS_UNZIP_VERSION / 10, VMS_UNZIP_VERSION % 10));
            return 0;
        }
#ifndef VMS   /* won't be able to use extra field, but still have data */
        else if (!uO.tflag && !IS_OVERWRT_ALL) { /* if -o, extract anyway */
     6ce:	8b 43 44             	mov    0x44(%ebx),%eax
     6d1:	85 c0                	test   %eax,%eax
     6d3:	0f 85 8a 00 00 00    	jne    763 <_store_info+0x183>
     6d9:	83 7b 78 01          	cmpl   $0x1,0x78(%ebx)
     6dd:	0f 84 80 00 00 00    	je     763 <_store_info+0x183>
            Info(slide, 0x481, ((char *)slide, LoadFarString(VMSFormatQuery),
     6e3:	8d 83 dc 88 00 00    	lea    0x88dc(%ebx),%eax
     6e9:	8b bb 44 0b 01 00    	mov    0x10b44(%ebx),%edi
     6ef:	89 44 24 04          	mov    %eax,0x4(%esp)
     6f3:	8d 83 e0 09 01 00    	lea    0x109e0(%ebx),%eax
     6f9:	89 04 24             	mov    %eax,(%esp)
     6fc:	8d b3 dc 08 00 00    	lea    0x8dc(%ebx),%esi
     702:	e8 69 fe ff ff       	call   570 <_fnfilter>
     707:	c7 44 24 04 40 07 00 	movl   $0x740,0x4(%esp)
     70e:	00 
     70f:	89 44 24 08          	mov    %eax,0x8(%esp)
     713:	89 34 24             	mov    %esi,(%esp)
     716:	e8 00 00 00 00       	call   71b <_store_info+0x13b>
     71b:	c7 44 24 0c 81 04 00 	movl   $0x481,0xc(%esp)
     722:	00 
     723:	89 44 24 08          	mov    %eax,0x8(%esp)
     727:	89 74 24 04          	mov    %esi,0x4(%esp)
     72b:	89 1c 24             	mov    %ebx,(%esp)
     72e:	ff d7                	call   *%edi
              FnFilter1(G.filename)));
            fgets(G.answerbuf, 9, stdin);
     730:	a1 00 00 00 00       	mov    0x0,%eax
                  VMS_UNZIP_VERSION / 10, VMS_UNZIP_VERSION % 10));
            return 0;
        }
#ifndef VMS   /* won't be able to use extra field, but still have data */
        else if (!uO.tflag && !IS_OVERWRT_ALL) { /* if -o, extract anyway */
            Info(slide, 0x481, ((char *)slide, LoadFarString(VMSFormatQuery),
     735:	83 ec 10             	sub    $0x10,%esp
              FnFilter1(G.filename)));
            fgets(G.answerbuf, 9, stdin);
     738:	89 44 24 08          	mov    %eax,0x8(%esp)
     73c:	8d 83 cc 00 00 00    	lea    0xcc(%ebx),%eax
     742:	c7 44 24 04 09 00 00 	movl   $0x9,0x4(%esp)
     749:	00 
     74a:	89 04 24             	mov    %eax,(%esp)
     74d:	e8 00 00 00 00       	call   752 <_store_info+0x172>
            if ((*G.answerbuf != 'y') && (*G.answerbuf != 'Y'))
     752:	8a 83 cc 00 00 00    	mov    0xcc(%ebx),%al
     758:	83 e0 df             	and    $0xffffffdf,%eax
     75b:	3c 59                	cmp    $0x59,%al
     75d:	0f 85 33 ff ff ff    	jne    696 <_store_info+0xb6>
              G.crec.version_needed_to_extract[0] % 10,
              UNZIP_VERSION / 10, UNZIP_VERSION % 10));
        return 0;
    }

    if UNKN_COMPR {
     763:	66 8b 83 42 09 01 00 	mov    0x10942(%ebx),%ax
     76a:	66 83 f8 09          	cmp    $0x9,%ax
     76e:	89 c7                	mov    %eax,%edi
     770:	0f 97 c2             	seta   %dl
     773:	66 83 f8 07          	cmp    $0x7,%ax
     777:	0f 94 c0             	sete   %al
     77a:	08 c2                	or     %al,%dl
     77c:	75 0f                	jne    78d <_store_info+0x1ad>
     77e:	89 f8                	mov    %edi,%eax
     780:	83 e8 02             	sub    $0x2,%eax
     783:	66 83 f8 03          	cmp    $0x3,%ax
     787:	0f 87 93 00 00 00    	ja     820 <_store_info+0x240>
        if (!((uO.tflag && uO.qflag) || (!uO.tflag && !QCOND2))) {
     78d:	8b 73 38             	mov    0x38(%ebx),%esi
     790:	85 f6                	test   %esi,%esi
     792:	0f 85 fe fe ff ff    	jne    696 <_store_info+0xb6>
#ifndef SFX
            if (G.crec.compression_method < NUM_METHODS)
     798:	66 83 ff 0c          	cmp    $0xc,%di
                Info(slide, 0x401, ((char *)slide, LoadFarString(ComprMsgName),
     79c:	8b 83 44 0b 01 00    	mov    0x10b44(%ebx),%eax
     7a2:	89 44 24 28          	mov    %eax,0x28(%esp)
    }

    if UNKN_COMPR {
        if (!((uO.tflag && uO.qflag) || (!uO.tflag && !QCOND2))) {
#ifndef SFX
            if (G.crec.compression_method < NUM_METHODS)
     7a6:	0f 87 78 01 00 00    	ja     924 <_store_info+0x344>
                Info(slide, 0x401, ((char *)slide, LoadFarString(ComprMsgName),
     7ac:	89 f9                	mov    %edi,%ecx
     7ae:	8d 83 dc 88 00 00    	lea    0x88dc(%ebx),%eax
     7b4:	31 ff                	xor    %edi,%edi
     7b6:	89 44 24 04          	mov    %eax,0x4(%esp)
     7ba:	66 89 cf             	mov    %cx,%di
     7bd:	8d 83 e0 09 01 00    	lea    0x109e0(%ebx),%eax
     7c3:	89 04 24             	mov    %eax,(%esp)
     7c6:	8b 2c bd c0 0b 00 00 	mov    0xbc0(,%edi,4),%ebp
     7cd:	e8 9e fd ff ff       	call   570 <_fnfilter>
     7d2:	8d bb dc 08 00 00    	lea    0x8dc(%ebx),%edi
     7d8:	89 6c 24 0c          	mov    %ebp,0xc(%esp)
     7dc:	89 44 24 08          	mov    %eax,0x8(%esp)
     7e0:	c7 44 24 04 40 0c 00 	movl   $0xc40,0x4(%esp)
     7e7:	00 
     7e8:	89 3c 24             	mov    %edi,(%esp)
     7eb:	e8 00 00 00 00       	call   7f0 <_store_info+0x210>
     7f0:	89 7c 24 04          	mov    %edi,0x4(%esp)
     7f4:	89 1c 24             	mov    %ebx,(%esp)
     7f7:	c7 44 24 0c 01 04 00 	movl   $0x401,0xc(%esp)
     7fe:	00 
     7ff:	89 44 24 08          	mov    %eax,0x8(%esp)
     803:	ff 54 24 28          	call   *0x28(%esp)

    G.pInfo->diskstart = G.crec.disk_number_start;
    G.pInfo->offset = (Z_OFF_T)G.crec.relative_offset_local_header;
    return 1;

} /* end function store_info() */
     807:	89 f0                	mov    %esi,%eax

    if UNKN_COMPR {
        if (!((uO.tflag && uO.qflag) || (!uO.tflag && !QCOND2))) {
#ifndef SFX
            if (G.crec.compression_method < NUM_METHODS)
                Info(slide, 0x401, ((char *)slide, LoadFarString(ComprMsgName),
     809:	83 ec 10             	sub    $0x10,%esp

    G.pInfo->diskstart = G.crec.disk_number_start;
    G.pInfo->offset = (Z_OFF_T)G.crec.relative_offset_local_header;
    return 1;

} /* end function store_info() */
     80c:	83 c4 3c             	add    $0x3c,%esp
     80f:	5b                   	pop    %ebx
     810:	5e                   	pop    %esi
     811:	5f                   	pop    %edi
     812:	5d                   	pop    %ebp
     813:	c3                   	ret    
    G.pInfo->compr_size = G.crec.csize;
    G.pInfo->uncompr_size = G.crec.ucsize;

    switch (uO.aflag) {
        case 0:
            G.pInfo->textmode = FALSE;   /* bit field */
     814:	80 60 18 f7          	andb   $0xf7,0x18(%eax)
            break;
     818:	e9 56 fe ff ff       	jmp    673 <_store_info+0x93>
     81d:	8d 76 00             	lea    0x0(%esi),%esi
    }
#endif /* !CRYPT */

#ifndef SFX
    /* store a copy of the central header filename for later comparison */
    if ((G.pInfo->cfilname = zfmalloc(strlen(G.filename) + 1)) == NULL) {
     820:	8d b3 e0 09 01 00    	lea    0x109e0(%ebx),%esi
     826:	8b bb d8 08 00 00    	mov    0x8d8(%ebx),%edi
     82c:	89 34 24             	mov    %esi,(%esp)
     82f:	e8 00 00 00 00       	call   834 <_store_info+0x254>
     834:	40                   	inc    %eax
     835:	89 04 24             	mov    %eax,(%esp)
     838:	e8 00 00 00 00       	call   83d <_store_info+0x25d>
     83d:	89 47 1c             	mov    %eax,0x1c(%edi)
     840:	85 c0                	test   %eax,%eax
     842:	0f 84 d8 01 00 00    	je     a20 <_store_info+0x440>
        Info(slide, 0x401, ((char *)slide, LoadFarString(WarnNoMemCFName),
          FnFilter1(G.filename)));
    } else
        zfstrcpy(G.pInfo->cfilname, G.filename);
     848:	89 74 24 04          	mov    %esi,0x4(%esp)
     84c:	89 04 24             	mov    %eax,(%esp)
     84f:	e8 00 00 00 00       	call   854 <_store_info+0x274>
#endif /* !SFX */

    /* map whatever file attributes we have into the local format */
    mapattr(__G);   /* GRR:  worry about return value later */
     854:	89 1c 24             	mov    %ebx,(%esp)

    G.pInfo->diskstart = G.crec.disk_number_start;
    G.pInfo->offset = (Z_OFF_T)G.crec.relative_offset_local_header;
    return 1;
     857:	be 01 00 00 00       	mov    $0x1,%esi
    } else
        zfstrcpy(G.pInfo->cfilname, G.filename);
#endif /* !SFX */

    /* map whatever file attributes we have into the local format */
    mapattr(__G);   /* GRR:  worry about return value later */
     85c:	e8 00 00 00 00       	call   861 <_store_info+0x281>

    G.pInfo->diskstart = G.crec.disk_number_start;
     861:	8b 83 d8 08 00 00    	mov    0x8d8(%ebx),%eax
     867:	66 8b 93 5a 09 01 00 	mov    0x1095a(%ebx),%dx
     86e:	66 89 50 10          	mov    %dx,0x10(%eax)
    G.pInfo->offset = (Z_OFF_T)G.crec.relative_offset_local_header;
     872:	8b 93 64 09 01 00    	mov    0x10964(%ebx),%edx
     878:	89 10                	mov    %edx,(%eax)
    return 1;
     87a:	e9 19 fe ff ff       	jmp    698 <_store_info+0xb8>
     87f:	90                   	nop
            break;
    }

    if (G.crec.version_needed_to_extract[1] == VMS_) {
        if (G.crec.version_needed_to_extract[0] > VMS_UNZIP_VERSION) {
            if (!((uO.tflag && uO.qflag) || (!uO.tflag && !QCOND2)))
     880:	8b 73 38             	mov    0x38(%ebx),%esi
     883:	85 f6                	test   %esi,%esi
     885:	0f 85 0b fe ff ff    	jne    696 <_store_info+0xb6>
                Info(slide, 0x401, ((char *)slide, LoadFarString(VersionMsg),
     88b:	8b 83 44 0b 01 00    	mov    0x10b44(%ebx),%eax
     891:	88 54 24 2f          	mov    %dl,0x2f(%esp)
     895:	89 44 24 28          	mov    %eax,0x28(%esp)
     899:	8d 83 dc 88 00 00    	lea    0x88dc(%ebx),%eax
     89f:	89 44 24 04          	mov    %eax,0x4(%esp)
     8a3:	8d 83 e0 09 01 00    	lea    0x109e0(%ebx),%eax
     8a9:	89 04 24             	mov    %eax,(%esp)
     8ac:	8d bb dc 08 00 00    	lea    0x8dc(%ebx),%edi
     8b2:	e8 b9 fc ff ff       	call   570 <_fnfilter>
     8b7:	8a 54 24 2f          	mov    0x2f(%esp),%dl
     8bb:	89 d5                	mov    %edx,%ebp
     8bd:	c7 44 24 1c 02 00 00 	movl   $0x2,0x1c(%esp)
     8c4:	00 
     8c5:	81 e5 ff 00 00 00    	and    $0xff,%ebp
     8cb:	c7 44 24 18 04 00 00 	movl   $0x4,0x18(%esp)
     8d2:	00 
     8d3:	c7 44 24 0c 00 00 00 	movl   $0x0,0xc(%esp)
     8da:	00 
     8db:	89 44 24 08          	mov    %eax,0x8(%esp)
     8df:	8d 4c ad 00          	lea    0x0(%ebp,%ebp,4),%ecx
     8e3:	c7 44 24 04 c0 0c 00 	movl   $0xcc0,0x4(%esp)
     8ea:	00 
     8eb:	89 3c 24             	mov    %edi,(%esp)
     8ee:	8d 4c cd 00          	lea    0x0(%ebp,%ecx,8),%ecx
     8f2:	8d 0c 89             	lea    (%ecx,%ecx,4),%ecx
     8f5:	66 c1 e9 0b          	shr    $0xb,%cx
     8f9:	88 4c 24 2f          	mov    %cl,0x2f(%esp)
     8fd:	8d 2c 89             	lea    (%ecx,%ecx,4),%ebp
     900:	01 ed                	add    %ebp,%ebp
     902:	89 e9                	mov    %ebp,%ecx
     904:	29 ca                	sub    %ecx,%edx
     906:	88 d1                	mov    %dl,%cl
     908:	31 d2                	xor    %edx,%edx
     90a:	88 ca                	mov    %cl,%dl
     90c:	31 c9                	xor    %ecx,%ecx
     90e:	8a 4c 24 2f          	mov    0x2f(%esp),%cl
     912:	89 54 24 14          	mov    %edx,0x14(%esp)
     916:	89 4c 24 10          	mov    %ecx,0x10(%esp)
     91a:	e8 00 00 00 00       	call   91f <_store_info+0x33f>
     91f:	e9 cc fe ff ff       	jmp    7f0 <_store_info+0x210>
                Info(slide, 0x401, ((char *)slide, LoadFarString(ComprMsgName),
                  FnFilter1(G.filename),
                  LoadFarStringSmall(ComprNames[G.crec.compression_method])));
            else
#endif
                Info(slide, 0x401, ((char *)slide, LoadFarString(ComprMsgNum),
     924:	8d 83 dc 88 00 00    	lea    0x88dc(%ebx),%eax
