; Listing generated by Microsoft (R) Optimizing Compiler Version 19.00.23918.0 

	TITLE	C:\notes\pcbeleg\software\libman\libman.c
	.686P
	.XMM
	include listing.inc
	.model	flat

INCLUDELIB LIBCMTD
INCLUDELIB OLDNAMES

PUBLIC	_DrawWindowMaxX
PUBLIC	_DrawWindowMaxY
PUBLIC	_ReverseY
PUBLIC	_ProjectIndexNr
PUBLIC	_ListWindowWidth
PUBLIC	_ListWindowHeight
PUBLIC	_ButtonSizeX
PUBLIC	_ButtonSizeY
PUBLIC	_ButtonStepX
PUBLIC	_ButtonStepY
PUBLIC	_TimerIdentifier
PUBLIC	_SaveBrush
PUBLIC	_SavePen
PUBLIC	_SaveFont
_DATA	SEGMENT
COMM	_PS:BYTE:040H
COMM	_RealWindow:BYTE:010H
COMM	_ClientRect:BYTE:010H
COMM	_UpdateRect:BYTE:010H
COMM	_RectListWindow1:BYTE:010H
COMM	_RectListWindow2:BYTE:010H
COMM	_EditingRegion:DWORD
COMM	_LIBMANWindow:DWORD
COMM	_LIBMANDisplay:DWORD
COMM	_OutputDisplay:DWORD
COMM	_NewFont:DWORD
COMM	_TimerValue:DWORD
COMM	_WindowWidth:DWORD
COMM	_WindowHeigth:DWORD
COMM	_SymbolsSelected:DWORD
COMM	_DialogMode:DWORD
COMM	_NrLibEntries:DWORD
COMM	_MouseCount:DWORD
COMM	_ok:DWORD
COMM	_ScreenSizeX:DWORD
COMM	_ScreenSizeY:DWORD
COMM	_WindowStartX:DWORD
COMM	_WindowStartY:DWORD
COMM	_DCInUse:DWORD
COMM	_Painting:DWORD
COMM	_ProjectActive:DWORD
COMM	_DrawWindowMinX:DWORD
COMM	_DrawWindowMinY:DWORD
COMM	_MousePosX:DWORD
COMM	_MousePosY:DWORD
COMM	_SymbolToBeEditedPos:DWORD:02H
COMM	_SymbolCountToBeEditedPos:DWORD:02H
COMM	_OperatingSystem:DWORD
COMM	_LibIndex:DWORD:0100aH
COMM	_OkToUseSharedMemory:DWORD
COMM	_BackupMade:DWORD:02H
COMM	_TotalNrLibmanNames:DWORD
COMM	_FoundInstallation:DWORD
COMM	_LibraryMode:DWORD
COMM	_MaxTempMemory:DWORD
COMM	_TempMemoryPos:DWORD
COMM	_TextBufPos:DWORD
COMM	_TextBufLength:DWORD
COMM	_FileP2:DWORD
COMM	_TimerObject:DWORD
COMM	_StartUpMessage:DWORD
COMM	_MainMenu:DWORD
COMM	_SubMenu:DWORD
COMM	_Buf:DWORD
COMM	_ExportDir:BYTE:0200H
COMM	_ExecutableDir:BYTE:0200H
COMM	_VersionStr:BYTE:0200H
COMM	_InstallDirStr:BYTE:0200H
COMM	_ProgramFilesDir:BYTE:0200H
COMM	_ProjectDirStr:BYTE:0200H
COMM	_ProjectPath:BYTE:0200H
COMM	_DefaultLibraryPath:BYTE:0200H
COMM	_DefaultSymbolPath:BYTE:0200H
COMM	_TextBuf:DWORD
COMM	_LibraryText1:BYTE:0200H
COMM	_LibraryText2:BYTE:0200H
COMM	_EditPath:BYTE:0200H
COMM	_LibraryFile:BYTE:0400H
COMM	_DialogTextLine:BYTE:0200H
COMM	_NrParams:DWORD
COMM	_NewLibName:BYTE:0200H
COMM	_Params:BYTE:01000H
COMM	_ExePath:BYTE:0200H
COMM	_SymbolToBeEdited:BYTE:05000H
COMM	_TempPath:BYTE:0200H
COMM	_SymbolImportDir:BYTE:0200H
COMM	_LibNames:BYTE:050000H
COMM	_LibNamesDeleted:BYTE:01000H
COMM	_SharedMemory:DWORD
COMM	_TempMem:DWORD
COMM	_Lib:BYTE:0a0H
COMM	_NewLib:BYTE:0a0H
COMM	_OSInfo:BYTE:094H
COMM	_ProjectInfo:DWORD
COMM	_SharedMemoryHandle:DWORD
COMM	_BlackPen:DWORD
COMM	_GrayPen:DWORD
COMM	_LightGrayPen:DWORD
COMM	_WhitePen:DWORD
COMM	_EmptyPen:DWORD
COMM	_LineColor:DWORD
COMM	_LIBMANClass:BYTE:028H
COMM	_ListClass:BYTE:028H
COMM	_TextBufGlobal:DWORD
COMM	_GlobalTempMem:DWORD
COMM	_StartupInfo:BYTE:044H
COMM	_LIBMANMenu:DWORD
COMM	_LIBMANMenu1:DWORD
COMM	_ListWindow1:DWORD
COMM	_ListWindow2:DWORD
COMM	_CreateNewLibButton1:DWORD
COMM	_CreateNewLibButton2:DWORD
COMM	_OpenLibButton1:DWORD
COMM	_OpenLibButton2:DWORD
COMM	_SaveLibButton1:DWORD
COMM	_SaveLibButton2:DWORD
COMM	_CloseLibButton1:DWORD
COMM	_CloseLibButton2:DWORD
COMM	_ImportSymbolsButton1:DWORD
COMM	_ImportSymbolsButton2:DWORD
COMM	_ExportSymbolsButton1:DWORD
COMM	_ExportSymbolsButton2:DWORD
COMM	_DeleteSymbolsButton1:DWORD
COMM	_DeleteSymbolsButton2:DWORD
COMM	_DeselectAllButton1:DWORD
COMM	_DeselectAllButton2:DWORD
COMM	_SelectAllButton1:DWORD
COMM	_SelectAllButton2:DWORD
COMM	_CopyButton1:DWORD
COMM	_CopyButton2:DWORD
COMM	_MoveButton1:DWORD
COMM	_MoveButton2:DWORD
COMM	_NrLibmanNames:DWORD
COMM	_LibmanNamesPos:DWORD
COMM	_LibmanNamesId:DWORD:0400H
COMM	_LibmanNamesBuf:BYTE:08020H
COMM	_TextLineNr:DWORD
COMM	_FileP:DWORD
_DATA	ENDS
_DATA	SEGMENT
_DrawWindowMaxX DD 02710H
_DrawWindowMaxY DD 02710H
_ReverseY DD	01H
_ProjectIndexNr DD 0ffffffffH
_ListWindowWidth DD 01a4H
_ListWindowHeight DD 015eH
_ButtonSizeX DD	078H
_ButtonSizeY DD	019H
_ButtonStepX DD	096H
_ButtonStepY DD	023H
_TimerIdentifier DD 012345678H
_SaveBrush DD	0ffffffffH
_SavePen DD	0ffffffffH
_SaveFont DD	0ffffffffH
_DATA	ENDS
PUBLIC	_WinMain@16
PUBLIC	___local_stdio_printf_options
PUBLIC	___local_stdio_scanf_options
PUBLIC	__vsnprintf_l
PUBLIC	__vsprintf_l
PUBLIC	_sprintf
PUBLIC	__vsscanf_l
PUBLIC	_sscanf
PUBLIC	_StringConvert
PUBLIC	_LIBMANWinProc@16
PUBLIC	_LoadSymbolFileNames
PUBLIC	_SetDialogItemText
PUBLIC	_AboutDialogBody@16
PUBLIC	_PointInRectangle
PUBLIC	_InsertWindowInProject
PUBLIC	_AllocateMemTemp
PUBLIC	_DeAllocateMemTemp
PUBLIC	_CopyFileNameToTempMem
PUBLIC	_GetDirDialog2@16
PUBLIC	_GetNewDirectory
PUBLIC	_InitDeviceContext
PUBLIC	_StartDrawingEditingWindow
PUBLIC	_DoneDeviceContext
PUBLIC	_EndDrawingEditingWindow
PUBLIC	_ExitDrawing
PUBLIC	_InitDrawingColorWhite
PUBLIC	_InitDrawingColorBlack
PUBLIC	_InitDrawingColorGray
PUBLIC	_InitDrawingColorLightGray
PUBLIC	_DisplayRectangleIn3dLook
PUBLIC	_rect4a
PUBLIC	_DisplayLibraryText
PUBLIC	_WindowPaint
PUBLIC	_DeselectList1
PUBLIC	_DeselectList2
PUBLIC	_SelectList1
PUBLIC	_SelectList2
PUBLIC	_MakeBackup
PUBLIC	_PutSymbolsIntoList
PUBLIC	_AddSymbolToList
PUBLIC	_RemoveSymbolFromList
PUBLIC	_NewLibDialog2@16
PUBLIC	_MakeNewLib
PUBLIC	_CloseLib
PUBLIC	_LoadLib
PUBLIC	_AddSymbolToLibrary
PUBLIC	_DeleteSymbols
PUBLIC	_ExportSymbols
PUBLIC	_AddSymbols
PUBLIC	_EditSymbol
PUBLIC	_ExitEditingSymbol
PUBLIC	_ReloadSymbolsIntoLibrary
PUBLIC	_PopupMenu
PUBLIC	_CreateWindowObjects
PUBLIC	_MakeMenu
PUBLIC	_Help
PUBLIC	_LIBMANCommand
PUBLIC	_DecodeParameters
PUBLIC	_AddLibmanLanguageString
PUBLIC	_AddLibmanLanguageStrings
PUBLIC	??_C@_00CNPNBAHC@?$AA@				; `string'
PUBLIC	??_C@_0CD@PECGDHGE@About?5library?5manager?5PCB?5elegan@ ; `string'
PUBLIC	??_C@_0BN@HAKPMFFG@library?5manager?5PCB?5Elegance?$AA@ ; `string'
PUBLIC	??_C@_02GIPFHKNO@OK?$AA@			; `string'
PUBLIC	??_C@_0N@MBDMEPPJ@18?5May?0?52012?$AA@		; `string'
PUBLIC	??_C@_0BP@LOJGINCP@Build?5version?5?$CFi?4?$CFi?4?$CFi?5?5?$FL?5?$CFs?5?$FN?$AA@ ; `string'
PUBLIC	??_C@_0CP@PPFINMMK@?$AN?6?$AN?6Compiled?5with?5Microsoft?5Visu@ ; `string'
PUBLIC	??_C@_06FMBNCPDL@Cancel?$AA@			; `string'
PUBLIC	??_C@_0BB@CGBBLDCE@Select?5directory?$AA@	; `string'
PUBLIC	??_C@_06BNHEIDIH@?$CFs?2?$CK?4?$CK?$AA@		; `string'
PUBLIC	??_C@_13JOFGPIOO@?$AA?4?$AA?$AA@		; `string'
PUBLIC	??_C@_15DDHGOCBH@?$AA?4?$AA?4?$AA?$AA@		; `string'
PUBLIC	??_C@_09GBIPEEFN@?$CFs?2?$CFs?2sym?$AA@		; `string'
PUBLIC	??_C@_0BB@KOPNLDEO@?$CFs?2?$CFs?2pcb?2shapes?$AA@ ; `string'
PUBLIC	??_C@_0EM@CNNPBJJJ@?5?5?5?5?5?5?5?5?5?5?5?5?5?5?5?5?5?5?5?5?5?5?5?5?5?5?5?5?5?5?5?5@ ; `string'
PUBLIC	??_C@_0BA@EICOPOHD@?$CFs?5?$FL?$CFi?5symbols?$FN?$AA@ ; `string'
PUBLIC	??_C@_0BD@HPLGHJHN@?$CFs?5?$FL?$CFi?5geometries?$FN?$AA@ ; `string'
PUBLIC	??_C@_0N@CPAHMBAI@?$CFs?2backup?2?$CFs?$AA@	; `string'
PUBLIC	??_C@_05NAOIJFC@Error?$AA@			; `string'
PUBLIC	??_C@_0BF@FBPFCAMF@No?5library?5file?5open?$AA@	; `string'
PUBLIC	??_C@_03JOOLLLO@?$CFs?2?$AA@			; `string'
PUBLIC	??_C@_06GNGMGJIB@?$CFs?4lib?$AA@		; `string'
PUBLIC	??_C@_06GDNNOMKD@?$CFs?4slb?$AA@		; `string'
PUBLIC	??_C@_0BM@GDCHEAEN@File?5?$CFs?5exists?5overwerite?5?$DP?$AA@ ; `string'
PUBLIC	??_C@_0BL@CAKLMLEK@Symbol?5library?5version?51?40?$AA@ ; `string'
PUBLIC	??_C@_0BN@LDKPIGNM@Geometry?5library?5version?51?40?$AA@ ; `string'
PUBLIC	??_C@_0BF@PACNIOIP@Symbol?5library?5files?$AA@	; `string'
PUBLIC	??_C@_03LPIGJBNC@lib?$AA@			; `string'
PUBLIC	??_C@_0BH@EMEBPGGA@Geometry?5library?5files?$AA@ ; `string'
PUBLIC	??_C@_03LBDHBEPA@slb?$AA@			; `string'
PUBLIC	??_C@_0BM@EPLEAHJC@Error?5in?5reading?5library?5?$CFs?$AA@ ; `string'
PUBLIC	??_C@_0BE@BECAACMB@Library?5?$CFs?5is?5wrong?$AA@ ; `string'
PUBLIC	??_C@_0BP@CFMDOOK@Can?5not?5open?5symbol?5in?5file?5?$CFs?$AA@ ; `string'
PUBLIC	??_C@_0CB@HGKICLGE@Can?5not?5open?5geometry?5in?5file?5?$CFs@ ; `string'
PUBLIC	??_C@_07MKBOLLDP@Symb1?40?$AA@			; `string'
PUBLIC	??_C@_07NIKLBENB@Symb2?40?$AA@			; `string'
PUBLIC	??_C@_07GABHHDLE@Symb3?40?$AA@			; `string'
PUBLIC	??_C@_0BD@BOPCBFNK@Symbol?5?$CFs?5is?5wrong?$AA@ ; `string'
PUBLIC	??_C@_0BF@JAOEBJBK@Shape?5definition?51?40?$AA@	; `string'
PUBLIC	??_C@_0BF@ONJDONFP@Shape?5definition?51?45?$AA@	; `string'
PUBLIC	??_C@_0BC@HCOEMECA@Shape?5?$CFs?5is?5wrong?$AA@	; `string'
PUBLIC	??_C@_0BH@GDAKKDFA@Library?5size?5?$DO32?5Mbyte?$AA@ ; `string'
PUBLIC	??_C@_0BI@BFFPJHHG@Symbol?5size?5?$DO1024?5kbyte?$AA@ ; `string'
PUBLIC	??_C@_0BK@KFCEOLDI@Geometry?5size?5?$DO4096?5kbyte?$AA@ ; `string'
PUBLIC	??_C@_0BO@LAEEEFKG@Symbol?5?$CFs?5exists?0?5overwrite?5?$DP?$AA@ ; `string'
PUBLIC	??_C@_0CA@LGAHECG@Geometry?5?$CFs?5exists?0?5overwrite?5?$DP?$AA@ ; `string'
PUBLIC	??_C@_07BEIHKDLJ@Message?$AA@			; `string'
PUBLIC	??_C@_0BE@OIDBEMPJ@Symbol?5?$CFs?5not?5found?$AA@ ; `string'
PUBLIC	??_C@_0BG@OCMKLJEI@Geometry?5?$CFs?5not?5found?$AA@ ; `string'
PUBLIC	??_C@_0P@ELJOPBKN@?$CFs?2library?4$?$CD?$EA?$AA@ ; `string'
PUBLIC	??_C@_06POKIJBPH@?$CFs?4sym?$AA@		; `string'
PUBLIC	??_C@_09CIIEHHID@?$CFs__?$CD?4sym?$AA@		; `string'
PUBLIC	??_C@_06BMCADEKM@?$CFs?4shp?$AA@		; `string'
PUBLIC	??_C@_09MKAMNCNI@?$CFs__?$CD?4shp?$AA@		; `string'
PUBLIC	??_C@_05BMGBEOOC@?$CFs?2?$CFs?$AA@		; `string'
PUBLIC	??_C@_0BP@MDKINCIN@File?5?$CFs?2?$CFs?5exists?0?5overwrite?5?$DP?$AA@ ; `string'
PUBLIC	??_C@_02DKCKIIND@?$CFs?$AA@			; `string'
PUBLIC	??_C@_0CJ@PHNPFLAE@?$CFd?5symbols?5added?1replaced?5for?5li@ ; `string'
PUBLIC	??_C@_0CM@EJCPCEL@?$CFd?5geometries?5added?1replaced?5for@ ; `string'
PUBLIC	??_C@_0N@JCIAGPG@Symbol?5files?$AA@		; `string'
PUBLIC	??_C@_0P@ODHBNOGE@Geometry?5files?$AA@		; `string'
PUBLIC	??_C@_03CMECGJKE@sym?$AA@			; `string'
PUBLIC	??_C@_03MOMKMMPP@shp?$AA@			; `string'
PUBLIC	??_C@_09OCJNPHPC@?$CFs?2?$CFs?4sym?$AA@		; `string'
PUBLIC	??_C@_09BFFCKJ@?$CFs?2?$CFs?4shp?$AA@		; `string'
PUBLIC	??_C@_0L@KGOMJMBN@?$CFs?2sch?4exe?$AA@		; `string'
PUBLIC	??_C@_0CJ@OIEBFKKJ@?$CC?$CFs?2sch?4exe?$CC?5?$CC?$CFs?$CC?5?1e?5?$CC?$CFs?$CC?5?1a?5?1w?5@ ; `string'
PUBLIC	??_C@_0M@JJKMJFCI@?$CFs?2geom?4exe?$AA@		; `string'
PUBLIC	??_C@_0CK@IGIFOMJJ@?$CC?$CFs?2geom?4exe?$CC?5?$CC?$CFs?$CC?5?1e?5?$CC?$CFs?$CC?5?1a?5?1w@ ; `string'
PUBLIC	??_C@_0M@DOMPHBIC@Edit?5symbol?$AA@		; `string'
PUBLIC	??_C@_0O@OENDAIBJ@Edit?5geometry?$AA@		; `string'
PUBLIC	??_C@_0BA@JCADGPII@Exit?5popup?5menu?$AA@	; `string'
PUBLIC	??_C@_11LOCGONAA@?$AA?$AA@			; `string'
PUBLIC	??_C@_1BA@BFOCGNID@?$AAL?$AAI?$AAS?$AAT?$AAB?$AAO?$AAX?$AA?$AA@ ; `string'
PUBLIC	??_C@_19GAFEELMN@?$AAL?$AAI?$AAS?$AAT?$AA?$AA@	; `string'
PUBLIC	??_C@_07MJJPDAEH@New?5lib?$AA@			; `string'
PUBLIC	??_C@_1O@MOBNNEMB@?$AAB?$AAU?$AAT?$AAT?$AAO?$AAN?$AA?$AA@ ; `string'
PUBLIC	??_C@_08PPABCFEK@Open?5lib?$AA@			; `string'
PUBLIC	??_C@_09PPCBCBOH@Close?5lib?$AA@		; `string'
PUBLIC	??_C@_0P@LOIAGIPA@Import?5symbols?$AA@		; `string'
PUBLIC	??_C@_0P@BJGEJDBF@Export?5symbols?$AA@		; `string'
PUBLIC	??_C@_0BC@FLIGJAJL@Import?5geometries?$AA@	; `string'
PUBLIC	??_C@_0BC@KEIAJMGA@Export?5geometries?$AA@	; `string'
PUBLIC	??_C@_0N@KPCPMOND@Deselect?5all?$AA@		; `string'
PUBLIC	??_C@_0L@IAIFFGEP@Select?5all?$AA@		; `string'
PUBLIC	??_C@_0P@JFIENDBP@Delete?5symbols?$AA@		; `string'
PUBLIC	??_C@_0BC@PJGELEEH@Delete?5geometries?$AA@	; `string'
PUBLIC	??_C@_08GNGEMOGB@Copy?5?b?$JG?$LK?$AA@		; `string'
PUBLIC	??_C@_08LCGCOCCJ@Move?5?b?$JG?$LK?$AA@		; `string'
PUBLIC	??_C@_08IFJMFLCA@?b?$JH?$IE?5Copy?$AA@		; `string'
PUBLIC	??_C@_08NIFGMEKO@?b?$JH?$IE?5Move?$AA@		; `string'
PUBLIC	??_C@_04PBAHLACE@File?$AA@			; `string'
PUBLIC	??_C@_04LBABLPF@Exit?$AA@			; `string'
PUBLIC	??_C@_05BDOHFCKE@About?$AA@			; `string'
PUBLIC	??_C@_0BI@HHHFDOOH@?$CFs?2libman?4chm?3?3?1html?1?$CFs?$AA@ ; `string'
PUBLIC	??_C@_0CB@JKDIKEEG@?$CFd?5symbols?5added?5to?5directory?5?$CFs@ ; `string'
PUBLIC	??_C@_0CE@NKBHKMLM@?$CFd?5geometries?5added?5to?5directory@ ; `string'
PUBLIC	??_C@_01JEJKBAGA@g?$AA@				; `string'
PUBLIC	??_C@_01LPLHEDKD@d?$AA@				; `string'
PUBLIC	??_C@_01KGKMHCOC@e?$AA@				; `string'
PUBLIC	??_C@_01OMGOGALD@u?$AA@				; `string'
PUBLIC	??_C@_01FMEDJKGI@o?$AA@				; `string'
PUBLIC	??_C@_02DPKJAMEF@?$CFd?$AA@			; `string'
PUBLIC	??_C@_0EI@HNOCINJG@This?5version?5of?5the?5library?5mana@ ; `string'
PUBLIC	??_C@_06JNIAGKJN@LIBMAN?$AA@			; `string'
PUBLIC	??_C@_0BE@HIBAEOJ@MMFILE_PCB_ELEGANCE?$AA@	; `string'
PUBLIC	??_C@_0BG@CJLLMCAF@?$CFs?2LanguageLibman?4txt?$AA@ ; `string'
PUBLIC	??_C@_06OOHONKCO@?$CFs?2lib?$AA@		; `string'
PUBLIC	??_C@_06HNLKCCFI@?$CFs?2sym?$AA@		; `string'
PUBLIC	??_C@_09NPGOFAPL@?$CFs?2shplib?$AA@		; `string'
PUBLIC	??_C@_09MCOCNMJK@?$CFs?2shapes?$AA@		; `string'
PUBLIC	??_C@_05MPFIAJAP@Arial?$AA@			; `string'
PUBLIC	??_C@_1O@HPNKJLOD@?$AAL?$AAI?$AAB?$AAM?$AAA?$AAN?$AA?$AA@ ; `string'
PUBLIC	??_C@_0BI@NMJBCEHE@Library?5manager?5symbols?$AA@ ; `string'
PUBLIC	??_C@_0BL@ILMGADFO@Library?5manager?5geometries?$AA@ ; `string'
EXTRN	___report_rangecheckfailure:PROC
EXTRN	_memcpy:PROC
EXTRN	_memmove:PROC
EXTRN	_memset:PROC
EXTRN	_strchr:PROC
EXTRN	_wcscmp:PROC
EXTRN	_strcat:PROC
EXTRN	_strcmp:PROC
EXTRN	_strcpy:PROC
EXTRN	_strlen:PROC
EXTRN	_stricmp:PROC
EXTRN	_strnicmp:PROC
EXTRN	__imp__GlobalAlloc@8:PROC
EXTRN	__imp__GlobalReAlloc@12:PROC
EXTRN	__imp__GlobalLock@4:PROC
EXTRN	__imp__GlobalUnlock@4:PROC
EXTRN	__imp__GlobalFree@4:PROC
EXTRN	__imp__GetLongPathNameA@12:PROC
EXTRN	__imp__FindClose@4:PROC
EXTRN	__imp__MapViewOfFile@20:PROC
EXTRN	__imp__OpenFileMappingA@12:PROC
EXTRN	__imp__CreateProcessA@40:PROC
EXTRN	__imp__GetCommandLineA@0:PROC
EXTRN	__imp__GetTempPathA@8:PROC
EXTRN	__imp__GetFullPathNameA@16:PROC
EXTRN	__imp__FindNextFileW@8:PROC
EXTRN	__imp__GetVersionExA@4:PROC
EXTRN	__imp__CreateFontA@56:PROC
EXTRN	__imp__CreatePen@12:PROC
EXTRN	__imp__DeleteObject@4:PROC
EXTRN	__imp__GetStockObject@4:PROC
EXTRN	__imp__SelectObject@8:PROC
EXTRN	__imp__SetBkColor@8:PROC
EXTRN	__imp__SetBkMode@8:PROC
EXTRN	__imp__SetROP2@8:PROC
EXTRN	__imp__SetTextColor@8:PROC
EXTRN	__imp__GetMessageA@16:PROC
EXTRN	__imp__TranslateMessage@4:PROC
EXTRN	__imp__DispatchMessageA@4:PROC
EXTRN	__imp__SendMessageA@16:PROC
EXTRN	__imp__PostMessageA@16:PROC
EXTRN	__imp__DefWindowProcA@16:PROC
EXTRN	__imp__PostQuitMessage@4:PROC
EXTRN	__imp__RegisterClassA@4:PROC
EXTRN	__imp__CreateWindowExW@48:PROC
EXTRN	__imp__DestroyWindow@4:PROC
EXTRN	__imp__ShowWindow@8:PROC
EXTRN	__imp__DialogBoxParamA@20:PROC
EXTRN	__imp__EndDialog@8:PROC
EXTRN	__imp__SendDlgItemMessageA@20:PROC
EXTRN	__imp__GetSystemMetrics@4:PROC
EXTRN	__imp__SetMenu@8:PROC
EXTRN	__imp__CreateMenu@0:PROC
EXTRN	__imp__CreatePopupMenu@0:PROC
EXTRN	__imp__DestroyMenu@4:PROC
EXTRN	__imp__TrackPopupMenu@28:PROC
EXTRN	__imp__GetDC@4:PROC
EXTRN	__imp__ReleaseDC@8:PROC
EXTRN	__imp__BeginPaint@8:PROC
EXTRN	__imp__EndPaint@8:PROC
EXTRN	__imp__GetUpdateRect@12:PROC
EXTRN	__imp__SetWindowTextA@8:PROC
EXTRN	__imp__GetClientRect@8:PROC
EXTRN	__imp__GetWindowRect@8:PROC
EXTRN	__imp__MessageBoxA@16:PROC
EXTRN	__imp__GetCursorPos@4:PROC
EXTRN	__imp__ClipCursor@4:PROC
EXTRN	__imp__ClientToScreen@8:PROC
EXTRN	__imp__ScreenToClient@8:PROC
EXTRN	__imp__FillRect@12:PROC
EXTRN	__imp__SetClassLongA@12:PROC
EXTRN	__imp__LoadCursorA@8:PROC
EXTRN	__imp__LoadIconA@8:PROC
EXTRN	__imp__DragQueryFileW@16:PROC
EXTRN	__imp__DragFinish@4:PROC
EXTRN	_malloc:PROC
EXTRN	_exit:PROC
EXTRN	___stdio_common_vsprintf:PROC
EXTRN	___stdio_common_vsscanf:PROC
EXTRN	_FileOpenReadOnly:PROC
EXTRN	_ReadLn:PROC
EXTRN	_TextFileClose:PROC
EXTRN	_FileClose:PROC
EXTRN	_FileSeek:PROC
EXTRN	_FileRead:PROC
EXTRN	_FileWrite:PROC
EXTRN	_GetString:PROC
EXTRN	_GetQuoteString:PROC
EXTRN	_GetQuoteString2:PROC
EXTRN	_GetDirFromFileName:PROC
EXTRN	_GetFilePartFromFileName:PROC
EXTRN	_CutExtensionFileName:PROC
EXTRN	_GetNameWithOutExtensionFromFileName:PROC
EXTRN	_DecodeQuotedString:PROC
EXTRN	_FileOpenUTF8:PROC
EXTRN	_FileOpenWriteUTF8:PROC
EXTRN	_CheckForWritingAndOpenUTF8:PROC
EXTRN	_FileOpenReadOnlyUTF8:PROC
EXTRN	_TextFileOpenUTF8:PROC
EXTRN	_CopyFileUTF8:PROC
EXTRN	_DeleteFileUTF8:PROC
EXTRN	_DirectoryExistsUTF8:PROC
EXTRN	_FileExistsUTF8:PROC
EXTRN	_FileSizeUTF8:PROC
EXTRN	_GetCurrentDirectoryUTF8:PROC
EXTRN	_GetNewFileUTF8:PROC
EXTRN	_DrawLine:PROC
EXTRN	_GetParameters:PROC
EXTRN	_GetCPUID:PROC
EXTRN	_HtmlHelpA@16:PROC
EXTRN	_SetWindowTextUTF8:PROC
EXTRN	_SendDlgItemMessageUTF8:PROC
EXTRN	_MessageBoxUTF8:PROC
EXTRN	_SendMessageUTF8:PROC
EXTRN	_TextOutUTF8:PROC
EXTRN	_AppendMenuUTF8:PROC
EXTRN	_FindFirstFileUTF8:PROC
EXTRN	_Utf8ToUnicode:PROC
EXTRN	_UnicodeToUtf8:PROC
EXTRN	@_RTC_CheckStackVars@8:PROC
EXTRN	@__security_check_cookie@4:PROC
EXTRN	__RTC_CheckEsp:PROC
EXTRN	__RTC_InitBase:PROC
EXTRN	__RTC_Shutdown:PROC
EXTRN	__chkstk:PROC
EXTRN	_Parameters:BYTE
EXTRN	___security_cookie:DWORD
_DATA	SEGMENT
COMM	?_OptionsStorage@?1??__local_stdio_printf_options@@9@9:QWORD							; `__local_stdio_printf_options'::`2'::_OptionsStorage
COMM	?_OptionsStorage@?1??__local_stdio_scanf_options@@9@9:QWORD							; `__local_stdio_scanf_options'::`2'::_OptionsStorage
_DATA	ENDS
;	COMDAT rtc$TMZ
rtc$TMZ	SEGMENT
__RTC_Shutdown.rtc$TMZ DD FLAT:__RTC_Shutdown
rtc$TMZ	ENDS
;	COMDAT rtc$IMZ
rtc$IMZ	SEGMENT
__RTC_InitBase.rtc$IMZ DD FLAT:__RTC_InitBase
rtc$IMZ	ENDS
;	COMDAT ??_C@_0BL@ILMGADFO@Library?5manager?5geometries?$AA@
CONST	SEGMENT
??_C@_0BL@ILMGADFO@Library?5manager?5geometries?$AA@ DB 'Library manager '
	DB	'geometries', 00H				; `string'
CONST	ENDS
;	COMDAT ??_C@_0BI@NMJBCEHE@Library?5manager?5symbols?$AA@
CONST	SEGMENT
??_C@_0BI@NMJBCEHE@Library?5manager?5symbols?$AA@ DB 'Library manager sym'
	DB	'bols', 00H					; `string'
CONST	ENDS
;	COMDAT ??_C@_1O@HPNKJLOD@?$AAL?$AAI?$AAB?$AAM?$AAA?$AAN?$AA?$AA@
CONST	SEGMENT
??_C@_1O@HPNKJLOD@?$AAL?$AAI?$AAB?$AAM?$AAA?$AAN?$AA?$AA@ DB 'L', 00H, 'I'
	DB	00H, 'B', 00H, 'M', 00H, 'A', 00H, 'N', 00H, 00H, 00H ; `string'
CONST	ENDS
;	COMDAT ??_C@_05MPFIAJAP@Arial?$AA@
CONST	SEGMENT
??_C@_05MPFIAJAP@Arial?$AA@ DB 'Arial', 00H		; `string'
CONST	ENDS
;	COMDAT ??_C@_09MCOCNMJK@?$CFs?2shapes?$AA@
CONST	SEGMENT
??_C@_09MCOCNMJK@?$CFs?2shapes?$AA@ DB '%s\shapes', 00H	; `string'
CONST	ENDS
;	COMDAT ??_C@_09NPGOFAPL@?$CFs?2shplib?$AA@
CONST	SEGMENT
??_C@_09NPGOFAPL@?$CFs?2shplib?$AA@ DB '%s\shplib', 00H	; `string'
CONST	ENDS
;	COMDAT ??_C@_06HNLKCCFI@?$CFs?2sym?$AA@
CONST	SEGMENT
??_C@_06HNLKCCFI@?$CFs?2sym?$AA@ DB '%s\sym', 00H	; `string'
CONST	ENDS
;	COMDAT ??_C@_06OOHONKCO@?$CFs?2lib?$AA@
CONST	SEGMENT
??_C@_06OOHONKCO@?$CFs?2lib?$AA@ DB '%s\lib', 00H	; `string'
CONST	ENDS
;	COMDAT ??_C@_0BG@CJLLMCAF@?$CFs?2LanguageLibman?4txt?$AA@
CONST	SEGMENT
??_C@_0BG@CJLLMCAF@?$CFs?2LanguageLibman?4txt?$AA@ DB '%s\LanguageLibman.'
	DB	'txt', 00H					; `string'
CONST	ENDS
;	COMDAT ??_C@_0BE@HIBAEOJ@MMFILE_PCB_ELEGANCE?$AA@
CONST	SEGMENT
??_C@_0BE@HIBAEOJ@MMFILE_PCB_ELEGANCE?$AA@ DB 'MMFILE_PCB_ELEGANCE', 00H ; `string'
CONST	ENDS
;	COMDAT ??_C@_06JNIAGKJN@LIBMAN?$AA@
CONST	SEGMENT
??_C@_06JNIAGKJN@LIBMAN?$AA@ DB 'LIBMAN', 00H		; `string'
CONST	ENDS
;	COMDAT ??_C@_0EI@HNOCINJG@This?5version?5of?5the?5library?5mana@
CONST	SEGMENT
??_C@_0EI@HNOCINJG@This?5version?5of?5the?5library?5mana@ DB 'This versio'
	DB	'n of the library manager requires a CPU with SSE2 extensions', 00H ; `string'
CONST	ENDS
;	COMDAT ??_C@_02DPKJAMEF@?$CFd?$AA@
CONST	SEGMENT
??_C@_02DPKJAMEF@?$CFd?$AA@ DB '%d', 00H		; `string'
CONST	ENDS
;	COMDAT ??_C@_01FMEDJKGI@o?$AA@
CONST	SEGMENT
??_C@_01FMEDJKGI@o?$AA@ DB 'o', 00H			; `string'
CONST	ENDS
;	COMDAT ??_C@_01OMGOGALD@u?$AA@
CONST	SEGMENT
??_C@_01OMGOGALD@u?$AA@ DB 'u', 00H			; `string'
CONST	ENDS
;	COMDAT ??_C@_01KGKMHCOC@e?$AA@
CONST	SEGMENT
??_C@_01KGKMHCOC@e?$AA@ DB 'e', 00H			; `string'
CONST	ENDS
;	COMDAT ??_C@_01LPLHEDKD@d?$AA@
CONST	SEGMENT
??_C@_01LPLHEDKD@d?$AA@ DB 'd', 00H			; `string'
CONST	ENDS
;	COMDAT ??_C@_01JEJKBAGA@g?$AA@
CONST	SEGMENT
??_C@_01JEJKBAGA@g?$AA@ DB 'g', 00H			; `string'
CONST	ENDS
;	COMDAT ??_C@_0CE@NKBHKMLM@?$CFd?5geometries?5added?5to?5directory@
CONST	SEGMENT
??_C@_0CE@NKBHKMLM@?$CFd?5geometries?5added?5to?5directory@ DB '%d geomet'
	DB	'ries added to directory %s', 00H		; `string'
CONST	ENDS
;	COMDAT ??_C@_0CB@JKDIKEEG@?$CFd?5symbols?5added?5to?5directory?5?$CFs@
CONST	SEGMENT
??_C@_0CB@JKDIKEEG@?$CFd?5symbols?5added?5to?5directory?5?$CFs@ DB '%d sy'
	DB	'mbols added to directory %s', 00H		; `string'
CONST	ENDS
;	COMDAT ??_C@_0BI@HHHFDOOH@?$CFs?2libman?4chm?3?3?1html?1?$CFs?$AA@
CONST	SEGMENT
??_C@_0BI@HHHFDOOH@?$CFs?2libman?4chm?3?3?1html?1?$CFs?$AA@ DB '%s\libman'
	DB	'.chm::/html/%s', 00H			; `string'
CONST	ENDS
;	COMDAT ??_C@_05BDOHFCKE@About?$AA@
CONST	SEGMENT
??_C@_05BDOHFCKE@About?$AA@ DB 'About', 00H		; `string'
CONST	ENDS
;	COMDAT ??_C@_04LBABLPF@Exit?$AA@
CONST	SEGMENT
??_C@_04LBABLPF@Exit?$AA@ DB 'Exit', 00H		; `string'
CONST	ENDS
;	COMDAT ??_C@_04PBAHLACE@File?$AA@
CONST	SEGMENT
??_C@_04PBAHLACE@File?$AA@ DB 'File', 00H		; `string'
CONST	ENDS
;	COMDAT ??_C@_08NIFGMEKO@?b?$JH?$IE?5Move?$AA@
CONST	SEGMENT
??_C@_08NIFGMEKO@?b?$JH?$IE?5Move?$AA@ DB 0e2H, 097H, 084H, ' Move', 00H ; `string'
CONST	ENDS
;	COMDAT ??_C@_08IFJMFLCA@?b?$JH?$IE?5Copy?$AA@
CONST	SEGMENT
??_C@_08IFJMFLCA@?b?$JH?$IE?5Copy?$AA@ DB 0e2H, 097H, 084H, ' Copy', 00H ; `string'
CONST	ENDS
;	COMDAT ??_C@_08LCGCOCCJ@Move?5?b?$JG?$LK?$AA@
CONST	SEGMENT
??_C@_08LCGCOCCJ@Move?5?b?$JG?$LK?$AA@ DB 'Move ', 0e2H, 096H, 0baH, 00H ; `string'
CONST	ENDS
;	COMDAT ??_C@_08GNGEMOGB@Copy?5?b?$JG?$LK?$AA@
CONST	SEGMENT
??_C@_08GNGEMOGB@Copy?5?b?$JG?$LK?$AA@ DB 'Copy ', 0e2H, 096H, 0baH, 00H ; `string'
CONST	ENDS
;	COMDAT ??_C@_0BC@PJGELEEH@Delete?5geometries?$AA@
CONST	SEGMENT
??_C@_0BC@PJGELEEH@Delete?5geometries?$AA@ DB 'Delete geometries', 00H ; `string'
CONST	ENDS
;	COMDAT ??_C@_0P@JFIENDBP@Delete?5symbols?$AA@
CONST	SEGMENT
??_C@_0P@JFIENDBP@Delete?5symbols?$AA@ DB 'Delete symbols', 00H ; `string'
CONST	ENDS
;	COMDAT ??_C@_0L@IAIFFGEP@Select?5all?$AA@
CONST	SEGMENT
??_C@_0L@IAIFFGEP@Select?5all?$AA@ DB 'Select all', 00H	; `string'
CONST	ENDS
;	COMDAT ??_C@_0N@KPCPMOND@Deselect?5all?$AA@
CONST	SEGMENT
??_C@_0N@KPCPMOND@Deselect?5all?$AA@ DB 'Deselect all', 00H ; `string'
CONST	ENDS
;	COMDAT ??_C@_0BC@KEIAJMGA@Export?5geometries?$AA@
CONST	SEGMENT
??_C@_0BC@KEIAJMGA@Export?5geometries?$AA@ DB 'Export geometries', 00H ; `string'
CONST	ENDS
;	COMDAT ??_C@_0BC@FLIGJAJL@Import?5geometries?$AA@
CONST	SEGMENT
??_C@_0BC@FLIGJAJL@Import?5geometries?$AA@ DB 'Import geometries', 00H ; `string'
CONST	ENDS
;	COMDAT ??_C@_0P@BJGEJDBF@Export?5symbols?$AA@
CONST	SEGMENT
??_C@_0P@BJGEJDBF@Export?5symbols?$AA@ DB 'Export symbols', 00H ; `string'
CONST	ENDS
;	COMDAT ??_C@_0P@LOIAGIPA@Import?5symbols?$AA@
CONST	SEGMENT
??_C@_0P@LOIAGIPA@Import?5symbols?$AA@ DB 'Import symbols', 00H ; `string'
CONST	ENDS
;	COMDAT ??_C@_09PPCBCBOH@Close?5lib?$AA@
CONST	SEGMENT
??_C@_09PPCBCBOH@Close?5lib?$AA@ DB 'Close lib', 00H	; `string'
CONST	ENDS
;	COMDAT ??_C@_08PPABCFEK@Open?5lib?$AA@
CONST	SEGMENT
??_C@_08PPABCFEK@Open?5lib?$AA@ DB 'Open lib', 00H	; `string'
CONST	ENDS
;	COMDAT ??_C@_1O@MOBNNEMB@?$AAB?$AAU?$AAT?$AAT?$AAO?$AAN?$AA?$AA@
CONST	SEGMENT
??_C@_1O@MOBNNEMB@?$AAB?$AAU?$AAT?$AAT?$AAO?$AAN?$AA?$AA@ DB 'B', 00H, 'U'
	DB	00H, 'T', 00H, 'T', 00H, 'O', 00H, 'N', 00H, 00H, 00H ; `string'
CONST	ENDS
;	COMDAT ??_C@_07MJJPDAEH@New?5lib?$AA@
CONST	SEGMENT
??_C@_07MJJPDAEH@New?5lib?$AA@ DB 'New lib', 00H	; `string'
CONST	ENDS
;	COMDAT ??_C@_19GAFEELMN@?$AAL?$AAI?$AAS?$AAT?$AA?$AA@
CONST	SEGMENT
??_C@_19GAFEELMN@?$AAL?$AAI?$AAS?$AAT?$AA?$AA@ DB 'L', 00H, 'I', 00H, 'S', 00H
	DB	'T', 00H, 00H, 00H				; `string'
CONST	ENDS
;	COMDAT ??_C@_1BA@BFOCGNID@?$AAL?$AAI?$AAS?$AAT?$AAB?$AAO?$AAX?$AA?$AA@
CONST	SEGMENT
??_C@_1BA@BFOCGNID@?$AAL?$AAI?$AAS?$AAT?$AAB?$AAO?$AAX?$AA?$AA@ DB 'L', 00H
	DB	'I', 00H, 'S', 00H, 'T', 00H, 'B', 00H, 'O', 00H, 'X', 00H, 00H
	DB	00H						; `string'
CONST	ENDS
;	COMDAT ??_C@_11LOCGONAA@?$AA?$AA@
CONST	SEGMENT
??_C@_11LOCGONAA@?$AA?$AA@ DB 00H, 00H			; `string'
CONST	ENDS
;	COMDAT ??_C@_0BA@JCADGPII@Exit?5popup?5menu?$AA@
CONST	SEGMENT
??_C@_0BA@JCADGPII@Exit?5popup?5menu?$AA@ DB 'Exit popup menu', 00H ; `string'
CONST	ENDS
;	COMDAT ??_C@_0O@OENDAIBJ@Edit?5geometry?$AA@
CONST	SEGMENT
??_C@_0O@OENDAIBJ@Edit?5geometry?$AA@ DB 'Edit geometry', 00H ; `string'
CONST	ENDS
;	COMDAT ??_C@_0M@DOMPHBIC@Edit?5symbol?$AA@
CONST	SEGMENT
??_C@_0M@DOMPHBIC@Edit?5symbol?$AA@ DB 'Edit symbol', 00H ; `string'
CONST	ENDS
;	COMDAT ??_C@_0CK@IGIFOMJJ@?$CC?$CFs?2geom?4exe?$CC?5?$CC?$CFs?$CC?5?1e?5?$CC?$CFs?$CC?5?1a?5?1w@
CONST	SEGMENT
??_C@_0CK@IGIFOMJJ@?$CC?$CFs?2geom?4exe?$CC?5?$CC?$CFs?$CC?5?1e?5?$CC?$CFs?$CC?5?1a?5?1w@ DB '"'
	DB	'%s\geom.exe" "%s" /e "%s" /a /w %x /z %d', 00H ; `string'
CONST	ENDS
;	COMDAT ??_C@_0M@JJKMJFCI@?$CFs?2geom?4exe?$AA@
CONST	SEGMENT
??_C@_0M@JJKMJFCI@?$CFs?2geom?4exe?$AA@ DB '%s\geom.exe', 00H ; `string'
CONST	ENDS
;	COMDAT ??_C@_0CJ@OIEBFKKJ@?$CC?$CFs?2sch?4exe?$CC?5?$CC?$CFs?$CC?5?1e?5?$CC?$CFs?$CC?5?1a?5?1w?5@
CONST	SEGMENT
??_C@_0CJ@OIEBFKKJ@?$CC?$CFs?2sch?4exe?$CC?5?$CC?$CFs?$CC?5?1e?5?$CC?$CFs?$CC?5?1a?5?1w?5@ DB '"'
	DB	'%s\sch.exe" "%s" /e "%s" /a /w %x /z %d', 00H ; `string'
CONST	ENDS
;	COMDAT ??_C@_0L@KGOMJMBN@?$CFs?2sch?4exe?$AA@
CONST	SEGMENT
??_C@_0L@KGOMJMBN@?$CFs?2sch?4exe?$AA@ DB '%s\sch.exe', 00H ; `string'
CONST	ENDS
;	COMDAT ??_C@_09BFFCKJ@?$CFs?2?$CFs?4shp?$AA@
CONST	SEGMENT
??_C@_09BFFCKJ@?$CFs?2?$CFs?4shp?$AA@ DB '%s\%s.shp', 00H ; `string'
CONST	ENDS
;	COMDAT ??_C@_09OCJNPHPC@?$CFs?2?$CFs?4sym?$AA@
CONST	SEGMENT
??_C@_09OCJNPHPC@?$CFs?2?$CFs?4sym?$AA@ DB '%s\%s.sym', 00H ; `string'
CONST	ENDS
;	COMDAT ??_C@_03MOMKMMPP@shp?$AA@
CONST	SEGMENT
??_C@_03MOMKMMPP@shp?$AA@ DB 'shp', 00H			; `string'
CONST	ENDS
;	COMDAT ??_C@_03CMECGJKE@sym?$AA@
CONST	SEGMENT
??_C@_03CMECGJKE@sym?$AA@ DB 'sym', 00H			; `string'
CONST	ENDS
;	COMDAT ??_C@_0P@ODHBNOGE@Geometry?5files?$AA@
CONST	SEGMENT
??_C@_0P@ODHBNOGE@Geometry?5files?$AA@ DB 'Geometry files', 00H ; `string'
CONST	ENDS
;	COMDAT ??_C@_0N@JCIAGPG@Symbol?5files?$AA@
CONST	SEGMENT
??_C@_0N@JCIAGPG@Symbol?5files?$AA@ DB 'Symbol files', 00H ; `string'
CONST	ENDS
;	COMDAT ??_C@_0CM@EJCPCEL@?$CFd?5geometries?5added?1replaced?5for@
CONST	SEGMENT
??_C@_0CM@EJCPCEL@?$CFd?5geometries?5added?1replaced?5for@ DB '%d geometr'
	DB	'ies added/replaced for library %s', 00H	; `string'
CONST	ENDS
;	COMDAT ??_C@_0CJ@PHNPFLAE@?$CFd?5symbols?5added?1replaced?5for?5li@
CONST	SEGMENT
??_C@_0CJ@PHNPFLAE@?$CFd?5symbols?5added?1replaced?5for?5li@ DB '%d symbo'
	DB	'ls added/replaced for library %s', 00H	; `string'
CONST	ENDS
;	COMDAT ??_C@_02DKCKIIND@?$CFs?$AA@
CONST	SEGMENT
??_C@_02DKCKIIND@?$CFs?$AA@ DB '%s', 00H		; `string'
CONST	ENDS
;	COMDAT ??_C@_0BP@MDKINCIN@File?5?$CFs?2?$CFs?5exists?0?5overwrite?5?$DP?$AA@
CONST	SEGMENT
??_C@_0BP@MDKINCIN@File?5?$CFs?2?$CFs?5exists?0?5overwrite?5?$DP?$AA@ DB 'F'
	DB	'ile %s\%s exists, overwrite ?', 00H		; `string'
CONST	ENDS
;	COMDAT ??_C@_05BMGBEOOC@?$CFs?2?$CFs?$AA@
CONST	SEGMENT
??_C@_05BMGBEOOC@?$CFs?2?$CFs?$AA@ DB '%s\%s', 00H	; `string'
CONST	ENDS
;	COMDAT ??_C@_09MKAMNCNI@?$CFs__?$CD?4shp?$AA@
CONST	SEGMENT
??_C@_09MKAMNCNI@?$CFs__?$CD?4shp?$AA@ DB '%s__#.shp', 00H ; `string'
CONST	ENDS
;	COMDAT ??_C@_06BMCADEKM@?$CFs?4shp?$AA@
CONST	SEGMENT
??_C@_06BMCADEKM@?$CFs?4shp?$AA@ DB '%s.shp', 00H	; `string'
CONST	ENDS
;	COMDAT ??_C@_09CIIEHHID@?$CFs__?$CD?4sym?$AA@
CONST	SEGMENT
??_C@_09CIIEHHID@?$CFs__?$CD?4sym?$AA@ DB '%s__#.sym', 00H ; `string'
CONST	ENDS
;	COMDAT ??_C@_06POKIJBPH@?$CFs?4sym?$AA@
CONST	SEGMENT
??_C@_06POKIJBPH@?$CFs?4sym?$AA@ DB '%s.sym', 00H	; `string'
CONST	ENDS
;	COMDAT ??_C@_0P@ELJOPBKN@?$CFs?2library?4$?$CD?$EA?$AA@
CONST	SEGMENT
??_C@_0P@ELJOPBKN@?$CFs?2library?4$?$CD?$EA?$AA@ DB '%s\library.$#@', 00H ; `string'
CONST	ENDS
;	COMDAT ??_C@_0BG@OCMKLJEI@Geometry?5?$CFs?5not?5found?$AA@
CONST	SEGMENT
??_C@_0BG@OCMKLJEI@Geometry?5?$CFs?5not?5found?$AA@ DB 'Geometry %s not f'
	DB	'ound', 00H					; `string'
CONST	ENDS
;	COMDAT ??_C@_0BE@OIDBEMPJ@Symbol?5?$CFs?5not?5found?$AA@
CONST	SEGMENT
??_C@_0BE@OIDBEMPJ@Symbol?5?$CFs?5not?5found?$AA@ DB 'Symbol %s not found'
	DB	00H						; `string'
CONST	ENDS
;	COMDAT ??_C@_07BEIHKDLJ@Message?$AA@
CONST	SEGMENT
??_C@_07BEIHKDLJ@Message?$AA@ DB 'Message', 00H		; `string'
CONST	ENDS
;	COMDAT ??_C@_0CA@LGAHECG@Geometry?5?$CFs?5exists?0?5overwrite?5?$DP?$AA@
CONST	SEGMENT
??_C@_0CA@LGAHECG@Geometry?5?$CFs?5exists?0?5overwrite?5?$DP?$AA@ DB 'Geo'
	DB	'metry %s exists, overwrite ?', 00H		; `string'
CONST	ENDS
;	COMDAT ??_C@_0BO@LAEEEFKG@Symbol?5?$CFs?5exists?0?5overwrite?5?$DP?$AA@
CONST	SEGMENT
??_C@_0BO@LAEEEFKG@Symbol?5?$CFs?5exists?0?5overwrite?5?$DP?$AA@ DB 'Symb'
	DB	'ol %s exists, overwrite ?', 00H		; `string'
CONST	ENDS
;	COMDAT ??_C@_0BK@KFCEOLDI@Geometry?5size?5?$DO4096?5kbyte?$AA@
CONST	SEGMENT
??_C@_0BK@KFCEOLDI@Geometry?5size?5?$DO4096?5kbyte?$AA@ DB 'Geometry size'
	DB	' >4096 kbyte', 00H				; `string'
CONST	ENDS
;	COMDAT ??_C@_0BI@BFFPJHHG@Symbol?5size?5?$DO1024?5kbyte?$AA@
CONST	SEGMENT
??_C@_0BI@BFFPJHHG@Symbol?5size?5?$DO1024?5kbyte?$AA@ DB 'Symbol size >10'
	DB	'24 kbyte', 00H				; `string'
CONST	ENDS
;	COMDAT ??_C@_0BH@GDAKKDFA@Library?5size?5?$DO32?5Mbyte?$AA@
CONST	SEGMENT
??_C@_0BH@GDAKKDFA@Library?5size?5?$DO32?5Mbyte?$AA@ DB 'Library size >32'
	DB	' Mbyte', 00H				; `string'
CONST	ENDS
;	COMDAT ??_C@_0BC@HCOEMECA@Shape?5?$CFs?5is?5wrong?$AA@
CONST	SEGMENT
??_C@_0BC@HCOEMECA@Shape?5?$CFs?5is?5wrong?$AA@ DB 'Shape %s is wrong', 00H ; `string'
CONST	ENDS
;	COMDAT ??_C@_0BF@ONJDONFP@Shape?5definition?51?45?$AA@
CONST	SEGMENT
??_C@_0BF@ONJDONFP@Shape?5definition?51?45?$AA@ DB 'Shape definition 1.5', 00H ; `string'
CONST	ENDS
;	COMDAT ??_C@_0BF@JAOEBJBK@Shape?5definition?51?40?$AA@
CONST	SEGMENT
??_C@_0BF@JAOEBJBK@Shape?5definition?51?40?$AA@ DB 'Shape definition 1.0', 00H ; `string'
CONST	ENDS
;	COMDAT ??_C@_0BD@BOPCBFNK@Symbol?5?$CFs?5is?5wrong?$AA@
CONST	SEGMENT
??_C@_0BD@BOPCBFNK@Symbol?5?$CFs?5is?5wrong?$AA@ DB 'Symbol %s is wrong', 00H ; `string'
CONST	ENDS
;	COMDAT ??_C@_07GABHHDLE@Symb3?40?$AA@
CONST	SEGMENT
??_C@_07GABHHDLE@Symb3?40?$AA@ DB 'Symb3.0', 00H	; `string'
CONST	ENDS
;	COMDAT ??_C@_07NIKLBENB@Symb2?40?$AA@
CONST	SEGMENT
??_C@_07NIKLBENB@Symb2?40?$AA@ DB 'Symb2.0', 00H	; `string'
CONST	ENDS
;	COMDAT ??_C@_07MKBOLLDP@Symb1?40?$AA@
CONST	SEGMENT
??_C@_07MKBOLLDP@Symb1?40?$AA@ DB 'Symb1.0', 00H	; `string'
CONST	ENDS
;	COMDAT ??_C@_0CB@HGKICLGE@Can?5not?5open?5geometry?5in?5file?5?$CFs@
CONST	SEGMENT
??_C@_0CB@HGKICLGE@Can?5not?5open?5geometry?5in?5file?5?$CFs@ DB 'Can not'
	DB	' open geometry in file %s', 00H		; `string'
CONST	ENDS
;	COMDAT ??_C@_0BP@CFMDOOK@Can?5not?5open?5symbol?5in?5file?5?$CFs?$AA@
CONST	SEGMENT
??_C@_0BP@CFMDOOK@Can?5not?5open?5symbol?5in?5file?5?$CFs?$AA@ DB 'Can no'
	DB	't open symbol in file %s', 00H		; `string'
CONST	ENDS
;	COMDAT ??_C@_0BE@BECAACMB@Library?5?$CFs?5is?5wrong?$AA@
CONST	SEGMENT
??_C@_0BE@BECAACMB@Library?5?$CFs?5is?5wrong?$AA@ DB 'Library %s is wrong'
	DB	00H						; `string'
CONST	ENDS
;	COMDAT ??_C@_0BM@EPLEAHJC@Error?5in?5reading?5library?5?$CFs?$AA@
CONST	SEGMENT
??_C@_0BM@EPLEAHJC@Error?5in?5reading?5library?5?$CFs?$AA@ DB 'Error in r'
	DB	'eading library %s', 00H			; `string'
CONST	ENDS
;	COMDAT ??_C@_03LBDHBEPA@slb?$AA@
CONST	SEGMENT
??_C@_03LBDHBEPA@slb?$AA@ DB 'slb', 00H			; `string'
CONST	ENDS
;	COMDAT ??_C@_0BH@EMEBPGGA@Geometry?5library?5files?$AA@
CONST	SEGMENT
??_C@_0BH@EMEBPGGA@Geometry?5library?5files?$AA@ DB 'Geometry library fil'
	DB	'es', 00H					; `string'
CONST	ENDS
;	COMDAT ??_C@_03LPIGJBNC@lib?$AA@
CONST	SEGMENT
??_C@_03LPIGJBNC@lib?$AA@ DB 'lib', 00H			; `string'
CONST	ENDS
;	COMDAT ??_C@_0BF@PACNIOIP@Symbol?5library?5files?$AA@
CONST	SEGMENT
??_C@_0BF@PACNIOIP@Symbol?5library?5files?$AA@ DB 'Symbol library files', 00H ; `string'
CONST	ENDS
;	COMDAT ??_C@_0BN@LDKPIGNM@Geometry?5library?5version?51?40?$AA@
CONST	SEGMENT
??_C@_0BN@LDKPIGNM@Geometry?5library?5version?51?40?$AA@ DB 'Geometry lib'
	DB	'rary version 1.0', 00H			; `string'
CONST	ENDS
;	COMDAT ??_C@_0BL@CAKLMLEK@Symbol?5library?5version?51?40?$AA@
CONST	SEGMENT
??_C@_0BL@CAKLMLEK@Symbol?5library?5version?51?40?$AA@ DB 'Symbol library'
	DB	' version 1.0', 00H				; `string'
CONST	ENDS
;	COMDAT ??_C@_0BM@GDCHEAEN@File?5?$CFs?5exists?5overwerite?5?$DP?$AA@
CONST	SEGMENT
??_C@_0BM@GDCHEAEN@File?5?$CFs?5exists?5overwerite?5?$DP?$AA@ DB 'File %s'
	DB	' exists overwerite ?', 00H			; `string'
CONST	ENDS
;	COMDAT ??_C@_06GDNNOMKD@?$CFs?4slb?$AA@
CONST	SEGMENT
??_C@_06GDNNOMKD@?$CFs?4slb?$AA@ DB '%s.slb', 00H	; `string'
CONST	ENDS
;	COMDAT ??_C@_06GNGMGJIB@?$CFs?4lib?$AA@
CONST	SEGMENT
??_C@_06GNGMGJIB@?$CFs?4lib?$AA@ DB '%s.lib', 00H	; `string'
CONST	ENDS
;	COMDAT ??_C@_03JOOLLLO@?$CFs?2?$AA@
CONST	SEGMENT
??_C@_03JOOLLLO@?$CFs?2?$AA@ DB '%s\', 00H		; `string'
CONST	ENDS
;	COMDAT ??_C@_0BF@FBPFCAMF@No?5library?5file?5open?$AA@
CONST	SEGMENT
??_C@_0BF@FBPFCAMF@No?5library?5file?5open?$AA@ DB 'No library file open', 00H ; `string'
CONST	ENDS
;	COMDAT ??_C@_05NAOIJFC@Error?$AA@
CONST	SEGMENT
??_C@_05NAOIJFC@Error?$AA@ DB 'Error', 00H		; `string'
CONST	ENDS
;	COMDAT ??_C@_0N@CPAHMBAI@?$CFs?2backup?2?$CFs?$AA@
CONST	SEGMENT
??_C@_0N@CPAHMBAI@?$CFs?2backup?2?$CFs?$AA@ DB '%s\backup\%s', 00H ; `string'
CONST	ENDS
;	COMDAT ??_C@_0BD@HPLGHJHN@?$CFs?5?$FL?$CFi?5geometries?$FN?$AA@
CONST	SEGMENT
??_C@_0BD@HPLGHJHN@?$CFs?5?$FL?$CFi?5geometries?$FN?$AA@ DB '%s [%i geome'
	DB	'tries]', 00H				; `string'
CONST	ENDS
;	COMDAT ??_C@_0BA@EICOPOHD@?$CFs?5?$FL?$CFi?5symbols?$FN?$AA@
CONST	SEGMENT
??_C@_0BA@EICOPOHD@?$CFs?5?$FL?$CFi?5symbols?$FN?$AA@ DB '%s [%i symbols]'
	DB	00H						; `string'
CONST	ENDS
;	COMDAT ??_C@_0EM@CNNPBJJJ@?5?5?5?5?5?5?5?5?5?5?5?5?5?5?5?5?5?5?5?5?5?5?5?5?5?5?5?5?5?5?5?5@
CONST	SEGMENT
??_C@_0EM@CNNPBJJJ@?5?5?5?5?5?5?5?5?5?5?5?5?5?5?5?5?5?5?5?5?5?5?5?5?5?5?5?5?5?5?5?5@ DB ' '
	DB	'                                                             '
	DB	'             ', 00H				; `string'
CONST	ENDS
;	COMDAT ??_C@_0BB@KOPNLDEO@?$CFs?2?$CFs?2pcb?2shapes?$AA@
CONST	SEGMENT
??_C@_0BB@KOPNLDEO@?$CFs?2?$CFs?2pcb?2shapes?$AA@ DB '%s\%s\pcb\shapes', 00H ; `string'
CONST	ENDS
;	COMDAT ??_C@_09GBIPEEFN@?$CFs?2?$CFs?2sym?$AA@
CONST	SEGMENT
??_C@_09GBIPEEFN@?$CFs?2?$CFs?2sym?$AA@ DB '%s\%s\sym', 00H ; `string'
CONST	ENDS
;	COMDAT ??_C@_15DDHGOCBH@?$AA?4?$AA?4?$AA?$AA@
CONST	SEGMENT
??_C@_15DDHGOCBH@?$AA?4?$AA?4?$AA?$AA@ DB '.', 00H, '.', 00H, 00H, 00H ; `string'
CONST	ENDS
;	COMDAT ??_C@_13JOFGPIOO@?$AA?4?$AA?$AA@
CONST	SEGMENT
??_C@_13JOFGPIOO@?$AA?4?$AA?$AA@ DB '.', 00H, 00H, 00H	; `string'
CONST	ENDS
;	COMDAT ??_C@_06BNHEIDIH@?$CFs?2?$CK?4?$CK?$AA@
CONST	SEGMENT
??_C@_06BNHEIDIH@?$CFs?2?$CK?4?$CK?$AA@ DB '%s\*.*', 00H ; `string'
CONST	ENDS
;	COMDAT ??_C@_0BB@CGBBLDCE@Select?5directory?$AA@
CONST	SEGMENT
??_C@_0BB@CGBBLDCE@Select?5directory?$AA@ DB 'Select directory', 00H ; `string'
CONST	ENDS
;	COMDAT ??_C@_06FMBNCPDL@Cancel?$AA@
CONST	SEGMENT
??_C@_06FMBNCPDL@Cancel?$AA@ DB 'Cancel', 00H		; `string'
CONST	ENDS
;	COMDAT ??_C@_0CP@PPFINMMK@?$AN?6?$AN?6Compiled?5with?5Microsoft?5Visu@
CONST	SEGMENT
??_C@_0CP@PPFINMMK@?$AN?6?$AN?6Compiled?5with?5Microsoft?5Visu@ DB 0dH, 0aH
	DB	0dH, 0aH, 'Compiled with Microsoft Visual Studio 2010', 00H ; `string'
CONST	ENDS
;	COMDAT ??_C@_0BP@LOJGINCP@Build?5version?5?$CFi?4?$CFi?4?$CFi?5?5?$FL?5?$CFs?5?$FN?$AA@
CONST	SEGMENT
??_C@_0BP@LOJGINCP@Build?5version?5?$CFi?4?$CFi?4?$CFi?5?5?$FL?5?$CFs?5?$FN?$AA@ DB 'B'
	DB	'uild version %i.%i.%i  [ %s ]', 00H		; `string'
CONST	ENDS
;	COMDAT ??_C@_0N@MBDMEPPJ@18?5May?0?52012?$AA@
CONST	SEGMENT
??_C@_0N@MBDMEPPJ@18?5May?0?52012?$AA@ DB '18 May, 2012', 00H ; `string'
CONST	ENDS
;	COMDAT ??_C@_02GIPFHKNO@OK?$AA@
CONST	SEGMENT
??_C@_02GIPFHKNO@OK?$AA@ DB 'OK', 00H			; `string'
CONST	ENDS
;	COMDAT ??_C@_0BN@HAKPMFFG@library?5manager?5PCB?5Elegance?$AA@
CONST	SEGMENT
??_C@_0BN@HAKPMFFG@library?5manager?5PCB?5Elegance?$AA@ DB 'library manag'
	DB	'er PCB Elegance', 00H			; `string'
CONST	ENDS
;	COMDAT ??_C@_0CD@PECGDHGE@About?5library?5manager?5PCB?5elegan@
CONST	SEGMENT
??_C@_0CD@PECGDHGE@About?5library?5manager?5PCB?5elegan@ DB 'About librar'
	DB	'y manager PCB elegance', 00H		; `string'
CONST	ENDS
;	COMDAT ??_C@_00CNPNBAHC@?$AA@
CONST	SEGMENT
??_C@_00CNPNBAHC@?$AA@ DB 00H				; `string'
CONST	ENDS
; Function compile flags: /Odtp /RTCsu /ZI
; File c:\notes\pcbeleg\software\libman\libman.c
;	COMDAT _AddLibmanLanguageStrings
_TEXT	SEGMENT
$T1 = -5260						; size = 4
_str6$ = -3712						; size = 512
_str4$ = -3192						; size = 512
_str3$ = -2672						; size = 512
_LanguageFileName$ = -2152				; size = 512
_str$ = -1632						; size = 512
_str2$ = -1112						; size = 512
_LineBuf$ = -592					; size = 512
_StringNr$ = -72					; size = 4
_count$ = -60						; size = 4
_Length$ = -48						; size = 4
_str3length$ = -36					; size = 4
_cnt2$ = -24						; size = 4
_fp$ = -12						; size = 4
__$ArrayPad$ = -4					; size = 4
_FileName$ = 8						; size = 4
_AddLibmanLanguageStrings PROC				; COMDAT

; 2760 : {

  00000	55		 push	 ebp
  00001	8b ec		 mov	 ebp, esp
  00003	b8 90 14 00 00	 mov	 eax, 5264		; 00001490H
  00008	e8 00 00 00 00	 call	 __chkstk
  0000d	53		 push	 ebx
  0000e	56		 push	 esi
  0000f	57		 push	 edi
  00010	8d bd 70 eb ff
	ff		 lea	 edi, DWORD PTR [ebp-5264]
  00016	b9 24 05 00 00	 mov	 ecx, 1316		; 00000524H
  0001b	b8 cc cc cc cc	 mov	 eax, -858993460		; ccccccccH
  00020	f3 ab		 rep stosd
  00022	a1 00 00 00 00	 mov	 eax, DWORD PTR ___security_cookie
  00027	33 c5		 xor	 eax, ebp
  00029	89 45 fc	 mov	 DWORD PTR __$ArrayPad$[ebp], eax

; 2761 : 
; 2762 :   int32  fp,cnt2,str3length,Length,count,StringNr;
; 2763 :   char   LineBuf[512],str2[MAX_LENGTH_STRING],str[MAX_LENGTH_STRING],
; 2764 :          LanguageFileName[MAX_LENGTH_STRING],str3[MAX_LENGTH_STRING],
; 2765 :          str4[MAX_LENGTH_STRING],str6[MAX_LENGTH_STRING];
; 2766 : 
; 2767 :   count=0;

  0002c	c7 45 c4 00 00
	00 00		 mov	 DWORD PTR _count$[ebp], 0

; 2768 :   if (FileName[0]==0) return -1;

  00033	b8 01 00 00 00	 mov	 eax, 1
  00038	6b c8 00	 imul	 ecx, eax, 0
  0003b	8b 55 08	 mov	 edx, DWORD PTR _FileName$[ebp]
  0003e	0f be 04 0a	 movsx	 eax, BYTE PTR [edx+ecx]
  00042	85 c0		 test	 eax, eax
  00044	75 08		 jne	 SHORT $LN9@AddLibmanL
  00046	83 c8 ff	 or	 eax, -1
  00049	e9 43 03 00 00	 jmp	 $LN21@AddLibmanL
$LN9@AddLibmanL:

; 2769 :   if ((fp=TextFileOpenUTF8(FileName))<0) {

  0004e	8b 45 08	 mov	 eax, DWORD PTR _FileName$[ebp]
  00051	50		 push	 eax
  00052	e8 00 00 00 00	 call	 _TextFileOpenUTF8
  00057	83 c4 04	 add	 esp, 4
  0005a	89 45 f4	 mov	 DWORD PTR _fp$[ebp], eax
  0005d	83 7d f4 00	 cmp	 DWORD PTR _fp$[ebp], 0
  00061	7d 08		 jge	 SHORT $LN10@AddLibmanL

; 2770 : /*
; 2771 :     sprintf(str,SC(47,"Can not read from language file %s, default language used"),FileName);
; 2772 :     MessageBox(NULL,str,SC(48,"Warning"),MB_APPLMODAL|MB_OK);
; 2773 : */
; 2774 :     return -1;

  00063	83 c8 ff	 or	 eax, -1
  00066	e9 26 03 00 00	 jmp	 $LN21@AddLibmanL
$LN10@AddLibmanL:

; 2775 :   }
; 2776 : 
; 2777 :   LanguageFileName[0]=0;

  0006b	b8 01 00 00 00	 mov	 eax, 1
  00070	6b c8 00	 imul	 ecx, eax, 0
  00073	89 8d 74 eb ff
	ff		 mov	 DWORD PTR $T1[ebp], ecx
  00079	81 bd 74 eb ff
	ff 00 02 00 00	 cmp	 DWORD PTR $T1[ebp], 512	; 00000200H
  00083	73 02		 jae	 SHORT $LN22@AddLibmanL
  00085	eb 05		 jmp	 SHORT $LN23@AddLibmanL
$LN22@AddLibmanL:
  00087	e8 00 00 00 00	 call	 ___report_rangecheckfailure
$LN23@AddLibmanL:
  0008c	8b 95 74 eb ff
	ff		 mov	 edx, DWORD PTR $T1[ebp]
  00092	c6 84 15 98 f7
	ff ff 00	 mov	 BYTE PTR _LanguageFileName$[ebp+edx], 0
$LN2@AddLibmanL:

; 2778 :   while ((Length=ReadLn(fp,LineBuf))>=0) {

  0009a	8d 85 b0 fd ff
	ff		 lea	 eax, DWORD PTR _LineBuf$[ebp]
  000a0	50		 push	 eax
  000a1	8b 4d f4	 mov	 ecx, DWORD PTR _fp$[ebp]
  000a4	51		 push	 ecx
  000a5	e8 00 00 00 00	 call	 _ReadLn
  000aa	83 c4 08	 add	 esp, 8
  000ad	89 45 d0	 mov	 DWORD PTR _Length$[ebp], eax
  000b0	83 7d d0 00	 cmp	 DWORD PTR _Length$[ebp], 0
  000b4	0f 8c eb 00 00
	00		 jl	 $LN3@AddLibmanL

; 2779 :     strcpy(str4,LineBuf);

  000ba	8d 85 b0 fd ff
	ff		 lea	 eax, DWORD PTR _LineBuf$[ebp]
  000c0	50		 push	 eax
  000c1	8d 8d 88 f3 ff
	ff		 lea	 ecx, DWORD PTR _str4$[ebp]
  000c7	51		 push	 ecx
  000c8	e8 00 00 00 00	 call	 _strcpy
  000cd	83 c4 08	 add	 esp, 8

; 2780 :     if ((Length>1)
; 2781 :        &&
; 2782 :        (LineBuf[0]!=';')
; 2783 :        &&
; 2784 :        (LineBuf[0]!='/')
; 2785 :        &&

  000d0	83 7d d0 01	 cmp	 DWORD PTR _Length$[ebp], 1
  000d4	0f 8e c6 00 00
	00		 jle	 $LN11@AddLibmanL
  000da	b8 01 00 00 00	 mov	 eax, 1
  000df	6b c8 00	 imul	 ecx, eax, 0
  000e2	0f be 94 0d b0
	fd ff ff	 movsx	 edx, BYTE PTR _LineBuf$[ebp+ecx]
  000ea	83 fa 3b	 cmp	 edx, 59			; 0000003bH
  000ed	0f 84 ad 00 00
	00		 je	 $LN11@AddLibmanL
  000f3	b8 01 00 00 00	 mov	 eax, 1
  000f8	6b c8 00	 imul	 ecx, eax, 0
  000fb	0f be 94 0d b0
	fd ff ff	 movsx	 edx, BYTE PTR _LineBuf$[ebp+ecx]
  00103	83 fa 2f	 cmp	 edx, 47			; 0000002fH
  00106	0f 84 94 00 00
	00		 je	 $LN11@AddLibmanL
  0010c	b8 01 00 00 00	 mov	 eax, 1
  00111	6b c8 00	 imul	 ecx, eax, 0
  00114	0f be 94 0d b0
	fd ff ff	 movsx	 edx, BYTE PTR _LineBuf$[ebp+ecx]
  0011c	83 fa 23	 cmp	 edx, 35			; 00000023H
  0011f	74 7f		 je	 SHORT $LN11@AddLibmanL

; 2786 :        (LineBuf[0]!='#')) {
; 2787 :       if (LanguageFileName[0]==0) {

  00121	b8 01 00 00 00	 mov	 eax, 1
  00126	6b c8 00	 imul	 ecx, eax, 0
  00129	0f be 94 0d 98
	f7 ff ff	 movsx	 edx, BYTE PTR _LanguageFileName$[ebp+ecx]
  00131	85 d2		 test	 edx, edx
  00133	75 6b		 jne	 SHORT $LN11@AddLibmanL

; 2788 :         GetString(LineBuf,str);

  00135	8d 85 a0 f9 ff
	ff		 lea	 eax, DWORD PTR _str$[ebp]
  0013b	50		 push	 eax
  0013c	8d 8d b0 fd ff
	ff		 lea	 ecx, DWORD PTR _LineBuf$[ebp]
  00142	51		 push	 ecx
  00143	e8 00 00 00 00	 call	 _GetString
  00148	83 c4 08	 add	 esp, 8

; 2789 :         if (ExePath[0]!=0) {

  0014b	b8 01 00 00 00	 mov	 eax, 1
  00150	6b c8 00	 imul	 ecx, eax, 0
  00153	0f be 91 00 00
	00 00		 movsx	 edx, BYTE PTR _ExePath[ecx]
  0015a	85 d2		 test	 edx, edx
  0015c	74 22		 je	 SHORT $LN13@AddLibmanL

; 2790 :           sprintf(LanguageFileName,"%s\\%s",ExePath,str);

  0015e	8d 85 a0 f9 ff
	ff		 lea	 eax, DWORD PTR _str$[ebp]
  00164	50		 push	 eax
  00165	68 00 00 00 00	 push	 OFFSET _ExePath
  0016a	68 00 00 00 00	 push	 OFFSET ??_C@_05BMGBEOOC@?$CFs?2?$CFs?$AA@
  0016f	8d 8d 98 f7 ff
	ff		 lea	 ecx, DWORD PTR _LanguageFileName$[ebp]
  00175	51		 push	 ecx
  00176	e8 00 00 00 00	 call	 _sprintf
  0017b	83 c4 10	 add	 esp, 16			; 00000010H

; 2791 :         } else {

  0017e	eb 20		 jmp	 SHORT $LN11@AddLibmanL
$LN13@AddLibmanL:

; 2792 :           sprintf(LanguageFileName,"%s\\%s",ExecutableDir,str);

  00180	8d 85 a0 f9 ff
	ff		 lea	 eax, DWORD PTR _str$[ebp]
  00186	50		 push	 eax
  00187	68 00 00 00 00	 push	 OFFSET _ExecutableDir
  0018c	68 00 00 00 00	 push	 OFFSET ??_C@_05BMGBEOOC@?$CFs?2?$CFs?$AA@
  00191	8d 8d 98 f7 ff
	ff		 lea	 ecx, DWORD PTR _LanguageFileName$[ebp]
  00197	51		 push	 ecx
  00198	e8 00 00 00 00	 call	 _sprintf
  0019d	83 c4 10	 add	 esp, 16			; 00000010H
$LN11@AddLibmanL:

; 2793 :         }
; 2794 :       }
; 2795 :     }
; 2796 :   }

  001a0	e9 f5 fe ff ff	 jmp	 $LN2@AddLibmanL
$LN3@AddLibmanL:

; 2797 :   TextFileClose(fp);

  001a5	8b 45 f4	 mov	 eax, DWORD PTR _fp$[ebp]
  001a8	50		 push	 eax
  001a9	e8 00 00 00 00	 call	 _TextFileClose
  001ae	83 c4 04	 add	 esp, 4

; 2798 : 
; 2799 : // ********************************************************************************************************
; 2800 : 
; 2801 :   if ((LanguageFileName[0]==0)
; 2802 :      ||

  001b1	b8 01 00 00 00	 mov	 eax, 1
  001b6	6b c8 00	 imul	 ecx, eax, 0
  001b9	0f be 94 0d 98
	f7 ff ff	 movsx	 edx, BYTE PTR _LanguageFileName$[ebp+ecx]
  001c1	85 d2		 test	 edx, edx
  001c3	74 18		 je	 SHORT $LN16@AddLibmanL
  001c5	8d 85 98 f7 ff
	ff		 lea	 eax, DWORD PTR _LanguageFileName$[ebp]
  001cb	50		 push	 eax
  001cc	e8 00 00 00 00	 call	 _TextFileOpenUTF8
  001d1	83 c4 04	 add	 esp, 4
  001d4	89 45 f4	 mov	 DWORD PTR _fp$[ebp], eax
  001d7	83 7d f4 00	 cmp	 DWORD PTR _fp$[ebp], 0
  001db	7d 08		 jge	 SHORT $LN15@AddLibmanL
$LN16@AddLibmanL:

; 2803 :      ((fp=TextFileOpenUTF8(LanguageFileName))<0)) {
; 2804 : /*
; 2805 :     sprintf(str,SC(49,"Can not read from language file %s"),LanguageFileName);
; 2806 :     MessageBox(NULL,str,SC(2,"System error"),MB_APPLMODAL|MB_OK);
; 2807 :     return -2;
; 2808 : */
; 2809 :     return -1;

  001dd	83 c8 ff	 or	 eax, -1
  001e0	e9 ac 01 00 00	 jmp	 $LN21@AddLibmanL
$LN15@AddLibmanL:

; 2810 :   }
; 2811 : 
; 2812 :   count=0;

  001e5	c7 45 c4 00 00
	00 00		 mov	 DWORD PTR _count$[ebp], 0
$LN4@AddLibmanL:

; 2813 :   while ((Length=ReadLn(fp,LineBuf))>=0) {

  001ec	8d 85 b0 fd ff
	ff		 lea	 eax, DWORD PTR _LineBuf$[ebp]
  001f2	50		 push	 eax
  001f3	8b 4d f4	 mov	 ecx, DWORD PTR _fp$[ebp]
  001f6	51		 push	 ecx
  001f7	e8 00 00 00 00	 call	 _ReadLn
  001fc	83 c4 08	 add	 esp, 8
  001ff	89 45 d0	 mov	 DWORD PTR _Length$[ebp], eax
  00202	83 7d d0 00	 cmp	 DWORD PTR _Length$[ebp], 0
  00206	0f 8c 77 01 00
	00		 jl	 $LN5@AddLibmanL

; 2814 :     strcpy(str4,LineBuf);

  0020c	8d 85 b0 fd ff
	ff		 lea	 eax, DWORD PTR _LineBuf$[ebp]
  00212	50		 push	 eax
  00213	8d 8d 88 f3 ff
	ff		 lea	 ecx, DWORD PTR _str4$[ebp]
  00219	51		 push	 ecx
  0021a	e8 00 00 00 00	 call	 _strcpy
  0021f	83 c4 08	 add	 esp, 8

; 2815 :     if ((Length>1)
; 2816 :        &&
; 2817 :        (LineBuf[0]!=';')
; 2818 :        &&
; 2819 :        (LineBuf[0]!='/')
; 2820 :        &&

  00222	83 7d d0 01	 cmp	 DWORD PTR _Length$[ebp], 1
  00226	0f 8e 52 01 00
	00		 jle	 $LN17@AddLibmanL
  0022c	b8 01 00 00 00	 mov	 eax, 1
  00231	6b c8 00	 imul	 ecx, eax, 0
  00234	0f be 94 0d b0
	fd ff ff	 movsx	 edx, BYTE PTR _LineBuf$[ebp+ecx]
  0023c	83 fa 3b	 cmp	 edx, 59			; 0000003bH
  0023f	0f 84 39 01 00
	00		 je	 $LN17@AddLibmanL
  00245	b8 01 00 00 00	 mov	 eax, 1
  0024a	6b c8 00	 imul	 ecx, eax, 0
  0024d	0f be 94 0d b0
	fd ff ff	 movsx	 edx, BYTE PTR _LineBuf$[ebp+ecx]
  00255	83 fa 2f	 cmp	 edx, 47			; 0000002fH
  00258	0f 84 20 01 00
	00		 je	 $LN17@AddLibmanL
  0025e	b8 01 00 00 00	 mov	 eax, 1
  00263	6b c8 00	 imul	 ecx, eax, 0
  00266	0f be 94 0d b0
	fd ff ff	 movsx	 edx, BYTE PTR _LineBuf$[ebp+ecx]
  0026e	83 fa 23	 cmp	 edx, 35			; 00000023H
  00271	0f 84 07 01 00
	00		 je	 $LN17@AddLibmanL

; 2821 :        (LineBuf[0]!='#')) {
; 2822 : 
; 2823 :       GetString(LineBuf,str6);

  00277	8d 85 80 f1 ff
	ff		 lea	 eax, DWORD PTR _str6$[ebp]
  0027d	50		 push	 eax
  0027e	8d 8d b0 fd ff
	ff		 lea	 ecx, DWORD PTR _LineBuf$[ebp]
  00284	51		 push	 ecx
  00285	e8 00 00 00 00	 call	 _GetString
  0028a	83 c4 08	 add	 esp, 8

; 2824 :       GetQuoteString2(LineBuf,str2);

  0028d	8d 85 a8 fb ff
	ff		 lea	 eax, DWORD PTR _str2$[ebp]
  00293	50		 push	 eax
  00294	8d 8d b0 fd ff
	ff		 lea	 ecx, DWORD PTR _LineBuf$[ebp]
  0029a	51		 push	 ecx
  0029b	e8 00 00 00 00	 call	 _GetQuoteString2
  002a0	83 c4 08	 add	 esp, 8

; 2825 :       if ((str6[0]!=0)
; 2826 :          &&

  002a3	b8 01 00 00 00	 mov	 eax, 1
  002a8	6b c8 00	 imul	 ecx, eax, 0
  002ab	0f be 94 0d 80
	f1 ff ff	 movsx	 edx, BYTE PTR _str6$[ebp+ecx]
  002b3	85 d2		 test	 edx, edx
  002b5	0f 84 c3 00 00
	00		 je	 $LN17@AddLibmanL
  002bb	8d 45 b8	 lea	 eax, DWORD PTR _StringNr$[ebp]
  002be	50		 push	 eax
  002bf	68 00 00 00 00	 push	 OFFSET ??_C@_02DPKJAMEF@?$CFd?$AA@
  002c4	8d 8d 80 f1 ff
	ff		 lea	 ecx, DWORD PTR _str6$[ebp]
  002ca	51		 push	 ecx
  002cb	e8 00 00 00 00	 call	 _sscanf
  002d0	83 c4 0c	 add	 esp, 12			; 0000000cH
  002d3	83 f8 01	 cmp	 eax, 1
  002d6	0f 85 a2 00 00
	00		 jne	 $LN17@AddLibmanL

; 2827 :          (sscanf(str6,"%d",&StringNr)==1)) {
; 2828 :         DecodeQuotedString(str2,str3);

  002dc	8d 85 90 f5 ff
	ff		 lea	 eax, DWORD PTR _str3$[ebp]
  002e2	50		 push	 eax
  002e3	8d 8d a8 fb ff
	ff		 lea	 ecx, DWORD PTR _str2$[ebp]
  002e9	51		 push	 ecx
  002ea	e8 00 00 00 00	 call	 _DecodeQuotedString
  002ef	83 c4 08	 add	 esp, 8

; 2829 :         str3length=(int32)strlen(str3);

  002f2	8d 85 90 f5 ff
	ff		 lea	 eax, DWORD PTR _str3$[ebp]
  002f8	50		 push	 eax
  002f9	e8 00 00 00 00	 call	 _strlen
  002fe	83 c4 04	 add	 esp, 4
  00301	89 45 dc	 mov	 DWORD PTR _str3length$[ebp], eax

; 2830 :         for (cnt2=0;cnt2<str3length;cnt2++) {

  00304	c7 45 e8 00 00
	00 00		 mov	 DWORD PTR _cnt2$[ebp], 0
  0030b	eb 09		 jmp	 SHORT $LN8@AddLibmanL
$LN6@AddLibmanL:
  0030d	8b 45 e8	 mov	 eax, DWORD PTR _cnt2$[ebp]
  00310	83 c0 01	 add	 eax, 1
  00313	89 45 e8	 mov	 DWORD PTR _cnt2$[ebp], eax
$LN8@AddLibmanL:
  00316	8b 45 e8	 mov	 eax, DWORD PTR _cnt2$[ebp]
  00319	3b 45 dc	 cmp	 eax, DWORD PTR _str3length$[ebp]
  0031c	7d 4d		 jge	 SHORT $LN7@AddLibmanL

; 2831 :           if (((BYTE)str3[cnt2]<(BYTE)' ')
; 2832 :              &&
; 2833 :              (str3[cnt2]!='\r')
; 2834 :              &&
; 2835 :              (str3[cnt2]!='\t')
; 2836 :              &&

  0031e	8b 45 e8	 mov	 eax, DWORD PTR _cnt2$[ebp]
  00321	0f b6 8c 05 90
	f5 ff ff	 movzx	 ecx, BYTE PTR _str3$[ebp+eax]
  00329	83 f9 20	 cmp	 ecx, 32			; 00000020H
  0032c	7d 3b		 jge	 SHORT $LN20@AddLibmanL
  0032e	8b 45 e8	 mov	 eax, DWORD PTR _cnt2$[ebp]
  00331	0f be 8c 05 90
	f5 ff ff	 movsx	 ecx, BYTE PTR _str3$[ebp+eax]
  00339	83 f9 0d	 cmp	 ecx, 13			; 0000000dH
  0033c	74 2b		 je	 SHORT $LN20@AddLibmanL
  0033e	8b 45 e8	 mov	 eax, DWORD PTR _cnt2$[ebp]
  00341	0f be 8c 05 90
	f5 ff ff	 movsx	 ecx, BYTE PTR _str3$[ebp+eax]
  00349	83 f9 09	 cmp	 ecx, 9
  0034c	74 1b		 je	 SHORT $LN20@AddLibmanL
  0034e	8b 45 e8	 mov	 eax, DWORD PTR _cnt2$[ebp]
  00351	0f be 8c 05 90
	f5 ff ff	 movsx	 ecx, BYTE PTR _str3$[ebp+eax]
  00359	83 f9 0a	 cmp	 ecx, 10			; 0000000aH
  0035c	74 0b		 je	 SHORT $LN20@AddLibmanL

; 2837 :              (str3[cnt2]!='\n')) {
; 2838 :             str3[cnt2]=' ';

  0035e	8b 45 e8	 mov	 eax, DWORD PTR _cnt2$[ebp]
  00361	c6 84 05 90 f5
	ff ff 20	 mov	 BYTE PTR _str3$[ebp+eax], 32 ; 00000020H
$LN20@AddLibmanL:

; 2839 :           } else {
; 2840 :           }
; 2841 :         }

  00369	eb a2		 jmp	 SHORT $LN6@AddLibmanL
$LN7@AddLibmanL:

; 2842 : /*
; 2843 :         cnt2=0;
; 2844 :         while (cnt2<str3length) {
; 2845 :           if (str3[cnt2]=='\\') {
; 2846 :             if (cnt2+1<str3length) {
; 2847 :               if ((str3[cnt2+1]!='t')
; 2848 :                  &&
; 2849 :                  (str3[cnt2+1]!='n')
; 2850 :                  &&
; 2851 :                  (str3[cnt2+1]!='r')) {
; 2852 :                 ok=1;
; 2853 :                 str3[cnt2]=' ';
; 2854 :               }
; 2855 :             }
; 2856 :           }
; 2857 :           cnt2++;
; 2858 :         }
; 2859 : */
; 2860 :         AddLibmanLanguageString(StringNr,str3);

  0036b	8d 85 90 f5 ff
	ff		 lea	 eax, DWORD PTR _str3$[ebp]
  00371	50		 push	 eax
  00372	8b 4d b8	 mov	 ecx, DWORD PTR _StringNr$[ebp]
  00375	51		 push	 ecx
  00376	e8 00 00 00 00	 call	 _AddLibmanLanguageString
  0037b	83 c4 08	 add	 esp, 8
$LN17@AddLibmanL:

; 2861 :       }
; 2862 :     }
; 2863 :   }

  0037e	e9 69 fe ff ff	 jmp	 $LN4@AddLibmanL
$LN5@AddLibmanL:

; 2864 :   TextFileClose(fp);

  00383	8b 45 f4	 mov	 eax, DWORD PTR _fp$[ebp]
  00386	50		 push	 eax
  00387	e8 00 00 00 00	 call	 _TextFileClose
  0038c	83 c4 04	 add	 esp, 4

; 2865 : 
; 2866 :   return 0;

  0038f	33 c0		 xor	 eax, eax
$LN21@AddLibmanL:

; 2867 : }

  00391	52		 push	 edx
  00392	8b cd		 mov	 ecx, ebp
  00394	50		 push	 eax
  00395	8d 15 00 00 00
	00		 lea	 edx, DWORD PTR $LN33@AddLibmanL
  0039b	e8 00 00 00 00	 call	 @_RTC_CheckStackVars@8
  003a0	58		 pop	 eax
  003a1	5a		 pop	 edx
  003a2	5f		 pop	 edi
  003a3	5e		 pop	 esi
  003a4	5b		 pop	 ebx
  003a5	8b 4d fc	 mov	 ecx, DWORD PTR __$ArrayPad$[ebp]
  003a8	33 cd		 xor	 ecx, ebp
  003aa	e8 00 00 00 00	 call	 @__security_check_cookie@4
  003af	81 c4 90 14 00
	00		 add	 esp, 5264		; 00001490H
  003b5	3b ec		 cmp	 ebp, esp
  003b7	e8 00 00 00 00	 call	 __RTC_CheckEsp
  003bc	8b e5		 mov	 esp, ebp
  003be	5d		 pop	 ebp
  003bf	c3		 ret	 0
$LN33@AddLibmanL:
  003c0	08 00 00 00	 DD	 8
  003c4	00 00 00 00	 DD	 $LN32@AddLibmanL
$LN32@AddLibmanL:
  003c8	b8 ff ff ff	 DD	 -72			; ffffffb8H
  003cc	04 00 00 00	 DD	 4
  003d0	00 00 00 00	 DD	 $LN24@AddLibmanL
  003d4	b0 fd ff ff	 DD	 -592			; fffffdb0H
  003d8	00 02 00 00	 DD	 512			; 00000200H
  003dc	00 00 00 00	 DD	 $LN25@AddLibmanL
  003e0	a8 fb ff ff	 DD	 -1112			; fffffba8H
  003e4	00 02 00 00	 DD	 512			; 00000200H
  003e8	00 00 00 00	 DD	 $LN26@AddLibmanL
  003ec	a0 f9 ff ff	 DD	 -1632			; fffff9a0H
  003f0	00 02 00 00	 DD	 512			; 00000200H
  003f4	00 00 00 00	 DD	 $LN27@AddLibmanL
  003f8	98 f7 ff ff	 DD	 -2152			; fffff798H
  003fc	00 02 00 00	 DD	 512			; 00000200H
  00400	00 00 00 00	 DD	 $LN28@AddLibmanL
  00404	90 f5 ff ff	 DD	 -2672			; fffff590H
  00408	00 02 00 00	 DD	 512			; 00000200H
  0040c	00 00 00 00	 DD	 $LN29@AddLibmanL
  00410	88 f3 ff ff	 DD	 -3192			; fffff388H
  00414	00 02 00 00	 DD	 512			; 00000200H
  00418	00 00 00 00	 DD	 $LN30@AddLibmanL
  0041c	80 f1 ff ff	 DD	 -3712			; fffff180H
  00420	00 02 00 00	 DD	 512			; 00000200H
  00424	00 00 00 00	 DD	 $LN31@AddLibmanL
$LN31@AddLibmanL:
  00428	73		 DB	 115			; 00000073H
  00429	74		 DB	 116			; 00000074H
  0042a	72		 DB	 114			; 00000072H
  0042b	36		 DB	 54			; 00000036H
  0042c	00		 DB	 0
$LN30@AddLibmanL:
  0042d	73		 DB	 115			; 00000073H
  0042e	74		 DB	 116			; 00000074H
  0042f	72		 DB	 114			; 00000072H
  00430	34		 DB	 52			; 00000034H
  00431	00		 DB	 0
$LN29@AddLibmanL:
  00432	73		 DB	 115			; 00000073H
  00433	74		 DB	 116			; 00000074H
  00434	72		 DB	 114			; 00000072H
  00435	33		 DB	 51			; 00000033H
  00436	00		 DB	 0
$LN28@AddLibmanL:
  00437	4c		 DB	 76			; 0000004cH
  00438	61		 DB	 97			; 00000061H
  00439	6e		 DB	 110			; 0000006eH
  0043a	67		 DB	 103			; 00000067H
  0043b	75		 DB	 117			; 00000075H
  0043c	61		 DB	 97			; 00000061H
  0043d	67		 DB	 103			; 00000067H
  0043e	65		 DB	 101			; 00000065H
  0043f	46		 DB	 70			; 00000046H
  00440	69		 DB	 105			; 00000069H
  00441	6c		 DB	 108			; 0000006cH
  00442	65		 DB	 101			; 00000065H
  00443	4e		 DB	 78			; 0000004eH
  00444	61		 DB	 97			; 00000061H
  00445	6d		 DB	 109			; 0000006dH
  00446	65		 DB	 101			; 00000065H
  00447	00		 DB	 0
$LN27@AddLibmanL:
  00448	73		 DB	 115			; 00000073H
  00449	74		 DB	 116			; 00000074H
  0044a	72		 DB	 114			; 00000072H
  0044b	00		 DB	 0
$LN26@AddLibmanL:
  0044c	73		 DB	 115			; 00000073H
  0044d	74		 DB	 116			; 00000074H
  0044e	72		 DB	 114			; 00000072H
  0044f	32		 DB	 50			; 00000032H
  00450	00		 DB	 0
$LN25@AddLibmanL:
  00451	4c		 DB	 76			; 0000004cH
  00452	69		 DB	 105			; 00000069H
  00453	6e		 DB	 110			; 0000006eH
  00454	65		 DB	 101			; 00000065H
  00455	42		 DB	 66			; 00000042H
  00456	75		 DB	 117			; 00000075H
  00457	66		 DB	 102			; 00000066H
  00458	00		 DB	 0
$LN24@AddLibmanL:
  00459	53		 DB	 83			; 00000053H
  0045a	74		 DB	 116			; 00000074H
  0045b	72		 DB	 114			; 00000072H
  0045c	69		 DB	 105			; 00000069H
  0045d	6e		 DB	 110			; 0000006eH
  0045e	67		 DB	 103			; 00000067H
  0045f	4e		 DB	 78			; 0000004eH
  00460	72		 DB	 114			; 00000072H
  00461	00		 DB	 0
_AddLibmanLanguageStrings ENDP
_TEXT	ENDS
; Function compile flags: /Odtp /RTCsu /ZI
; File c:\notes\pcbeleg\software\libman\libman.c
;	COMDAT _AddLibmanLanguageString
_TEXT	SEGMENT
_Length$ = -8						; size = 4
_ID$ = 8						; size = 4
_Text$ = 12						; size = 4
_AddLibmanLanguageString PROC				; COMDAT

; 2735 : {

  00000	55		 push	 ebp
  00001	8b ec		 mov	 ebp, esp
  00003	81 ec cc 00 00
	00		 sub	 esp, 204		; 000000ccH
  00009	53		 push	 ebx
  0000a	56		 push	 esi
  0000b	57		 push	 edi
  0000c	8d bd 34 ff ff
	ff		 lea	 edi, DWORD PTR [ebp-204]
  00012	b9 33 00 00 00	 mov	 ecx, 51			; 00000033H
  00017	b8 cc cc cc cc	 mov	 eax, -858993460		; ccccccccH
  0001c	f3 ab		 rep stosd

; 2736 :   int32 Length;
; 2737 : 
; 2738 :   Length=strlen(Text);

  0001e	8b 45 0c	 mov	 eax, DWORD PTR _Text$[ebp]
  00021	50		 push	 eax
  00022	e8 00 00 00 00	 call	 _strlen
  00027	83 c4 04	 add	 esp, 4
  0002a	89 45 f8	 mov	 DWORD PTR _Length$[ebp], eax

; 2739 :   if (Length==0) return -1;

  0002d	83 7d f8 00	 cmp	 DWORD PTR _Length$[ebp], 0
  00031	75 08		 jne	 SHORT $LN2@AddLibmanL
  00033	83 c8 ff	 or	 eax, -1
  00036	e9 84 00 00 00	 jmp	 $LN1@AddLibmanL
$LN2@AddLibmanL:

; 2740 :   if ((ID<0)
; 2741 :      ||

  0003b	83 7d 08 00	 cmp	 DWORD PTR _ID$[ebp], 0
  0003f	7c 09		 jl	 SHORT $LN4@AddLibmanL
  00041	81 7d 08 00 04
	00 00		 cmp	 DWORD PTR _ID$[ebp], 1024 ; 00000400H
  00048	7c 05		 jl	 SHORT $LN3@AddLibmanL
$LN4@AddLibmanL:

; 2742 :      (ID>=MaxNrLibmanNames)) return -1;

  0004a	83 c8 ff	 or	 eax, -1
  0004d	eb 70		 jmp	 SHORT $LN1@AddLibmanL
$LN3@AddLibmanL:

; 2743 :   if (LibmanNamesPos+Length+2>=LibmanNamesBufSize) return -1;

  0004f	8b 45 f8	 mov	 eax, DWORD PTR _Length$[ebp]
  00052	8b 0d 00 00 00
	00		 mov	 ecx, DWORD PTR _LibmanNamesPos
  00058	8d 54 01 02	 lea	 edx, DWORD PTR [ecx+eax+2]
  0005c	81 fa 00 80 00
	00		 cmp	 edx, 32768		; 00008000H
  00062	7c 05		 jl	 SHORT $LN5@AddLibmanL
  00064	83 c8 ff	 or	 eax, -1
  00067	eb 56		 jmp	 SHORT $LN1@AddLibmanL
$LN5@AddLibmanL:

; 2744 : 
; 2745 :   LibmanNamesId[ID]=(LPSTR)&LibmanNamesBuf[LibmanNamesPos];

  00069	a1 00 00 00 00	 mov	 eax, DWORD PTR _LibmanNamesPos
  0006e	05 00 00 00 00	 add	 eax, OFFSET _LibmanNamesBuf
  00073	8b 4d 08	 mov	 ecx, DWORD PTR _ID$[ebp]
  00076	89 04 8d 00 00
	00 00		 mov	 DWORD PTR _LibmanNamesId[ecx*4], eax

; 2746 :   memmove(&LibmanNamesBuf[LibmanNamesPos],Text,Length+1);

  0007d	8b 45 f8	 mov	 eax, DWORD PTR _Length$[ebp]
  00080	83 c0 01	 add	 eax, 1
  00083	50		 push	 eax
  00084	8b 4d 0c	 mov	 ecx, DWORD PTR _Text$[ebp]
  00087	51		 push	 ecx
  00088	8b 15 00 00 00
	00		 mov	 edx, DWORD PTR _LibmanNamesPos
  0008e	81 c2 00 00 00
	00		 add	 edx, OFFSET _LibmanNamesBuf
  00094	52		 push	 edx
  00095	e8 00 00 00 00	 call	 _memmove
  0009a	83 c4 0c	 add	 esp, 12			; 0000000cH

; 2747 :   LibmanNamesPos+=Length+1;

  0009d	8b 45 f8	 mov	 eax, DWORD PTR _Length$[ebp]
  000a0	8b 0d 00 00 00
	00		 mov	 ecx, DWORD PTR _LibmanNamesPos
  000a6	8d 54 01 01	 lea	 edx, DWORD PTR [ecx+eax+1]
  000aa	89 15 00 00 00
	00		 mov	 DWORD PTR _LibmanNamesPos, edx

; 2748 :   TotalNrLibmanNames++;

  000b0	a1 00 00 00 00	 mov	 eax, DWORD PTR _TotalNrLibmanNames
  000b5	83 c0 01	 add	 eax, 1
  000b8	a3 00 00 00 00	 mov	 DWORD PTR _TotalNrLibmanNames, eax

; 2749 : 
; 2750 :   return 0;

  000bd	33 c0		 xor	 eax, eax
$LN1@AddLibmanL:

; 2751 : }

  000bf	5f		 pop	 edi
  000c0	5e		 pop	 esi
  000c1	5b		 pop	 ebx
  000c2	81 c4 cc 00 00
	00		 add	 esp, 204		; 000000ccH
  000c8	3b ec		 cmp	 ebp, esp
  000ca	e8 00 00 00 00	 call	 __RTC_CheckEsp
  000cf	8b e5		 mov	 esp, ebp
  000d1	5d		 pop	 ebp
  000d2	c3		 ret	 0
_AddLibmanLanguageString ENDP
_TEXT	ENDS
; Function compile flags: /Odtp /RTCsu /ZI
; File c:\notes\pcbeleg\software\libman\libman.c
;	COMDAT _DecodeParameters
_TEXT	SEGMENT
_pos$ = -32						; size = 4
_lengte$ = -20						; size = 4
_cnt$ = -8						; size = 4
_DecodeParameters PROC					; COMDAT

; 2692 : {

  00000	55		 push	 ebp
  00001	8b ec		 mov	 ebp, esp
  00003	81 ec e4 00 00
	00		 sub	 esp, 228		; 000000e4H
  00009	53		 push	 ebx
  0000a	56		 push	 esi
  0000b	57		 push	 edi
  0000c	8d bd 1c ff ff
	ff		 lea	 edi, DWORD PTR [ebp-228]
  00012	b9 39 00 00 00	 mov	 ecx, 57			; 00000039H
  00017	b8 cc cc cc cc	 mov	 eax, -858993460		; ccccccccH
  0001c	f3 ab		 rep stosd

; 2693 :   int32 cnt,lengte,pos;
; 2694 : 
; 2695 : 
; 2696 :   pos=0;

  0001e	c7 45 e0 00 00
	00 00		 mov	 DWORD PTR _pos$[ebp], 0

; 2697 :   lengte=1000;

  00025	c7 45 ec e8 03
	00 00		 mov	 DWORD PTR _lengte$[ebp], 1000 ; 000003e8H

; 2698 : 
; 2699 :   for (cnt=0;cnt<NrParams;cnt++) {

  0002c	c7 45 f8 00 00
	00 00		 mov	 DWORD PTR _cnt$[ebp], 0
  00033	eb 09		 jmp	 SHORT $LN4@DecodePara
$LN2@DecodePara:
  00035	8b 45 f8	 mov	 eax, DWORD PTR _cnt$[ebp]
  00038	83 c0 01	 add	 eax, 1
  0003b	89 45 f8	 mov	 DWORD PTR _cnt$[ebp], eax
$LN4@DecodePara:
  0003e	8b 45 f8	 mov	 eax, DWORD PTR _cnt$[ebp]
  00041	3b 05 00 00 00
	00		 cmp	 eax, DWORD PTR _NrParams
  00047	0f 8d 44 01 00
	00		 jge	 $LN1@DecodePara

; 2700 :     if (Parameters[cnt].Option[0]!=0) {

  0004d	69 45 f8 58 02
	00 00		 imul	 eax, DWORD PTR _cnt$[ebp], 600
  00054	b9 01 00 00 00	 mov	 ecx, 1
  00059	6b d1 00	 imul	 edx, ecx, 0
  0005c	0f be 84 10 00
	00 00 00	 movsx	 eax, BYTE PTR _Parameters[eax+edx]
  00064	85 c0		 test	 eax, eax
  00066	0f 84 20 01 00
	00		 je	 $LN6@DecodePara

; 2701 :       if (strnicmp(Parameters[cnt].Option,"g",lengte)==0) {

  0006c	8b 45 ec	 mov	 eax, DWORD PTR _lengte$[ebp]
  0006f	50		 push	 eax
  00070	68 00 00 00 00	 push	 OFFSET ??_C@_01JEJKBAGA@g?$AA@
  00075	69 4d f8 58 02
	00 00		 imul	 ecx, DWORD PTR _cnt$[ebp], 600
  0007c	81 c1 00 00 00
	00		 add	 ecx, OFFSET _Parameters
  00082	51		 push	 ecx
  00083	e8 00 00 00 00	 call	 _strnicmp
  00088	83 c4 0c	 add	 esp, 12			; 0000000cH
  0008b	85 c0		 test	 eax, eax
  0008d	75 0a		 jne	 SHORT $LN7@DecodePara

; 2702 :         LibraryMode=1;

  0008f	c7 05 00 00 00
	00 01 00 00 00	 mov	 DWORD PTR _LibraryMode, 1
$LN7@DecodePara:

; 2703 :       }
; 2704 :       if (strnicmp(Parameters[cnt].Option,"d",lengte)==0) {

  00099	8b 45 ec	 mov	 eax, DWORD PTR _lengte$[ebp]
  0009c	50		 push	 eax
  0009d	68 00 00 00 00	 push	 OFFSET ??_C@_01LPLHEDKD@d?$AA@
  000a2	69 4d f8 58 02
	00 00		 imul	 ecx, DWORD PTR _cnt$[ebp], 600
  000a9	81 c1 00 00 00
	00		 add	 ecx, OFFSET _Parameters
  000af	51		 push	 ecx
  000b0	e8 00 00 00 00	 call	 _strnicmp
  000b5	83 c4 0c	 add	 esp, 12			; 0000000cH
  000b8	85 c0		 test	 eax, eax
  000ba	75 1f		 jne	 SHORT $LN8@DecodePara

; 2705 :         strcpy(ExportDir,(LPSTR)&Parameters[cnt].Parameter[pos]);

  000bc	69 45 f8 58 02
	00 00		 imul	 eax, DWORD PTR _cnt$[ebp], 600
  000c3	8b 4d e0	 mov	 ecx, DWORD PTR _pos$[ebp]
  000c6	8d 94 08 c8 00
	00 00		 lea	 edx, DWORD PTR _Parameters[eax+ecx+200]
  000cd	52		 push	 edx
  000ce	68 00 00 00 00	 push	 OFFSET _ExportDir
  000d3	e8 00 00 00 00	 call	 _strcpy
  000d8	83 c4 08	 add	 esp, 8
$LN8@DecodePara:

; 2706 :       }
; 2707 :       if (strnicmp(Parameters[cnt].Option,"e",lengte)==0) {

  000db	8b 45 ec	 mov	 eax, DWORD PTR _lengte$[ebp]
  000de	50		 push	 eax
  000df	68 00 00 00 00	 push	 OFFSET ??_C@_01KGKMHCOC@e?$AA@
  000e4	69 4d f8 58 02
	00 00		 imul	 ecx, DWORD PTR _cnt$[ebp], 600
  000eb	81 c1 00 00 00
	00		 add	 ecx, OFFSET _Parameters
  000f1	51		 push	 ecx
  000f2	e8 00 00 00 00	 call	 _strnicmp
  000f7	83 c4 0c	 add	 esp, 12			; 0000000cH
  000fa	85 c0		 test	 eax, eax
  000fc	75 1f		 jne	 SHORT $LN9@DecodePara

; 2708 :         strcpy(ExePath,(LPSTR)&Parameters[cnt].Parameter[pos]);

  000fe	69 45 f8 58 02
	00 00		 imul	 eax, DWORD PTR _cnt$[ebp], 600
  00105	8b 4d e0	 mov	 ecx, DWORD PTR _pos$[ebp]
  00108	8d 94 08 c8 00
	00 00		 lea	 edx, DWORD PTR _Parameters[eax+ecx+200]
  0010f	52		 push	 edx
  00110	68 00 00 00 00	 push	 OFFSET _ExePath
  00115	e8 00 00 00 00	 call	 _strcpy
  0011a	83 c4 08	 add	 esp, 8
$LN9@DecodePara:

; 2709 :       }
; 2710 :       if (strnicmp(Parameters[cnt].Option,"u",lengte)==0) {

  0011d	8b 45 ec	 mov	 eax, DWORD PTR _lengte$[ebp]
  00120	50		 push	 eax
  00121	68 00 00 00 00	 push	 OFFSET ??_C@_01OMGOGALD@u?$AA@
  00126	69 4d f8 58 02
	00 00		 imul	 ecx, DWORD PTR _cnt$[ebp], 600
  0012d	81 c1 00 00 00
	00		 add	 ecx, OFFSET _Parameters
  00133	51		 push	 ecx
  00134	e8 00 00 00 00	 call	 _strnicmp
  00139	83 c4 0c	 add	 esp, 12			; 0000000cH
  0013c	85 c0		 test	 eax, eax
  0013e	75 1f		 jne	 SHORT $LN10@DecodePara

; 2711 :         strcpy(ProjectPath,(LPSTR)&Parameters[cnt].Parameter[pos]);

  00140	69 45 f8 58 02
	00 00		 imul	 eax, DWORD PTR _cnt$[ebp], 600
  00147	8b 4d e0	 mov	 ecx, DWORD PTR _pos$[ebp]
  0014a	8d 94 08 c8 00
	00 00		 lea	 edx, DWORD PTR _Parameters[eax+ecx+200]
  00151	52		 push	 edx
  00152	68 00 00 00 00	 push	 OFFSET _ProjectPath
  00157	e8 00 00 00 00	 call	 _strcpy
  0015c	83 c4 08	 add	 esp, 8
$LN10@DecodePara:

; 2712 :       }
; 2713 :       if (strnicmp(Parameters[cnt].Option,"o",lengte)==0) {

  0015f	8b 45 ec	 mov	 eax, DWORD PTR _lengte$[ebp]
  00162	50		 push	 eax
  00163	68 00 00 00 00	 push	 OFFSET ??_C@_01FMEDJKGI@o?$AA@
  00168	69 4d f8 58 02
	00 00		 imul	 ecx, DWORD PTR _cnt$[ebp], 600
  0016f	81 c1 00 00 00
	00		 add	 ecx, OFFSET _Parameters
  00175	51		 push	 ecx
  00176	e8 00 00 00 00	 call	 _strnicmp
  0017b	83 c4 0c	 add	 esp, 12			; 0000000cH
  0017e	85 c0		 test	 eax, eax
  00180	75 0a		 jne	 SHORT $LN6@DecodePara

; 2714 :         ProjectActive=1;

  00182	c7 05 00 00 00
	00 01 00 00 00	 mov	 DWORD PTR _ProjectActive, 1
$LN6@DecodePara:

; 2715 :       }
; 2716 :     } else {
; 2717 : /*
; 2718 :       if (GetFullPathName(Parameters[cnt].Parameter,150,EditFile,&FileName)==0) {
; 2719 :         MessageBox(PCBWindow,str,"Error in opening file",MB_APPLMODAL|MB_OK);
; 2720 :         EditFile[0]=0;
; 2721 :       }
; 2722 : */
; 2723 :     }
; 2724 :   }

  0018c	e9 a4 fe ff ff	 jmp	 $LN2@DecodePara
$LN1@DecodePara:

; 2725 : }

  00191	5f		 pop	 edi
  00192	5e		 pop	 esi
  00193	5b		 pop	 ebx
  00194	81 c4 e4 00 00
	00		 add	 esp, 228		; 000000e4H
  0019a	3b ec		 cmp	 ebp, esp
  0019c	e8 00 00 00 00	 call	 __RTC_CheckEsp
  001a1	8b e5		 mov	 esp, ebp
  001a3	5d		 pop	 ebp
  001a4	c3		 ret	 0
_DecodeParameters ENDP
_TEXT	ENDS
; Function compile flags: /Odtp /RTCsu /ZI
; File c:\notes\pcbeleg\software\libman\libman.c
;	COMDAT _LIBMANCommand
_TEXT	SEGMENT
tv64 = -4524						; size = 4
_Wstr$ = -3172						; size = 1024
_FileName$ = -2140					; size = 512
_Dir$ = -1620						; size = 512
_str2$ = -1100						; size = 512
_str$ = -580						; size = 512
_NrFiles$ = -60						; size = 4
_res$ = -48						; size = 4
_cnt$ = -12						; size = 4
__$ArrayPad$ = -4					; size = 4
_hwnd$ = 8						; size = 4
_WParam$ = 12						; size = 4
_LParam$ = 16						; size = 4
_LIBMANCommand PROC					; COMDAT

; 2263 : {

  00000	55		 push	 ebp
  00001	8b ec		 mov	 ebp, esp
  00003	b8 ac 11 00 00	 mov	 eax, 4524		; 000011acH
  00008	e8 00 00 00 00	 call	 __chkstk
  0000d	53		 push	 ebx
  0000e	56		 push	 esi
  0000f	57		 push	 edi
  00010	8d bd 54 ee ff
	ff		 lea	 edi, DWORD PTR [ebp-4524]
  00016	b9 6b 04 00 00	 mov	 ecx, 1131		; 0000046bH
  0001b	b8 cc cc cc cc	 mov	 eax, -858993460		; ccccccccH
  00020	f3 ab		 rep stosd
  00022	a1 00 00 00 00	 mov	 eax, DWORD PTR ___security_cookie
  00027	33 c5		 xor	 eax, ebp
  00029	89 45 fc	 mov	 DWORD PTR __$ArrayPad$[ebp], eax

; 2264 :   int32  cnt,cnt2,length,res,NrFiles;
; 2265 :   char   str[MAX_LENGTH_STRING],str2[MAX_LENGTH_STRING],
; 2266 :          Dir[MAX_LENGTH_STRING],FileName[MAX_LENGTH_STRING];
; 2267 :   WCHAR  Wstr[MAX_LENGTH_STRING];
; 2268 : 
; 2269 :   switch (WParam) {

  0002c	8b 45 0c	 mov	 eax, DWORD PTR _WParam$[ebp]
  0002f	89 85 54 ee ff
	ff		 mov	 DWORD PTR tv64[ebp], eax
  00035	81 bd 54 ee ff
	ff 0c 0e 00 00	 cmp	 DWORD PTR tv64[ebp], 3596 ; 00000e0cH
  0003f	77 3c		 ja	 SHORT $LN69@LIBMANComm
  00041	81 bd 54 ee ff
	ff 0c 0e 00 00	 cmp	 DWORD PTR tv64[ebp], 3596 ; 00000e0cH
  0004b	0f 84 bb 09 00
	00		 je	 $LN60@LIBMANComm
  00051	8b 8d 54 ee ff
	ff		 mov	 ecx, DWORD PTR tv64[ebp]
  00057	81 e9 34 08 00
	00		 sub	 ecx, 2100		; 00000834H
  0005d	89 8d 54 ee ff
	ff		 mov	 DWORD PTR tv64[ebp], ecx
  00063	83 bd 54 ee ff
	ff 21		 cmp	 DWORD PTR tv64[ebp], 33	; 00000021H
  0006a	0f 87 78 0b 00
	00		 ja	 $LN1@LIBMANComm
  00070	8b 95 54 ee ff
	ff		 mov	 edx, DWORD PTR tv64[ebp]
  00076	ff 24 95 00 00
	00 00		 jmp	 DWORD PTR $LN77@LIBMANComm[edx*4]
$LN69@LIBMANComm:
  0007d	81 bd 54 ee ff
	ff 56 0e 00 00	 cmp	 DWORD PTR tv64[ebp], 3670 ; 00000e56H
  00087	0f 82 5b 0b 00
	00		 jb	 $LN1@LIBMANComm
  0008d	81 bd 54 ee ff
	ff 57 0e 00 00	 cmp	 DWORD PTR tv64[ebp], 3671 ; 00000e57H
  00097	0f 86 79 09 00
	00		 jbe	 $LN61@LIBMANComm
  0009d	81 bd 54 ee ff
	ff d8 52 00 00	 cmp	 DWORD PTR tv64[ebp], 21208 ; 000052d8H
  000a7	0f 84 5f 09 00
	00		 je	 $LN60@LIBMANComm
  000ad	e9 36 0b 00 00	 jmp	 $LN1@LIBMANComm
$LN7@LIBMANComm:

; 2270 :     case ID_FILE_EXIT:
; 2271 :       SendMessage(LIBMANWindow,WM_CLOSE,0,0);

  000b2	8b f4		 mov	 esi, esp
  000b4	6a 00		 push	 0
  000b6	6a 00		 push	 0
  000b8	6a 10		 push	 16			; 00000010H
  000ba	a1 00 00 00 00	 mov	 eax, DWORD PTR _LIBMANWindow
  000bf	50		 push	 eax
  000c0	ff 15 00 00 00
	00		 call	 DWORD PTR __imp__SendMessageA@16
  000c6	3b f4		 cmp	 esi, esp
  000c8	e8 00 00 00 00	 call	 __RTC_CheckEsp

; 2272 :       break;

  000cd	e9 16 0b 00 00	 jmp	 $LN1@LIBMANComm
$LN8@LIBMANComm:

; 2273 :     case ID_OPEN_LIB1:
; 2274 :       LoadLib(0);

  000d2	6a 00		 push	 0
  000d4	e8 00 00 00 00	 call	 _LoadLib
  000d9	83 c4 04	 add	 esp, 4

; 2275 :       SymbolToBeEditedPos[0]=0;

  000dc	b8 04 00 00 00	 mov	 eax, 4
  000e1	6b c8 00	 imul	 ecx, eax, 0
  000e4	c7 81 00 00 00
	00 00 00 00 00	 mov	 DWORD PTR _SymbolToBeEditedPos[ecx], 0

; 2276 :       break;

  000ee	e9 f5 0a 00 00	 jmp	 $LN1@LIBMANComm
$LN9@LIBMANComm:

; 2277 :     case ID_OPEN_LIB2:
; 2278 :       LoadLib(1);

  000f3	6a 01		 push	 1
  000f5	e8 00 00 00 00	 call	 _LoadLib
  000fa	83 c4 04	 add	 esp, 4

; 2279 :       SymbolToBeEditedPos[1]=0;

  000fd	b8 04 00 00 00	 mov	 eax, 4
  00102	c1 e0 00	 shl	 eax, 0
  00105	c7 80 00 00 00
	00 00 00 00 00	 mov	 DWORD PTR _SymbolToBeEditedPos[eax], 0

; 2280 :       break;

  0010f	e9 d4 0a 00 00	 jmp	 $LN1@LIBMANComm
$LN10@LIBMANComm:

; 2281 :     case ID_CREATE_LIB1:
; 2282 :       MakeNewLib(0);

  00114	6a 00		 push	 0
  00116	e8 00 00 00 00	 call	 _MakeNewLib
  0011b	83 c4 04	 add	 esp, 4

; 2283 :       SymbolToBeEditedPos[0]=0;

  0011e	b8 04 00 00 00	 mov	 eax, 4
  00123	6b c8 00	 imul	 ecx, eax, 0
  00126	c7 81 00 00 00
	00 00 00 00 00	 mov	 DWORD PTR _SymbolToBeEditedPos[ecx], 0

; 2284 :       break;

  00130	e9 b3 0a 00 00	 jmp	 $LN1@LIBMANComm
$LN11@LIBMANComm:

; 2285 :     case ID_CREATE_LIB2:
; 2286 :       MakeNewLib(1);

  00135	6a 01		 push	 1
  00137	e8 00 00 00 00	 call	 _MakeNewLib
  0013c	83 c4 04	 add	 esp, 4

; 2287 :       SymbolToBeEditedPos[0]=1;

  0013f	b8 04 00 00 00	 mov	 eax, 4
  00144	6b c8 00	 imul	 ecx, eax, 0
  00147	c7 81 00 00 00
	00 01 00 00 00	 mov	 DWORD PTR _SymbolToBeEditedPos[ecx], 1

; 2288 :       break;

  00151	e9 92 0a 00 00	 jmp	 $LN1@LIBMANComm
$LN12@LIBMANComm:

; 2289 :     case ID_CLOSE_LIB1:
; 2290 :       CloseLib(0);

  00156	6a 00		 push	 0
  00158	e8 00 00 00 00	 call	 _CloseLib
  0015d	83 c4 04	 add	 esp, 4

; 2291 :       SymbolToBeEditedPos[0]=0;

  00160	b8 04 00 00 00	 mov	 eax, 4
  00165	6b c8 00	 imul	 ecx, eax, 0
  00168	c7 81 00 00 00
	00 00 00 00 00	 mov	 DWORD PTR _SymbolToBeEditedPos[ecx], 0

; 2292 :       break;

  00172	e9 71 0a 00 00	 jmp	 $LN1@LIBMANComm
$LN13@LIBMANComm:

; 2293 :     case ID_CLOSE_LIB2:
; 2294 :       CloseLib(1);

  00177	6a 01		 push	 1
  00179	e8 00 00 00 00	 call	 _CloseLib
  0017e	83 c4 04	 add	 esp, 4

; 2295 :       SymbolToBeEditedPos[1]=0;

  00181	b8 04 00 00 00	 mov	 eax, 4
  00186	c1 e0 00	 shl	 eax, 0
  00189	c7 80 00 00 00
	00 00 00 00 00	 mov	 DWORD PTR _SymbolToBeEditedPos[eax], 0

; 2296 :       break;

  00193	e9 50 0a 00 00	 jmp	 $LN1@LIBMANComm
$LN14@LIBMANComm:

; 2297 :     case ID_IMPORT_SYMBOLS1:
; 2298 :       if (LibraryFile[0][0]!=0) {

  00198	b8 00 02 00 00	 mov	 eax, 512		; 00000200H
  0019d	6b c8 00	 imul	 ecx, eax, 0
  001a0	ba 01 00 00 00	 mov	 edx, 1
  001a5	6b c2 00	 imul	 eax, edx, 0
  001a8	0f be 8c 01 00
	00 00 00	 movsx	 ecx, BYTE PTR _LibraryFile[ecx+eax]
  001b0	85 c9		 test	 ecx, ecx
  001b2	74 1d		 je	 SHORT $LN15@LIBMANComm

; 2299 :         if (LoadSymbolFileNames(0)==1) {

  001b4	6a 00		 push	 0
  001b6	e8 00 00 00 00	 call	 _LoadSymbolFileNames
  001bb	83 c4 04	 add	 esp, 4
  001be	83 f8 01	 cmp	 eax, 1
  001c1	75 0c		 jne	 SHORT $LN17@LIBMANComm

; 2300 :           AddSymbols(0,0);

  001c3	6a 00		 push	 0
  001c5	6a 00		 push	 0
  001c7	e8 00 00 00 00	 call	 _AddSymbols
  001cc	83 c4 08	 add	 esp, 8
$LN17@LIBMANComm:

; 2301 :         }
; 2302 :       } else {

  001cf	eb 30		 jmp	 SHORT $LN16@LIBMANComm
$LN15@LIBMANComm:

; 2303 :         MessageBoxUTF8(LIBMANWindow,SC(8,"No library file open"),SC(9,"Error"),MB_OK);

  001d1	6a 00		 push	 0
  001d3	68 00 00 00 00	 push	 OFFSET ??_C@_05NAOIJFC@Error?$AA@
  001d8	6a 09		 push	 9
  001da	e8 00 00 00 00	 call	 _StringConvert
  001df	83 c4 08	 add	 esp, 8
  001e2	50		 push	 eax
  001e3	68 00 00 00 00	 push	 OFFSET ??_C@_0BF@FBPFCAMF@No?5library?5file?5open?$AA@
  001e8	6a 08		 push	 8
  001ea	e8 00 00 00 00	 call	 _StringConvert
  001ef	83 c4 08	 add	 esp, 8
  001f2	50		 push	 eax
  001f3	a1 00 00 00 00	 mov	 eax, DWORD PTR _LIBMANWindow
  001f8	50		 push	 eax
  001f9	e8 00 00 00 00	 call	 _MessageBoxUTF8
  001fe	83 c4 10	 add	 esp, 16			; 00000010H
$LN16@LIBMANComm:

; 2304 :       }
; 2305 :       break;

  00201	e9 e2 09 00 00	 jmp	 $LN1@LIBMANComm
$LN18@LIBMANComm:

; 2306 :     case ID_IMPORT_SYMBOLS2:
; 2307 :       if (LibraryFile[1][0]!=0) {

  00206	b8 00 02 00 00	 mov	 eax, 512		; 00000200H
  0020b	c1 e0 00	 shl	 eax, 0
  0020e	b9 01 00 00 00	 mov	 ecx, 1
  00213	6b d1 00	 imul	 edx, ecx, 0
  00216	0f be 84 10 00
	00 00 00	 movsx	 eax, BYTE PTR _LibraryFile[eax+edx]
  0021e	85 c0		 test	 eax, eax
  00220	74 1d		 je	 SHORT $LN19@LIBMANComm

; 2308 :         if (LoadSymbolFileNames(1)==1) {

  00222	6a 01		 push	 1
  00224	e8 00 00 00 00	 call	 _LoadSymbolFileNames
  00229	83 c4 04	 add	 esp, 4
  0022c	83 f8 01	 cmp	 eax, 1
  0022f	75 0c		 jne	 SHORT $LN21@LIBMANComm

; 2309 :           AddSymbols(1,0);

  00231	6a 00		 push	 0
  00233	6a 01		 push	 1
  00235	e8 00 00 00 00	 call	 _AddSymbols
  0023a	83 c4 08	 add	 esp, 8
$LN21@LIBMANComm:

; 2310 :         }
; 2311 :       } else {

  0023d	eb 30		 jmp	 SHORT $LN20@LIBMANComm
$LN19@LIBMANComm:

; 2312 :         MessageBoxUTF8(LIBMANWindow,SC(8,"No library file open"),SC(9,"Error"),MB_OK);

  0023f	6a 00		 push	 0
  00241	68 00 00 00 00	 push	 OFFSET ??_C@_05NAOIJFC@Error?$AA@
  00246	6a 09		 push	 9
  00248	e8 00 00 00 00	 call	 _StringConvert
  0024d	83 c4 08	 add	 esp, 8
  00250	50		 push	 eax
  00251	68 00 00 00 00	 push	 OFFSET ??_C@_0BF@FBPFCAMF@No?5library?5file?5open?$AA@
  00256	6a 08		 push	 8
  00258	e8 00 00 00 00	 call	 _StringConvert
  0025d	83 c4 08	 add	 esp, 8
  00260	50		 push	 eax
  00261	a1 00 00 00 00	 mov	 eax, DWORD PTR _LIBMANWindow
  00266	50		 push	 eax
  00267	e8 00 00 00 00	 call	 _MessageBoxUTF8
  0026c	83 c4 10	 add	 esp, 16			; 00000010H
$LN20@LIBMANComm:

; 2313 :       }
; 2314 :       break;

  0026f	e9 74 09 00 00	 jmp	 $LN1@LIBMANComm
$LN22@LIBMANComm:

; 2315 :     case ID_EXPORT_SYMBOLS1:
; 2316 :       if (LibraryFile[0][0]==0) {

  00274	b8 00 02 00 00	 mov	 eax, 512		; 00000200H
  00279	6b c8 00	 imul	 ecx, eax, 0
  0027c	ba 01 00 00 00	 mov	 edx, 1
  00281	6b c2 00	 imul	 eax, edx, 0
  00284	0f be 8c 01 00
	00 00 00	 movsx	 ecx, BYTE PTR _LibraryFile[ecx+eax]
  0028c	85 c9		 test	 ecx, ecx
  0028e	75 35		 jne	 SHORT $LN23@LIBMANComm

; 2317 :         MessageBoxUTF8(LIBMANWindow,SC(8,"No library file open"),SC(9,"Error"),MB_OK);

  00290	6a 00		 push	 0
  00292	68 00 00 00 00	 push	 OFFSET ??_C@_05NAOIJFC@Error?$AA@
  00297	6a 09		 push	 9
  00299	e8 00 00 00 00	 call	 _StringConvert
  0029e	83 c4 08	 add	 esp, 8
  002a1	50		 push	 eax
  002a2	68 00 00 00 00	 push	 OFFSET ??_C@_0BF@FBPFCAMF@No?5library?5file?5open?$AA@
  002a7	6a 08		 push	 8
  002a9	e8 00 00 00 00	 call	 _StringConvert
  002ae	83 c4 08	 add	 esp, 8
  002b1	50		 push	 eax
  002b2	a1 00 00 00 00	 mov	 eax, DWORD PTR _LIBMANWindow
  002b7	50		 push	 eax
  002b8	e8 00 00 00 00	 call	 _MessageBoxUTF8
  002bd	83 c4 10	 add	 esp, 16			; 00000010H

; 2318 :         return;

  002c0	e9 23 09 00 00	 jmp	 $LN1@LIBMANComm
$LN23@LIBMANComm:

; 2319 :       }
; 2320 :       res=ExportSymbols(0,0);

  002c5	6a 00		 push	 0
  002c7	6a 00		 push	 0
  002c9	e8 00 00 00 00	 call	 _ExportSymbols
  002ce	83 c4 08	 add	 esp, 8
  002d1	89 45 d0	 mov	 DWORD PTR _res$[ebp], eax

; 2321 :       if (res>0) {

  002d4	83 7d d0 00	 cmp	 DWORD PTR _res$[ebp], 0
  002d8	0f 8e 83 00 00
	00		 jle	 $LN24@LIBMANComm

; 2322 :         if (LibraryMode==0) {

  002de	83 3d 00 00 00
	00 00		 cmp	 DWORD PTR _LibraryMode, 0
  002e5	75 2a		 jne	 SHORT $LN25@LIBMANComm

; 2323 :           sprintf(str2,SC(46,"%d symbols added to directory %s"),res,ExportDir);

  002e7	68 00 00 00 00	 push	 OFFSET _ExportDir
  002ec	8b 45 d0	 mov	 eax, DWORD PTR _res$[ebp]
  002ef	50		 push	 eax
  002f0	68 00 00 00 00	 push	 OFFSET ??_C@_0CB@JKDIKEEG@?$CFd?5symbols?5added?5to?5directory?5?$CFs@
  002f5	6a 2e		 push	 46			; 0000002eH
  002f7	e8 00 00 00 00	 call	 _StringConvert
  002fc	83 c4 08	 add	 esp, 8
  002ff	50		 push	 eax
  00300	8d 8d b4 fb ff
	ff		 lea	 ecx, DWORD PTR _str2$[ebp]
  00306	51		 push	 ecx
  00307	e8 00 00 00 00	 call	 _sprintf
  0030c	83 c4 10	 add	 esp, 16			; 00000010H

; 2324 :         } else {

  0030f	eb 28		 jmp	 SHORT $LN26@LIBMANComm
$LN25@LIBMANComm:

; 2325 :           sprintf(str2,SC(59,"%d geometries added to directory %s"),res,ExportDir);

  00311	68 00 00 00 00	 push	 OFFSET _ExportDir
  00316	8b 45 d0	 mov	 eax, DWORD PTR _res$[ebp]
  00319	50		 push	 eax
  0031a	68 00 00 00 00	 push	 OFFSET ??_C@_0CE@NKBHKMLM@?$CFd?5geometries?5added?5to?5directory@
  0031f	6a 3b		 push	 59			; 0000003bH
  00321	e8 00 00 00 00	 call	 _StringConvert
  00326	83 c4 08	 add	 esp, 8
  00329	50		 push	 eax
  0032a	8d 8d b4 fb ff
	ff		 lea	 ecx, DWORD PTR _str2$[ebp]
  00330	51		 push	 ecx
  00331	e8 00 00 00 00	 call	 _sprintf
  00336	83 c4 10	 add	 esp, 16			; 00000010H
$LN26@LIBMANComm:

; 2326 :         }
; 2327 :         MessageBoxUTF8(LIBMANWindow,str2,SC(60,"Message"),MB_OK);

  00339	6a 00		 push	 0
  0033b	68 00 00 00 00	 push	 OFFSET ??_C@_07BEIHKDLJ@Message?$AA@
  00340	6a 3c		 push	 60			; 0000003cH
  00342	e8 00 00 00 00	 call	 _StringConvert
  00347	83 c4 08	 add	 esp, 8
  0034a	50		 push	 eax
  0034b	8d 85 b4 fb ff
	ff		 lea	 eax, DWORD PTR _str2$[ebp]
  00351	50		 push	 eax
  00352	8b 0d 00 00 00
	00		 mov	 ecx, DWORD PTR _LIBMANWindow
  00358	51		 push	 ecx
  00359	e8 00 00 00 00	 call	 _MessageBoxUTF8
  0035e	83 c4 10	 add	 esp, 16			; 00000010H
$LN24@LIBMANComm:

; 2328 :       }
; 2329 :       DeselectList1();

  00361	e8 00 00 00 00	 call	 _DeselectList1

; 2330 :       break;

  00366	e9 7d 08 00 00	 jmp	 $LN1@LIBMANComm
$LN27@LIBMANComm:

; 2331 :     case ID_EXPORT_SYMBOLS2:
; 2332 :       if (LibraryFile[1][0]==0) {

  0036b	b8 00 02 00 00	 mov	 eax, 512		; 00000200H
  00370	c1 e0 00	 shl	 eax, 0
  00373	b9 01 00 00 00	 mov	 ecx, 1
  00378	6b d1 00	 imul	 edx, ecx, 0
  0037b	0f be 84 10 00
	00 00 00	 movsx	 eax, BYTE PTR _LibraryFile[eax+edx]
  00383	85 c0		 test	 eax, eax
  00385	75 35		 jne	 SHORT $LN28@LIBMANComm

; 2333 :         MessageBoxUTF8(LIBMANWindow,SC(8,"No library file open"),SC(9,"Error"),MB_OK);

  00387	6a 00		 push	 0
  00389	68 00 00 00 00	 push	 OFFSET ??_C@_05NAOIJFC@Error?$AA@
  0038e	6a 09		 push	 9
  00390	e8 00 00 00 00	 call	 _StringConvert
  00395	83 c4 08	 add	 esp, 8
  00398	50		 push	 eax
  00399	68 00 00 00 00	 push	 OFFSET ??_C@_0BF@FBPFCAMF@No?5library?5file?5open?$AA@
  0039e	6a 08		 push	 8
  003a0	e8 00 00 00 00	 call	 _StringConvert
  003a5	83 c4 08	 add	 esp, 8
  003a8	50		 push	 eax
  003a9	a1 00 00 00 00	 mov	 eax, DWORD PTR _LIBMANWindow
  003ae	50		 push	 eax
  003af	e8 00 00 00 00	 call	 _MessageBoxUTF8
  003b4	83 c4 10	 add	 esp, 16			; 00000010H

; 2334 :         return;

  003b7	e9 2c 08 00 00	 jmp	 $LN1@LIBMANComm
$LN28@LIBMANComm:

; 2335 :       }
; 2336 :       res=ExportSymbols(1,0);

  003bc	6a 00		 push	 0
  003be	6a 01		 push	 1
  003c0	e8 00 00 00 00	 call	 _ExportSymbols
  003c5	83 c4 08	 add	 esp, 8
  003c8	89 45 d0	 mov	 DWORD PTR _res$[ebp], eax

; 2337 :       if (res>0) {

  003cb	83 7d d0 00	 cmp	 DWORD PTR _res$[ebp], 0
  003cf	0f 8e 83 00 00
	00		 jle	 $LN29@LIBMANComm

; 2338 :         if (LibraryMode==0) {

  003d5	83 3d 00 00 00
	00 00		 cmp	 DWORD PTR _LibraryMode, 0
  003dc	75 2a		 jne	 SHORT $LN30@LIBMANComm

; 2339 :           sprintf(str2,SC(46,"%d symbols added to directory %s"),res,ExportDir);

  003de	68 00 00 00 00	 push	 OFFSET _ExportDir
  003e3	8b 45 d0	 mov	 eax, DWORD PTR _res$[ebp]
  003e6	50		 push	 eax
  003e7	68 00 00 00 00	 push	 OFFSET ??_C@_0CB@JKDIKEEG@?$CFd?5symbols?5added?5to?5directory?5?$CFs@
  003ec	6a 2e		 push	 46			; 0000002eH
  003ee	e8 00 00 00 00	 call	 _StringConvert
  003f3	83 c4 08	 add	 esp, 8
  003f6	50		 push	 eax
  003f7	8d 8d b4 fb ff
	ff		 lea	 ecx, DWORD PTR _str2$[ebp]
  003fd	51		 push	 ecx
  003fe	e8 00 00 00 00	 call	 _sprintf
  00403	83 c4 10	 add	 esp, 16			; 00000010H

; 2340 :         } else {

  00406	eb 28		 jmp	 SHORT $LN31@LIBMANComm
$LN30@LIBMANComm:

; 2341 :           sprintf(str2,SC(59,"%d geometries added to directory %s"),res,ExportDir);

  00408	68 00 00 00 00	 push	 OFFSET _ExportDir
  0040d	8b 45 d0	 mov	 eax, DWORD PTR _res$[ebp]
  00410	50		 push	 eax
  00411	68 00 00 00 00	 push	 OFFSET ??_C@_0CE@NKBHKMLM@?$CFd?5geometries?5added?5to?5directory@
  00416	6a 3b		 push	 59			; 0000003bH
  00418	e8 00 00 00 00	 call	 _StringConvert
  0041d	83 c4 08	 add	 esp, 8
  00420	50		 push	 eax
  00421	8d 8d b4 fb ff
	ff		 lea	 ecx, DWORD PTR _str2$[ebp]
  00427	51		 push	 ecx
  00428	e8 00 00 00 00	 call	 _sprintf
  0042d	83 c4 10	 add	 esp, 16			; 00000010H
$LN31@LIBMANComm:

; 2342 :         }
; 2343 :         MessageBoxUTF8(LIBMANWindow,str2,SC(60,"Message"),MB_OK);

  00430	6a 00		 push	 0
  00432	68 00 00 00 00	 push	 OFFSET ??_C@_07BEIHKDLJ@Message?$AA@
  00437	6a 3c		 push	 60			; 0000003cH
  00439	e8 00 00 00 00	 call	 _StringConvert
  0043e	83 c4 08	 add	 esp, 8
  00441	50		 push	 eax
  00442	8d 85 b4 fb ff
	ff		 lea	 eax, DWORD PTR _str2$[ebp]
  00448	50		 push	 eax
  00449	8b 0d 00 00 00
	00		 mov	 ecx, DWORD PTR _LIBMANWindow
  0044f	51		 push	 ecx
  00450	e8 00 00 00 00	 call	 _MessageBoxUTF8
  00455	83 c4 10	 add	 esp, 16			; 00000010H
$LN29@LIBMANComm:

; 2344 :       }
; 2345 :       DeselectList2();

  00458	e8 00 00 00 00	 call	 _DeselectList2

; 2346 :       break;

  0045d	e9 86 07 00 00	 jmp	 $LN1@LIBMANComm
$LN32@LIBMANComm:

; 2347 :     case ID_DELETE_SYMBOLS1:
; 2348 :       if (LibraryFile[0][0]==0) {

  00462	b8 00 02 00 00	 mov	 eax, 512		; 00000200H
  00467	6b c8 00	 imul	 ecx, eax, 0
  0046a	ba 01 00 00 00	 mov	 edx, 1
  0046f	6b c2 00	 imul	 eax, edx, 0
  00472	0f be 8c 01 00
	00 00 00	 movsx	 ecx, BYTE PTR _LibraryFile[ecx+eax]
  0047a	85 c9		 test	 ecx, ecx
  0047c	75 35		 jne	 SHORT $LN33@LIBMANComm

; 2349 :         MessageBoxUTF8(LIBMANWindow,SC(8,"No library file open"),SC(9,"Error"),MB_OK);

  0047e	6a 00		 push	 0
  00480	68 00 00 00 00	 push	 OFFSET ??_C@_05NAOIJFC@Error?$AA@
  00485	6a 09		 push	 9
  00487	e8 00 00 00 00	 call	 _StringConvert
  0048c	83 c4 08	 add	 esp, 8
  0048f	50		 push	 eax
  00490	68 00 00 00 00	 push	 OFFSET ??_C@_0BF@FBPFCAMF@No?5library?5file?5open?$AA@
  00495	6a 08		 push	 8
  00497	e8 00 00 00 00	 call	 _StringConvert
  0049c	83 c4 08	 add	 esp, 8
  0049f	50		 push	 eax
  004a0	a1 00 00 00 00	 mov	 eax, DWORD PTR _LIBMANWindow
  004a5	50		 push	 eax
  004a6	e8 00 00 00 00	 call	 _MessageBoxUTF8
  004ab	83 c4 10	 add	 esp, 16			; 00000010H

; 2350 :         return;

  004ae	e9 35 07 00 00	 jmp	 $LN1@LIBMANComm
$LN33@LIBMANComm:

; 2351 :       }
; 2352 :       DeleteSymbols(0);

  004b3	6a 00		 push	 0
  004b5	e8 00 00 00 00	 call	 _DeleteSymbols
  004ba	83 c4 04	 add	 esp, 4

; 2353 :       break;

  004bd	e9 26 07 00 00	 jmp	 $LN1@LIBMANComm
$LN34@LIBMANComm:

; 2354 :     case ID_DELETE_SYMBOLS2:
; 2355 :       if (LibraryFile[1][0]==0) {

  004c2	b8 00 02 00 00	 mov	 eax, 512		; 00000200H
  004c7	c1 e0 00	 shl	 eax, 0
  004ca	b9 01 00 00 00	 mov	 ecx, 1
  004cf	6b d1 00	 imul	 edx, ecx, 0
  004d2	0f be 84 10 00
	00 00 00	 movsx	 eax, BYTE PTR _LibraryFile[eax+edx]
  004da	85 c0		 test	 eax, eax
  004dc	75 35		 jne	 SHORT $LN35@LIBMANComm

; 2356 :         MessageBoxUTF8(LIBMANWindow,SC(8,"No library file open"),SC(9,"Error"),MB_OK);

  004de	6a 00		 push	 0
  004e0	68 00 00 00 00	 push	 OFFSET ??_C@_05NAOIJFC@Error?$AA@
  004e5	6a 09		 push	 9
  004e7	e8 00 00 00 00	 call	 _StringConvert
  004ec	83 c4 08	 add	 esp, 8
  004ef	50		 push	 eax
  004f0	68 00 00 00 00	 push	 OFFSET ??_C@_0BF@FBPFCAMF@No?5library?5file?5open?$AA@
  004f5	6a 08		 push	 8
  004f7	e8 00 00 00 00	 call	 _StringConvert
  004fc	83 c4 08	 add	 esp, 8
  004ff	50		 push	 eax
  00500	a1 00 00 00 00	 mov	 eax, DWORD PTR _LIBMANWindow
  00505	50		 push	 eax
  00506	e8 00 00 00 00	 call	 _MessageBoxUTF8
  0050b	83 c4 10	 add	 esp, 16			; 00000010H

; 2357 :         return;

  0050e	e9 d5 06 00 00	 jmp	 $LN1@LIBMANComm
$LN35@LIBMANComm:

; 2358 :       }
; 2359 :       DeleteSymbols(1);

  00513	6a 01		 push	 1
  00515	e8 00 00 00 00	 call	 _DeleteSymbols
  0051a	83 c4 04	 add	 esp, 4

; 2360 :       break;

  0051d	e9 c6 06 00 00	 jmp	 $LN1@LIBMANComm
$LN36@LIBMANComm:

; 2361 :     case ID_DESELECT_ALL1:
; 2362 :       if (LibraryFile[0][0]==0) {

  00522	b8 00 02 00 00	 mov	 eax, 512		; 00000200H
  00527	6b c8 00	 imul	 ecx, eax, 0
  0052a	ba 01 00 00 00	 mov	 edx, 1
  0052f	6b c2 00	 imul	 eax, edx, 0
  00532	0f be 8c 01 00
	00 00 00	 movsx	 ecx, BYTE PTR _LibraryFile[ecx+eax]
  0053a	85 c9		 test	 ecx, ecx
  0053c	75 35		 jne	 SHORT $LN37@LIBMANComm

; 2363 :         MessageBoxUTF8(LIBMANWindow,SC(8,"No library file open"),SC(9,"Error"),MB_OK);

  0053e	6a 00		 push	 0
  00540	68 00 00 00 00	 push	 OFFSET ??_C@_05NAOIJFC@Error?$AA@
  00545	6a 09		 push	 9
  00547	e8 00 00 00 00	 call	 _StringConvert
  0054c	83 c4 08	 add	 esp, 8
  0054f	50		 push	 eax
  00550	68 00 00 00 00	 push	 OFFSET ??_C@_0BF@FBPFCAMF@No?5library?5file?5open?$AA@
  00555	6a 08		 push	 8
  00557	e8 00 00 00 00	 call	 _StringConvert
  0055c	83 c4 08	 add	 esp, 8
  0055f	50		 push	 eax
  00560	a1 00 00 00 00	 mov	 eax, DWORD PTR _LIBMANWindow
  00565	50		 push	 eax
  00566	e8 00 00 00 00	 call	 _MessageBoxUTF8
  0056b	83 c4 10	 add	 esp, 16			; 00000010H

; 2364 :         return;

  0056e	e9 75 06 00 00	 jmp	 $LN1@LIBMANComm
$LN37@LIBMANComm:

; 2365 :       }
; 2366 :       DeselectList1();

  00573	e8 00 00 00 00	 call	 _DeselectList1

; 2367 :       break;

  00578	e9 6b 06 00 00	 jmp	 $LN1@LIBMANComm
$LN38@LIBMANComm:

; 2368 :     case ID_DESELECT_ALL2:
; 2369 :       if (LibraryFile[1][0]==0) {

  0057d	b8 00 02 00 00	 mov	 eax, 512		; 00000200H
  00582	c1 e0 00	 shl	 eax, 0
  00585	b9 01 00 00 00	 mov	 ecx, 1
  0058a	6b d1 00	 imul	 edx, ecx, 0
  0058d	0f be 84 10 00
	00 00 00	 movsx	 eax, BYTE PTR _LibraryFile[eax+edx]
  00595	85 c0		 test	 eax, eax
  00597	75 35		 jne	 SHORT $LN39@LIBMANComm

; 2370 :         MessageBoxUTF8(LIBMANWindow,SC(8,"No library file open"),SC(9,"Error"),MB_OK);

  00599	6a 00		 push	 0
  0059b	68 00 00 00 00	 push	 OFFSET ??_C@_05NAOIJFC@Error?$AA@
  005a0	6a 09		 push	 9
  005a2	e8 00 00 00 00	 call	 _StringConvert
  005a7	83 c4 08	 add	 esp, 8
  005aa	50		 push	 eax
  005ab	68 00 00 00 00	 push	 OFFSET ??_C@_0BF@FBPFCAMF@No?5library?5file?5open?$AA@
  005b0	6a 08		 push	 8
  005b2	e8 00 00 00 00	 call	 _StringConvert
  005b7	83 c4 08	 add	 esp, 8
  005ba	50		 push	 eax
  005bb	a1 00 00 00 00	 mov	 eax, DWORD PTR _LIBMANWindow
  005c0	50		 push	 eax
  005c1	e8 00 00 00 00	 call	 _MessageBoxUTF8
  005c6	83 c4 10	 add	 esp, 16			; 00000010H

; 2371 :         return;

  005c9	e9 1a 06 00 00	 jmp	 $LN1@LIBMANComm
$LN39@LIBMANComm:

; 2372 :       }
; 2373 :       DeselectList2();

  005ce	e8 00 00 00 00	 call	 _DeselectList2

; 2374 :       break;

  005d3	e9 10 06 00 00	 jmp	 $LN1@LIBMANComm
$LN40@LIBMANComm:

; 2375 :     case ID_SELECT_ALL1:
; 2376 :       if (LibraryFile[0][0]==0) {

  005d8	b8 00 02 00 00	 mov	 eax, 512		; 00000200H
  005dd	6b c8 00	 imul	 ecx, eax, 0
  005e0	ba 01 00 00 00	 mov	 edx, 1
  005e5	6b c2 00	 imul	 eax, edx, 0
  005e8	0f be 8c 01 00
	00 00 00	 movsx	 ecx, BYTE PTR _LibraryFile[ecx+eax]
  005f0	85 c9		 test	 ecx, ecx
  005f2	75 35		 jne	 SHORT $LN41@LIBMANComm

; 2377 :         MessageBoxUTF8(LIBMANWindow,SC(8,"No library file open"),SC(9,"Error"),MB_OK);

  005f4	6a 00		 push	 0
  005f6	68 00 00 00 00	 push	 OFFSET ??_C@_05NAOIJFC@Error?$AA@
  005fb	6a 09		 push	 9
  005fd	e8 00 00 00 00	 call	 _StringConvert
  00602	83 c4 08	 add	 esp, 8
  00605	50		 push	 eax
  00606	68 00 00 00 00	 push	 OFFSET ??_C@_0BF@FBPFCAMF@No?5library?5file?5open?$AA@
  0060b	6a 08		 push	 8
  0060d	e8 00 00 00 00	 call	 _StringConvert
  00612	83 c4 08	 add	 esp, 8
  00615	50		 push	 eax
  00616	a1 00 00 00 00	 mov	 eax, DWORD PTR _LIBMANWindow
  0061b	50		 push	 eax
  0061c	e8 00 00 00 00	 call	 _MessageBoxUTF8
  00621	83 c4 10	 add	 esp, 16			; 00000010H

; 2378 :         return;

  00624	e9 bf 05 00 00	 jmp	 $LN1@LIBMANComm
$LN41@LIBMANComm:

; 2379 :       }
; 2380 :       SelectList1();

  00629	e8 00 00 00 00	 call	 _SelectList1

; 2381 :       break;

  0062e	e9 b5 05 00 00	 jmp	 $LN1@LIBMANComm
$LN42@LIBMANComm:

; 2382 :     case ID_SELECT_ALL2:
; 2383 :       if (LibraryFile[1][0]==0) {

  00633	b8 00 02 00 00	 mov	 eax, 512		; 00000200H
  00638	c1 e0 00	 shl	 eax, 0
  0063b	b9 01 00 00 00	 mov	 ecx, 1
  00640	6b d1 00	 imul	 edx, ecx, 0
  00643	0f be 84 10 00
	00 00 00	 movsx	 eax, BYTE PTR _LibraryFile[eax+edx]
  0064b	85 c0		 test	 eax, eax
  0064d	75 35		 jne	 SHORT $LN43@LIBMANComm

; 2384 :         MessageBoxUTF8(LIBMANWindow,SC(8,"No library file open"),SC(9,"Error"),MB_OK);

  0064f	6a 00		 push	 0
  00651	68 00 00 00 00	 push	 OFFSET ??_C@_05NAOIJFC@Error?$AA@
  00656	6a 09		 push	 9
  00658	e8 00 00 00 00	 call	 _StringConvert
  0065d	83 c4 08	 add	 esp, 8
  00660	50		 push	 eax
  00661	68 00 00 00 00	 push	 OFFSET ??_C@_0BF@FBPFCAMF@No?5library?5file?5open?$AA@
  00666	6a 08		 push	 8
  00668	e8 00 00 00 00	 call	 _StringConvert
  0066d	83 c4 08	 add	 esp, 8
  00670	50		 push	 eax
  00671	a1 00 00 00 00	 mov	 eax, DWORD PTR _LIBMANWindow
  00676	50		 push	 eax
  00677	e8 00 00 00 00	 call	 _MessageBoxUTF8
  0067c	83 c4 10	 add	 esp, 16			; 00000010H

; 2385 :         return;

  0067f	e9 64 05 00 00	 jmp	 $LN1@LIBMANComm
$LN43@LIBMANComm:

; 2386 :       }
; 2387 :       SelectList2();

  00684	e8 00 00 00 00	 call	 _SelectList2

; 2388 :       break;

  00689	e9 5a 05 00 00	 jmp	 $LN1@LIBMANComm
$LN44@LIBMANComm:

; 2389 :     case ID_COPY_SYMBOLS1:
; 2390 :       if (LibraryFile[0][0]==0) {

  0068e	b8 00 02 00 00	 mov	 eax, 512		; 00000200H
  00693	6b c8 00	 imul	 ecx, eax, 0
  00696	ba 01 00 00 00	 mov	 edx, 1
  0069b	6b c2 00	 imul	 eax, edx, 0
  0069e	0f be 8c 01 00
	00 00 00	 movsx	 ecx, BYTE PTR _LibraryFile[ecx+eax]
  006a6	85 c9		 test	 ecx, ecx
  006a8	75 35		 jne	 SHORT $LN45@LIBMANComm

; 2391 :         MessageBoxUTF8(LIBMANWindow,SC(8,"No library file open"),SC(9,"Error"),MB_OK);

  006aa	6a 00		 push	 0
  006ac	68 00 00 00 00	 push	 OFFSET ??_C@_05NAOIJFC@Error?$AA@
  006b1	6a 09		 push	 9
  006b3	e8 00 00 00 00	 call	 _StringConvert
  006b8	83 c4 08	 add	 esp, 8
  006bb	50		 push	 eax
  006bc	68 00 00 00 00	 push	 OFFSET ??_C@_0BF@FBPFCAMF@No?5library?5file?5open?$AA@
  006c1	6a 08		 push	 8
  006c3	e8 00 00 00 00	 call	 _StringConvert
  006c8	83 c4 08	 add	 esp, 8
  006cb	50		 push	 eax
  006cc	a1 00 00 00 00	 mov	 eax, DWORD PTR _LIBMANWindow
  006d1	50		 push	 eax
  006d2	e8 00 00 00 00	 call	 _MessageBoxUTF8
  006d7	83 c4 10	 add	 esp, 16			; 00000010H

; 2392 :         return;

  006da	e9 09 05 00 00	 jmp	 $LN1@LIBMANComm
$LN45@LIBMANComm:

; 2393 :       }
; 2394 :       if (LibraryFile[1][0]==0) {

  006df	b8 00 02 00 00	 mov	 eax, 512		; 00000200H
  006e4	c1 e0 00	 shl	 eax, 0
  006e7	b9 01 00 00 00	 mov	 ecx, 1
  006ec	6b d1 00	 imul	 edx, ecx, 0
  006ef	0f be 84 10 00
	00 00 00	 movsx	 eax, BYTE PTR _LibraryFile[eax+edx]
  006f7	85 c0		 test	 eax, eax
  006f9	75 35		 jne	 SHORT $LN46@LIBMANComm

; 2395 :         MessageBoxUTF8(LIBMANWindow,SC(8,"No library file open"),SC(9,"Error"),MB_OK);

  006fb	6a 00		 push	 0
  006fd	68 00 00 00 00	 push	 OFFSET ??_C@_05NAOIJFC@Error?$AA@
  00702	6a 09		 push	 9
  00704	e8 00 00 00 00	 call	 _StringConvert
  00709	83 c4 08	 add	 esp, 8
  0070c	50		 push	 eax
  0070d	68 00 00 00 00	 push	 OFFSET ??_C@_0BF@FBPFCAMF@No?5library?5file?5open?$AA@
  00712	6a 08		 push	 8
  00714	e8 00 00 00 00	 call	 _StringConvert
  00719	83 c4 08	 add	 esp, 8
  0071c	50		 push	 eax
  0071d	a1 00 00 00 00	 mov	 eax, DWORD PTR _LIBMANWindow
  00722	50		 push	 eax
  00723	e8 00 00 00 00	 call	 _MessageBoxUTF8
  00728	83 c4 10	 add	 esp, 16			; 00000010H

; 2396 :         return;

  0072b	e9 b8 04 00 00	 jmp	 $LN1@LIBMANComm
$LN46@LIBMANComm:

; 2397 :       }
; 2398 :       res=ExportSymbols(0,1);

  00730	6a 01		 push	 1
  00732	6a 00		 push	 0
  00734	e8 00 00 00 00	 call	 _ExportSymbols
  00739	83 c4 08	 add	 esp, 8
  0073c	89 45 d0	 mov	 DWORD PTR _res$[ebp], eax

; 2399 :       AddSymbols(1,1);

  0073f	6a 01		 push	 1
  00741	6a 01		 push	 1
  00743	e8 00 00 00 00	 call	 _AddSymbols
  00748	83 c4 08	 add	 esp, 8

; 2400 :       DeselectList1();

  0074b	e8 00 00 00 00	 call	 _DeselectList1

; 2401 :       break;

  00750	e9 93 04 00 00	 jmp	 $LN1@LIBMANComm
$LN47@LIBMANComm:

; 2402 :     case ID_MOVE_SYMBOLS1:
; 2403 :       if (LibraryFile[0][0]==0) {

  00755	b8 00 02 00 00	 mov	 eax, 512		; 00000200H
  0075a	6b c8 00	 imul	 ecx, eax, 0
  0075d	ba 01 00 00 00	 mov	 edx, 1
  00762	6b c2 00	 imul	 eax, edx, 0
  00765	0f be 8c 01 00
	00 00 00	 movsx	 ecx, BYTE PTR _LibraryFile[ecx+eax]
  0076d	85 c9		 test	 ecx, ecx
  0076f	75 35		 jne	 SHORT $LN48@LIBMANComm

; 2404 :         MessageBoxUTF8(LIBMANWindow,SC(8,"No library file open"),SC(9,"Error"),MB_OK);

  00771	6a 00		 push	 0
  00773	68 00 00 00 00	 push	 OFFSET ??_C@_05NAOIJFC@Error?$AA@
  00778	6a 09		 push	 9
  0077a	e8 00 00 00 00	 call	 _StringConvert
  0077f	83 c4 08	 add	 esp, 8
  00782	50		 push	 eax
  00783	68 00 00 00 00	 push	 OFFSET ??_C@_0BF@FBPFCAMF@No?5library?5file?5open?$AA@
  00788	6a 08		 push	 8
  0078a	e8 00 00 00 00	 call	 _StringConvert
  0078f	83 c4 08	 add	 esp, 8
  00792	50		 push	 eax
  00793	a1 00 00 00 00	 mov	 eax, DWORD PTR _LIBMANWindow
  00798	50		 push	 eax
  00799	e8 00 00 00 00	 call	 _MessageBoxUTF8
  0079e	83 c4 10	 add	 esp, 16			; 00000010H

; 2405 :         return;

  007a1	e9 42 04 00 00	 jmp	 $LN1@LIBMANComm
$LN48@LIBMANComm:

; 2406 :       }
; 2407 :       if (LibraryFile[1][0]==0) {

  007a6	b8 00 02 00 00	 mov	 eax, 512		; 00000200H
  007ab	c1 e0 00	 shl	 eax, 0
  007ae	b9 01 00 00 00	 mov	 ecx, 1
  007b3	6b d1 00	 imul	 edx, ecx, 0
  007b6	0f be 84 10 00
	00 00 00	 movsx	 eax, BYTE PTR _LibraryFile[eax+edx]
  007be	85 c0		 test	 eax, eax
  007c0	75 35		 jne	 SHORT $LN49@LIBMANComm

; 2408 :         MessageBoxUTF8(LIBMANWindow,SC(8,"No library file open"),SC(9,"Error"),MB_OK);

  007c2	6a 00		 push	 0
  007c4	68 00 00 00 00	 push	 OFFSET ??_C@_05NAOIJFC@Error?$AA@
  007c9	6a 09		 push	 9
  007cb	e8 00 00 00 00	 call	 _StringConvert
  007d0	83 c4 08	 add	 esp, 8
  007d3	50		 push	 eax
  007d4	68 00 00 00 00	 push	 OFFSET ??_C@_0BF@FBPFCAMF@No?5library?5file?5open?$AA@
  007d9	6a 08		 push	 8
  007db	e8 00 00 00 00	 call	 _StringConvert
  007e0	83 c4 08	 add	 esp, 8
  007e3	50		 push	 eax
  007e4	a1 00 00 00 00	 mov	 eax, DWORD PTR _LIBMANWindow
  007e9	50		 push	 eax
  007ea	e8 00 00 00 00	 call	 _MessageBoxUTF8
  007ef	83 c4 10	 add	 esp, 16			; 00000010H

; 2409 :         return;

  007f2	e9 f1 03 00 00	 jmp	 $LN1@LIBMANComm
$LN49@LIBMANComm:

; 2410 :       }
; 2411 :       res=ExportSymbols(0,1);

  007f7	6a 01		 push	 1
  007f9	6a 00		 push	 0
  007fb	e8 00 00 00 00	 call	 _ExportSymbols
  00800	83 c4 08	 add	 esp, 8
  00803	89 45 d0	 mov	 DWORD PTR _res$[ebp], eax

; 2412 :       AddSymbols(1,1);

  00806	6a 01		 push	 1
  00808	6a 01		 push	 1
  0080a	e8 00 00 00 00	 call	 _AddSymbols
  0080f	83 c4 08	 add	 esp, 8

; 2413 :       DeleteSymbols(0);

  00812	6a 00		 push	 0
  00814	e8 00 00 00 00	 call	 _DeleteSymbols
  00819	83 c4 04	 add	 esp, 4

; 2414 :       break;

  0081c	e9 c7 03 00 00	 jmp	 $LN1@LIBMANComm
$LN50@LIBMANComm:

; 2415 :     case ID_COPY_SYMBOLS2:
; 2416 :       if (LibraryFile[0][0]==0) {

  00821	b8 00 02 00 00	 mov	 eax, 512		; 00000200H
  00826	6b c8 00	 imul	 ecx, eax, 0
  00829	ba 01 00 00 00	 mov	 edx, 1
  0082e	6b c2 00	 imul	 eax, edx, 0
  00831	0f be 8c 01 00
	00 00 00	 movsx	 ecx, BYTE PTR _LibraryFile[ecx+eax]
  00839	85 c9		 test	 ecx, ecx
  0083b	75 35		 jne	 SHORT $LN51@LIBMANComm

; 2417 :         MessageBoxUTF8(LIBMANWindow,SC(8,"No library file open"),SC(9,"Error"),MB_OK);

  0083d	6a 00		 push	 0
  0083f	68 00 00 00 00	 push	 OFFSET ??_C@_05NAOIJFC@Error?$AA@
  00844	6a 09		 push	 9
  00846	e8 00 00 00 00	 call	 _StringConvert
  0084b	83 c4 08	 add	 esp, 8
  0084e	50		 push	 eax
  0084f	68 00 00 00 00	 push	 OFFSET ??_C@_0BF@FBPFCAMF@No?5library?5file?5open?$AA@
  00854	6a 08		 push	 8
  00856	e8 00 00 00 00	 call	 _StringConvert
  0085b	83 c4 08	 add	 esp, 8
  0085e	50		 push	 eax
  0085f	a1 00 00 00 00	 mov	 eax, DWORD PTR _LIBMANWindow
  00864	50		 push	 eax
  00865	e8 00 00 00 00	 call	 _MessageBoxUTF8
  0086a	83 c4 10	 add	 esp, 16			; 00000010H

; 2418 :         return;

  0086d	e9 76 03 00 00	 jmp	 $LN1@LIBMANComm
$LN51@LIBMANComm:

; 2419 :       }
; 2420 :       if (LibraryFile[1][0]==0) {

  00872	b8 00 02 00 00	 mov	 eax, 512		; 00000200H
  00877	c1 e0 00	 shl	 eax, 0
  0087a	b9 01 00 00 00	 mov	 ecx, 1
  0087f	6b d1 00	 imul	 edx, ecx, 0
  00882	0f be 84 10 00
	00 00 00	 movsx	 eax, BYTE PTR _LibraryFile[eax+edx]
  0088a	85 c0		 test	 eax, eax
  0088c	75 35		 jne	 SHORT $LN52@LIBMANComm

; 2421 :         MessageBoxUTF8(LIBMANWindow,SC(8,"No library file open"),SC(9,"Error"),MB_OK);

  0088e	6a 00		 push	 0
  00890	68 00 00 00 00	 push	 OFFSET ??_C@_05NAOIJFC@Error?$AA@
  00895	6a 09		 push	 9
  00897	e8 00 00 00 00	 call	 _StringConvert
  0089c	83 c4 08	 add	 esp, 8
  0089f	50		 push	 eax
  008a0	68 00 00 00 00	 push	 OFFSET ??_C@_0BF@FBPFCAMF@No?5library?5file?5open?$AA@
  008a5	6a 08		 push	 8
  008a7	e8 00 00 00 00	 call	 _StringConvert
  008ac	83 c4 08	 add	 esp, 8
  008af	50		 push	 eax
  008b0	a1 00 00 00 00	 mov	 eax, DWORD PTR _LIBMANWindow
  008b5	50		 push	 eax
  008b6	e8 00 00 00 00	 call	 _MessageBoxUTF8
  008bb	83 c4 10	 add	 esp, 16			; 00000010H

; 2422 :         return;

  008be	e9 25 03 00 00	 jmp	 $LN1@LIBMANComm
$LN52@LIBMANComm:

; 2423 :       }
; 2424 :       res=ExportSymbols(1,1);

  008c3	6a 01		 push	 1
  008c5	6a 01		 push	 1
  008c7	e8 00 00 00 00	 call	 _ExportSymbols
  008cc	83 c4 08	 add	 esp, 8
  008cf	89 45 d0	 mov	 DWORD PTR _res$[ebp], eax

; 2425 :       AddSymbols(0,1);

  008d2	6a 01		 push	 1
  008d4	6a 00		 push	 0
  008d6	e8 00 00 00 00	 call	 _AddSymbols
  008db	83 c4 08	 add	 esp, 8

; 2426 :       DeselectList2();

  008de	e8 00 00 00 00	 call	 _DeselectList2

; 2427 :       break;

  008e3	e9 00 03 00 00	 jmp	 $LN1@LIBMANComm
$LN53@LIBMANComm:

; 2428 :     case ID_MOVE_SYMBOLS2:
; 2429 :       if (LibraryFile[0][0]==0) {

  008e8	b8 00 02 00 00	 mov	 eax, 512		; 00000200H
  008ed	6b c8 00	 imul	 ecx, eax, 0
  008f0	ba 01 00 00 00	 mov	 edx, 1
  008f5	6b c2 00	 imul	 eax, edx, 0
  008f8	0f be 8c 01 00
	00 00 00	 movsx	 ecx, BYTE PTR _LibraryFile[ecx+eax]
  00900	85 c9		 test	 ecx, ecx
  00902	75 35		 jne	 SHORT $LN54@LIBMANComm

; 2430 :         MessageBoxUTF8(LIBMANWindow,SC(8,"No library file open"),SC(9,"Error"),MB_OK);

  00904	6a 00		 push	 0
  00906	68 00 00 00 00	 push	 OFFSET ??_C@_05NAOIJFC@Error?$AA@
  0090b	6a 09		 push	 9
  0090d	e8 00 00 00 00	 call	 _StringConvert
  00912	83 c4 08	 add	 esp, 8
  00915	50		 push	 eax
  00916	68 00 00 00 00	 push	 OFFSET ??_C@_0BF@FBPFCAMF@No?5library?5file?5open?$AA@
  0091b	6a 08		 push	 8
  0091d	e8 00 00 00 00	 call	 _StringConvert
  00922	83 c4 08	 add	 esp, 8
  00925	50		 push	 eax
  00926	a1 00 00 00 00	 mov	 eax, DWORD PTR _LIBMANWindow
  0092b	50		 push	 eax
  0092c	e8 00 00 00 00	 call	 _MessageBoxUTF8
  00931	83 c4 10	 add	 esp, 16			; 00000010H

; 2431 :         return;

  00934	e9 af 02 00 00	 jmp	 $LN1@LIBMANComm
$LN54@LIBMANComm:

; 2432 :       }
; 2433 :       if (LibraryFile[1][0]==0) {

  00939	b8 00 02 00 00	 mov	 eax, 512		; 00000200H
  0093e	c1 e0 00	 shl	 eax, 0
  00941	b9 01 00 00 00	 mov	 ecx, 1
  00946	6b d1 00	 imul	 edx, ecx, 0
  00949	0f be 84 10 00
	00 00 00	 movsx	 eax, BYTE PTR _LibraryFile[eax+edx]
  00951	85 c0		 test	 eax, eax
  00953	75 35		 jne	 SHORT $LN55@LIBMANComm

; 2434 :         MessageBoxUTF8(LIBMANWindow,SC(8,"No library file open"),SC(9,"Error"),MB_OK);

  00955	6a 00		 push	 0
  00957	68 00 00 00 00	 push	 OFFSET ??_C@_05NAOIJFC@Error?$AA@
  0095c	6a 09		 push	 9
  0095e	e8 00 00 00 00	 call	 _StringConvert
  00963	83 c4 08	 add	 esp, 8
  00966	50		 push	 eax
  00967	68 00 00 00 00	 push	 OFFSET ??_C@_0BF@FBPFCAMF@No?5library?5file?5open?$AA@
  0096c	6a 08		 push	 8
  0096e	e8 00 00 00 00	 call	 _StringConvert
  00973	83 c4 08	 add	 esp, 8
  00976	50		 push	 eax
  00977	a1 00 00 00 00	 mov	 eax, DWORD PTR _LIBMANWindow
  0097c	50		 push	 eax
  0097d	e8 00 00 00 00	 call	 _MessageBoxUTF8
  00982	83 c4 10	 add	 esp, 16			; 00000010H

; 2435 :         return;

  00985	e9 5e 02 00 00	 jmp	 $LN1@LIBMANComm
$LN55@LIBMANComm:

; 2436 :       }
; 2437 :       res=ExportSymbols(1,1);

  0098a	6a 01		 push	 1
  0098c	6a 01		 push	 1
  0098e	e8 00 00 00 00	 call	 _ExportSymbols
  00993	83 c4 08	 add	 esp, 8
  00996	89 45 d0	 mov	 DWORD PTR _res$[ebp], eax

; 2438 :       AddSymbols(0,1);

  00999	6a 01		 push	 1
  0099b	6a 00		 push	 0
  0099d	e8 00 00 00 00	 call	 _AddSymbols
  009a2	83 c4 08	 add	 esp, 8

; 2439 :       DeleteSymbols(1);

  009a5	6a 01		 push	 1
  009a7	e8 00 00 00 00	 call	 _DeleteSymbols
  009ac	83 c4 04	 add	 esp, 4

; 2440 :       break;

  009af	e9 34 02 00 00	 jmp	 $LN1@LIBMANComm
$LN56@LIBMANComm:

; 2441 :     case ID_RIGHT_BUTTON_LIST1:
; 2442 :       PopupMenu(0,0);

  009b4	6a 00		 push	 0
  009b6	6a 00		 push	 0
  009b8	e8 00 00 00 00	 call	 _PopupMenu
  009bd	83 c4 08	 add	 esp, 8

; 2443 :       res=1;

  009c0	c7 45 d0 01 00
	00 00		 mov	 DWORD PTR _res$[ebp], 1

; 2444 :       break;

  009c7	e9 1c 02 00 00	 jmp	 $LN1@LIBMANComm
$LN57@LIBMANComm:

; 2445 :     case ID_RIGHT_BUTTON_LIST2:
; 2446 :       PopupMenu(1,0);

  009cc	6a 00		 push	 0
  009ce	6a 01		 push	 1
  009d0	e8 00 00 00 00	 call	 _PopupMenu
  009d5	83 c4 08	 add	 esp, 8

; 2447 :       res=1;

  009d8	c7 45 d0 01 00
	00 00		 mov	 DWORD PTR _res$[ebp], 1

; 2448 :       break;

  009df	e9 04 02 00 00	 jmp	 $LN1@LIBMANComm
$LN58@LIBMANComm:

; 2449 :     case ID_EDIT_SYMBOL1:
; 2450 :       EditSymbol(0);

  009e4	6a 00		 push	 0
  009e6	e8 00 00 00 00	 call	 _EditSymbol
  009eb	83 c4 04	 add	 esp, 4

; 2451 :       DeselectList1();

  009ee	e8 00 00 00 00	 call	 _DeselectList1

; 2452 :       break;

  009f3	e9 f0 01 00 00	 jmp	 $LN1@LIBMANComm
$LN59@LIBMANComm:

; 2453 :     case ID_EDIT_SYMBOL2:
; 2454 :       EditSymbol(1);

  009f8	6a 01		 push	 1
  009fa	e8 00 00 00 00	 call	 _EditSymbol
  009ff	83 c4 04	 add	 esp, 4

; 2455 :       DeselectList2();

  00a02	e8 00 00 00 00	 call	 _DeselectList2

; 2456 :       break;

  00a07	e9 dc 01 00 00	 jmp	 $LN1@LIBMANComm
$LN60@LIBMANComm:

; 2457 :     case ID_FILE_RELOAD_SYMBOLS:
; 2458 :     case ID_FILE_RELOADGEOMETRIES:
; 2459 :       ReloadSymbolsIntoLibrary();

  00a0c	e8 00 00 00 00	 call	 _ReloadSymbolsIntoLibrary

; 2460 :       break;

  00a11	e9 d2 01 00 00	 jmp	 $LN1@LIBMANComm
$LN61@LIBMANComm:

; 2461 :     case ID_FILE_EXIT_TO_LIB_SCH:
; 2462 :     case ID_FILE_EXIT_TO_LIB_GEOM:
; 2463 :       ExitEditingSymbol(LParam);

  00a16	8b 45 10	 mov	 eax, DWORD PTR _LParam$[ebp]
  00a19	50		 push	 eax
  00a1a	e8 00 00 00 00	 call	 _ExitEditingSymbol
  00a1f	83 c4 04	 add	 esp, 4

; 2464 :       break;

  00a22	e9 c1 01 00 00	 jmp	 $LN1@LIBMANComm
$LN62@LIBMANComm:

; 2465 :     case WM_DROPFILES_LIST1:
; 2466 :     case WM_DROPFILES_LIST2:
; 2467 :       if (LibraryFile[WParam-WM_DROPFILES_LIST1][0]!=0) {

  00a27	8b 45 0c	 mov	 eax, DWORD PTR _WParam$[ebp]
  00a2a	2d 52 08 00 00	 sub	 eax, 2130		; 00000852H
  00a2f	c1 e0 09	 shl	 eax, 9
  00a32	b9 01 00 00 00	 mov	 ecx, 1
  00a37	6b d1 00	 imul	 edx, ecx, 0
  00a3a	0f be 84 10 00
	00 00 00	 movsx	 eax, BYTE PTR _LibraryFile[eax+edx]
  00a42	85 c0		 test	 eax, eax
  00a44	0f 84 41 01 00
	00		 je	 $LN63@LIBMANComm

; 2468 :         NrFiles=DragQueryFileW((HANDLE)LParam,0xFFFFFFFF,0,0);

  00a4a	8b f4		 mov	 esi, esp
  00a4c	6a 00		 push	 0
  00a4e	6a 00		 push	 0
  00a50	6a ff		 push	 -1
  00a52	8b 45 10	 mov	 eax, DWORD PTR _LParam$[ebp]
  00a55	50		 push	 eax
  00a56	ff 15 00 00 00
	00		 call	 DWORD PTR __imp__DragQueryFileW@16
  00a5c	3b f4		 cmp	 esi, esp
  00a5e	e8 00 00 00 00	 call	 __RTC_CheckEsp
  00a63	89 45 c4	 mov	 DWORD PTR _NrFiles$[ebp], eax

; 2469 :         if (NrFiles>0) {

  00a66	83 7d c4 00	 cmp	 DWORD PTR _NrFiles$[ebp], 0
  00a6a	0f 8e ff 00 00
	00		 jle	 $LN65@LIBMANComm

; 2470 :           TempMemoryPos=0;

  00a70	c7 05 00 00 00
	00 00 00 00 00	 mov	 DWORD PTR _TempMemoryPos, 0

; 2471 :           TempMem[0]=0;

  00a7a	b8 01 00 00 00	 mov	 eax, 1
  00a7f	6b c8 00	 imul	 ecx, eax, 0
  00a82	8b 15 00 00 00
	00		 mov	 edx, DWORD PTR _TempMem
  00a88	c6 04 0a 00	 mov	 BYTE PTR [edx+ecx], 0

; 2472 :           TempMem[1]=0;

  00a8c	b8 01 00 00 00	 mov	 eax, 1
  00a91	c1 e0 00	 shl	 eax, 0
  00a94	8b 0d 00 00 00
	00		 mov	 ecx, DWORD PTR _TempMem
  00a9a	c6 04 01 00	 mov	 BYTE PTR [ecx+eax], 0

; 2473 :           for (cnt=0;cnt<NrFiles;cnt++) {

  00a9e	c7 45 f4 00 00
	00 00		 mov	 DWORD PTR _cnt$[ebp], 0
  00aa5	eb 09		 jmp	 SHORT $LN6@LIBMANComm
$LN4@LIBMANComm:
  00aa7	8b 45 f4	 mov	 eax, DWORD PTR _cnt$[ebp]
  00aaa	83 c0 01	 add	 eax, 1
  00aad	89 45 f4	 mov	 DWORD PTR _cnt$[ebp], eax
$LN6@LIBMANComm:
  00ab0	8b 45 f4	 mov	 eax, DWORD PTR _cnt$[ebp]
  00ab3	3b 45 c4	 cmp	 eax, DWORD PTR _NrFiles$[ebp]
  00ab6	0f 8d 96 00 00
	00		 jge	 $LN5@LIBMANComm

; 2474 :             res=DragQueryFileW((HANDLE)LParam,cnt,Wstr,250);

  00abc	8b f4		 mov	 esi, esp
  00abe	68 fa 00 00 00	 push	 250			; 000000faH
  00ac3	8d 85 9c f3 ff
	ff		 lea	 eax, DWORD PTR _Wstr$[ebp]
  00ac9	50		 push	 eax
  00aca	8b 4d f4	 mov	 ecx, DWORD PTR _cnt$[ebp]
  00acd	51		 push	 ecx
  00ace	8b 55 10	 mov	 edx, DWORD PTR _LParam$[ebp]
  00ad1	52		 push	 edx
  00ad2	ff 15 00 00 00
	00		 call	 DWORD PTR __imp__DragQueryFileW@16
  00ad8	3b f4		 cmp	 esi, esp
  00ada	e8 00 00 00 00	 call	 __RTC_CheckEsp
  00adf	89 45 d0	 mov	 DWORD PTR _res$[ebp], eax

; 2475 :             UnicodeToUtf8(Wstr,str,MAX_LENGTH_STRING-50);

  00ae2	68 ce 01 00 00	 push	 462			; 000001ceH
  00ae7	8d 85 bc fd ff
	ff		 lea	 eax, DWORD PTR _str$[ebp]
  00aed	50		 push	 eax
  00aee	8d 8d 9c f3 ff
	ff		 lea	 ecx, DWORD PTR _Wstr$[ebp]
  00af4	51		 push	 ecx
  00af5	e8 00 00 00 00	 call	 _UnicodeToUtf8
  00afa	83 c4 0c	 add	 esp, 12			; 0000000cH

; 2476 :             if (cnt==0) {

  00afd	83 7d f4 00	 cmp	 DWORD PTR _cnt$[ebp], 0
  00b01	75 25		 jne	 SHORT $LN66@LIBMANComm

; 2477 :               GetDirFromFileName(Dir,str);

  00b03	8d 85 bc fd ff
	ff		 lea	 eax, DWORD PTR _str$[ebp]
  00b09	50		 push	 eax
  00b0a	8d 8d ac f9 ff
	ff		 lea	 ecx, DWORD PTR _Dir$[ebp]
  00b10	51		 push	 ecx
  00b11	e8 00 00 00 00	 call	 _GetDirFromFileName
  00b16	83 c4 08	 add	 esp, 8

; 2478 :               CopyFileNameToTempMem(Dir);

  00b19	8d 85 ac f9 ff
	ff		 lea	 eax, DWORD PTR _Dir$[ebp]
  00b1f	50		 push	 eax
  00b20	e8 00 00 00 00	 call	 _CopyFileNameToTempMem
  00b25	83 c4 04	 add	 esp, 4
$LN66@LIBMANComm:

; 2479 :             }
; 2480 :             GetFilePartFromFileName(FileName,str);

  00b28	8d 85 bc fd ff
	ff		 lea	 eax, DWORD PTR _str$[ebp]
  00b2e	50		 push	 eax
  00b2f	8d 8d a4 f7 ff
	ff		 lea	 ecx, DWORD PTR _FileName$[ebp]
  00b35	51		 push	 ecx
  00b36	e8 00 00 00 00	 call	 _GetFilePartFromFileName
  00b3b	83 c4 08	 add	 esp, 8

; 2481 :             CopyFileNameToTempMem(FileName);

  00b3e	8d 85 a4 f7 ff
	ff		 lea	 eax, DWORD PTR _FileName$[ebp]
  00b44	50		 push	 eax
  00b45	e8 00 00 00 00	 call	 _CopyFileNameToTempMem
  00b4a	83 c4 04	 add	 esp, 4

; 2482 :           }

  00b4d	e9 55 ff ff ff	 jmp	 $LN4@LIBMANComm
$LN5@LIBMANComm:

; 2483 :           AddSymbols(WParam-WM_DROPFILES_LIST1,0);

  00b52	6a 00		 push	 0
  00b54	8b 45 0c	 mov	 eax, DWORD PTR _WParam$[ebp]
  00b57	2d 52 08 00 00	 sub	 eax, 2130		; 00000852H
  00b5c	50		 push	 eax
  00b5d	e8 00 00 00 00	 call	 _AddSymbols
  00b62	83 c4 08	 add	 esp, 8

; 2484 :           ok=1;

  00b65	c7 05 00 00 00
	00 01 00 00 00	 mov	 DWORD PTR _ok, 1
$LN65@LIBMANComm:

; 2485 :         }
; 2486 :         DragFinish((HANDLE)LParam);

  00b6f	8b f4		 mov	 esi, esp
  00b71	8b 45 10	 mov	 eax, DWORD PTR _LParam$[ebp]
  00b74	50		 push	 eax
  00b75	ff 15 00 00 00
	00		 call	 DWORD PTR __imp__DragFinish@4
  00b7b	3b f4		 cmp	 esi, esp
  00b7d	e8 00 00 00 00	 call	 __RTC_CheckEsp

; 2487 :         res=1;

  00b82	c7 45 d0 01 00
	00 00		 mov	 DWORD PTR _res$[ebp], 1

; 2488 :       } else {

  00b89	eb 30		 jmp	 SHORT $LN64@LIBMANComm
$LN63@LIBMANComm:

; 2489 :         MessageBoxUTF8(LIBMANWindow,SC(8,"No library file open"),SC(9,"Error"),MB_OK);

  00b8b	6a 00		 push	 0
  00b8d	68 00 00 00 00	 push	 OFFSET ??_C@_05NAOIJFC@Error?$AA@
  00b92	6a 09		 push	 9
  00b94	e8 00 00 00 00	 call	 _StringConvert
  00b99	83 c4 08	 add	 esp, 8
  00b9c	50		 push	 eax
  00b9d	68 00 00 00 00	 push	 OFFSET ??_C@_0BF@FBPFCAMF@No?5library?5file?5open?$AA@
  00ba2	6a 08		 push	 8
  00ba4	e8 00 00 00 00	 call	 _StringConvert
  00ba9	83 c4 08	 add	 esp, 8
  00bac	50		 push	 eax
  00bad	a1 00 00 00 00	 mov	 eax, DWORD PTR _LIBMANWindow
  00bb2	50		 push	 eax
  00bb3	e8 00 00 00 00	 call	 _MessageBoxUTF8
  00bb8	83 c4 10	 add	 esp, 16			; 00000010H
$LN64@LIBMANComm:

; 2490 :       }
; 2491 :       break;

  00bbb	eb 2b		 jmp	 SHORT $LN1@LIBMANComm
$LN67@LIBMANComm:

; 2492 : #if 0
; 2493 :     case ID_HELP_CONTENTS:
; 2494 :       Help("contents.htm",0);
; 2495 :       break;
; 2496 : #endif
; 2497 :     case ID_ABOUT:
; 2498 :       res=DialogBox(LIBMANClass.hInstance, MAKEINTRESOURCE(IDD_DIALOG_ABOUT), LIBMANWindow, (DLGPROC)AboutDialogBody);

  00bbd	8b f4		 mov	 esi, esp
  00bbf	6a 00		 push	 0
  00bc1	68 00 00 00 00	 push	 OFFSET _AboutDialogBody@16
  00bc6	a1 00 00 00 00	 mov	 eax, DWORD PTR _LIBMANWindow
  00bcb	50		 push	 eax
  00bcc	68 d1 07 00 00	 push	 2001			; 000007d1H
  00bd1	8b 0d 10 00 00
	00		 mov	 ecx, DWORD PTR _LIBMANClass+16
  00bd7	51		 push	 ecx
  00bd8	ff 15 00 00 00
	00		 call	 DWORD PTR __imp__DialogBoxParamA@20
  00bde	3b f4		 cmp	 esi, esp
  00be0	e8 00 00 00 00	 call	 __RTC_CheckEsp
  00be5	89 45 d0	 mov	 DWORD PTR _res$[ebp], eax
$LN1@LIBMANComm:

; 2499 :       break;
; 2500 :   }
; 2501 : }

  00be8	52		 push	 edx
  00be9	8b cd		 mov	 ecx, ebp
  00beb	50		 push	 eax
  00bec	8d 15 00 00 00
	00		 lea	 edx, DWORD PTR $LN76@LIBMANComm
  00bf2	e8 00 00 00 00	 call	 @_RTC_CheckStackVars@8
  00bf7	58		 pop	 eax
  00bf8	5a		 pop	 edx
  00bf9	5f		 pop	 edi
  00bfa	5e		 pop	 esi
  00bfb	5b		 pop	 ebx
  00bfc	8b 4d fc	 mov	 ecx, DWORD PTR __$ArrayPad$[ebp]
  00bff	33 cd		 xor	 ecx, ebp
  00c01	e8 00 00 00 00	 call	 @__security_check_cookie@4
  00c06	81 c4 ac 11 00
	00		 add	 esp, 4524		; 000011acH
  00c0c	3b ec		 cmp	 ebp, esp
  00c0e	e8 00 00 00 00	 call	 __RTC_CheckEsp
  00c13	8b e5		 mov	 esp, ebp
  00c15	5d		 pop	 ebp
  00c16	c3		 ret	 0
  00c17	90		 npad	 1
$LN76@LIBMANComm:
  00c18	05 00 00 00	 DD	 5
  00c1c	00 00 00 00	 DD	 $LN75@LIBMANComm
$LN75@LIBMANComm:
  00c20	bc fd ff ff	 DD	 -580			; fffffdbcH
  00c24	00 02 00 00	 DD	 512			; 00000200H
  00c28	00 00 00 00	 DD	 $LN70@LIBMANComm
  00c2c	b4 fb ff ff	 DD	 -1100			; fffffbb4H
  00c30	00 02 00 00	 DD	 512			; 00000200H
  00c34	00 00 00 00	 DD	 $LN71@LIBMANComm
  00c38	ac f9 ff ff	 DD	 -1620			; fffff9acH
  00c3c	00 02 00 00	 DD	 512			; 00000200H
  00c40	00 00 00 00	 DD	 $LN72@LIBMANComm
  00c44	a4 f7 ff ff	 DD	 -2140			; fffff7a4H
  00c48	00 02 00 00	 DD	 512			; 00000200H
  00c4c	00 00 00 00	 DD	 $LN73@LIBMANComm
  00c50	9c f3 ff ff	 DD	 -3172			; fffff39cH
  00c54	00 04 00 00	 DD	 1024			; 00000400H
  00c58	00 00 00 00	 DD	 $LN74@LIBMANComm
$LN74@LIBMANComm:
  00c5c	57		 DB	 87			; 00000057H
  00c5d	73		 DB	 115			; 00000073H
  00c5e	74		 DB	 116			; 00000074H
  00c5f	72		 DB	 114			; 00000072H
  00c60	00		 DB	 0
$LN73@LIBMANComm:
  00c61	46		 DB	 70			; 00000046H
  00c62	69		 DB	 105			; 00000069H
  00c63	6c		 DB	 108			; 0000006cH
  00c64	65		 DB	 101			; 00000065H
  00c65	4e		 DB	 78			; 0000004eH
  00c66	61		 DB	 97			; 00000061H
  00c67	6d		 DB	 109			; 0000006dH
  00c68	65		 DB	 101			; 00000065H
  00c69	00		 DB	 0
$LN72@LIBMANComm:
  00c6a	44		 DB	 68			; 00000044H
  00c6b	69		 DB	 105			; 00000069H
  00c6c	72		 DB	 114			; 00000072H
  00c6d	00		 DB	 0
$LN71@LIBMANComm:
  00c6e	73		 DB	 115			; 00000073H
  00c6f	74		 DB	 116			; 00000074H
  00c70	72		 DB	 114			; 00000072H
  00c71	32		 DB	 50			; 00000032H
  00c72	00		 DB	 0
$LN70@LIBMANComm:
  00c73	73		 DB	 115			; 00000073H
  00c74	74		 DB	 116			; 00000074H
  00c75	72		 DB	 114			; 00000072H
  00c76	00		 DB	 0
  00c77	90		 npad	 1
$LN77@LIBMANComm:
  00c78	00 00 00 00	 DD	 $LN67@LIBMANComm
  00c7c	00 00 00 00	 DD	 $LN12@LIBMANComm
  00c80	00 00 00 00	 DD	 $LN13@LIBMANComm
  00c84	00 00 00 00	 DD	 $LN44@LIBMANComm
  00c88	00 00 00 00	 DD	 $LN50@LIBMANComm
  00c8c	00 00 00 00	 DD	 $LN10@LIBMANComm
  00c90	00 00 00 00	 DD	 $LN11@LIBMANComm
  00c94	00 00 00 00	 DD	 $LN32@LIBMANComm
  00c98	00 00 00 00	 DD	 $LN34@LIBMANComm
  00c9c	00 00 00 00	 DD	 $LN36@LIBMANComm
  00ca0	00 00 00 00	 DD	 $LN38@LIBMANComm
  00ca4	00 00 00 00	 DD	 $LN58@LIBMANComm
  00ca8	00 00 00 00	 DD	 $LN59@LIBMANComm
  00cac	00 00 00 00	 DD	 $LN1@LIBMANComm
  00cb0	00 00 00 00	 DD	 $LN22@LIBMANComm
  00cb4	00 00 00 00	 DD	 $LN27@LIBMANComm
  00cb8	00 00 00 00	 DD	 $LN7@LIBMANComm
  00cbc	00 00 00 00	 DD	 $LN1@LIBMANComm
  00cc0	00 00 00 00	 DD	 $LN14@LIBMANComm
  00cc4	00 00 00 00	 DD	 $LN18@LIBMANComm
  00cc8	00 00 00 00	 DD	 $LN1@LIBMANComm
  00ccc	00 00 00 00	 DD	 $LN1@LIBMANComm
  00cd0	00 00 00 00	 DD	 $LN47@LIBMANComm
  00cd4	00 00 00 00	 DD	 $LN53@LIBMANComm
  00cd8	00 00 00 00	 DD	 $LN8@LIBMANComm
  00cdc	00 00 00 00	 DD	 $LN9@LIBMANComm
  00ce0	00 00 00 00	 DD	 $LN56@LIBMANComm
  00ce4	00 00 00 00	 DD	 $LN57@LIBMANComm
  00ce8	00 00 00 00	 DD	 $LN1@LIBMANComm
  00cec	00 00 00 00	 DD	 $LN1@LIBMANComm
  00cf0	00 00 00 00	 DD	 $LN62@LIBMANComm
  00cf4	00 00 00 00	 DD	 $LN62@LIBMANComm
  00cf8	00 00 00 00	 DD	 $LN40@LIBMANComm
  00cfc	00 00 00 00	 DD	 $LN42@LIBMANComm
_LIBMANCommand ENDP
_TEXT	ENDS
; Function compile flags: /Odtp /RTCsu /ZI
; File c:\notes\pcbeleg\software\libman\libman.c
;	COMDAT _Help
_TEXT	SEGMENT
tv64 = -912						; size = 4
_str$ = -520						; size = 512
__$ArrayPad$ = -4					; size = 4
_Topic$ = 8						; size = 4
_mode$ = 12						; size = 4
_Help	PROC						; COMDAT

; 2210 : {

  00000	55		 push	 ebp
  00001	8b ec		 mov	 ebp, esp
  00003	81 ec 90 03 00
	00		 sub	 esp, 912		; 00000390H
  00009	53		 push	 ebx
  0000a	56		 push	 esi
  0000b	57		 push	 edi
  0000c	8d bd 70 fc ff
	ff		 lea	 edi, DWORD PTR [ebp-912]
  00012	b9 e4 00 00 00	 mov	 ecx, 228		; 000000e4H
  00017	b8 cc cc cc cc	 mov	 eax, -858993460		; ccccccccH
  0001c	f3 ab		 rep stosd
  0001e	a1 00 00 00 00	 mov	 eax, DWORD PTR ___security_cookie
  00023	33 c5		 xor	 eax, ebp
  00025	89 45 fc	 mov	 DWORD PTR __$ArrayPad$[ebp], eax

; 2211 :   char  str[MAX_LENGTH_STRING];
; 2212 : 
; 2213 :   sprintf(str,"%s\\libman.chm::/html/%s",ExePath,Topic);

  00028	8b 45 08	 mov	 eax, DWORD PTR _Topic$[ebp]
  0002b	50		 push	 eax
  0002c	68 00 00 00 00	 push	 OFFSET _ExePath
  00031	68 00 00 00 00	 push	 OFFSET ??_C@_0BI@HHHFDOOH@?$CFs?2libman?4chm?3?3?1html?1?$CFs?$AA@
  00036	8d 8d f8 fd ff
	ff		 lea	 ecx, DWORD PTR _str$[ebp]
  0003c	51		 push	 ecx
  0003d	e8 00 00 00 00	 call	 _sprintf
  00042	83 c4 10	 add	 esp, 16			; 00000010H

; 2214 :   switch (mode) {

  00045	8b 45 0c	 mov	 eax, DWORD PTR _mode$[ebp]
  00048	89 85 70 fc ff
	ff		 mov	 DWORD PTR tv64[ebp], eax
  0004e	83 bd 70 fc ff
	ff 00		 cmp	 DWORD PTR tv64[ebp], 0
  00055	74 14		 je	 SHORT $LN4@Help
  00057	83 bd 70 fc ff
	ff 02		 cmp	 DWORD PTR tv64[ebp], 2
  0005e	74 26		 je	 SHORT $LN6@Help
  00060	83 bd 70 fc ff
	ff 03		 cmp	 DWORD PTR tv64[ebp], 3
  00067	74 2c		 je	 SHORT $LN7@Help
  00069	eb 43		 jmp	 SHORT $LN1@Help
$LN4@Help:

; 2215 :     case 0:
; 2216 :       HtmlHelp(LIBMANWindow,(LPCTSTR)str,HH_DISPLAY_TOPIC,0);

  0006b	6a 00		 push	 0
  0006d	6a 00		 push	 0
  0006f	8d 85 f8 fd ff
	ff		 lea	 eax, DWORD PTR _str$[ebp]
  00075	50		 push	 eax
  00076	8b 0d 00 00 00
	00		 mov	 ecx, DWORD PTR _LIBMANWindow
  0007c	51		 push	 ecx
  0007d	e8 00 00 00 00	 call	 _HtmlHelpA@16

; 2217 :       break;

  00082	eb 2a		 jmp	 SHORT $LN1@Help

; 2218 :     case 1:
; 2219 :       break;

  00084	eb 28		 jmp	 SHORT $LN1@Help
$LN6@Help:

; 2220 :     case 2:
; 2221 :       HtmlHelp(0,0,HH_CLOSE_ALL,0);

  00086	6a 00		 push	 0
  00088	6a 12		 push	 18			; 00000012H
  0008a	6a 00		 push	 0
  0008c	6a 00		 push	 0
  0008e	e8 00 00 00 00	 call	 _HtmlHelpA@16

; 2222 :       break;

  00093	eb 19		 jmp	 SHORT $LN1@Help
$LN7@Help:

; 2223 :     case 3:
; 2224 :       HtmlHelp(LIBMANWindow,(LPCTSTR)str,HH_HELP_CONTEXT,(uint32)Topic);

  00095	8b 45 08	 mov	 eax, DWORD PTR _Topic$[ebp]
  00098	50		 push	 eax
  00099	6a 0f		 push	 15			; 0000000fH
  0009b	8d 8d f8 fd ff
	ff		 lea	 ecx, DWORD PTR _str$[ebp]
  000a1	51		 push	 ecx
  000a2	8b 15 00 00 00
	00		 mov	 edx, DWORD PTR _LIBMANWindow
  000a8	52		 push	 edx
  000a9	e8 00 00 00 00	 call	 _HtmlHelpA@16
$LN1@Help:

; 2225 :       break;
; 2226 :   }
; 2227 : }

  000ae	52		 push	 edx
  000af	8b cd		 mov	 ecx, ebp
  000b1	50		 push	 eax
  000b2	8d 15 00 00 00
	00		 lea	 edx, DWORD PTR $LN11@Help
  000b8	e8 00 00 00 00	 call	 @_RTC_CheckStackVars@8
  000bd	58		 pop	 eax
  000be	5a		 pop	 edx
  000bf	5f		 pop	 edi
  000c0	5e		 pop	 esi
  000c1	5b		 pop	 ebx
  000c2	8b 4d fc	 mov	 ecx, DWORD PTR __$ArrayPad$[ebp]
  000c5	33 cd		 xor	 ecx, ebp
  000c7	e8 00 00 00 00	 call	 @__security_check_cookie@4
  000cc	81 c4 90 03 00
	00		 add	 esp, 912		; 00000390H
  000d2	3b ec		 cmp	 ebp, esp
  000d4	e8 00 00 00 00	 call	 __RTC_CheckEsp
  000d9	8b e5		 mov	 esp, ebp
  000db	5d		 pop	 ebp
  000dc	c3		 ret	 0
  000dd	0f 1f 00	 npad	 3
$LN11@Help:
  000e0	01 00 00 00	 DD	 1
  000e4	00 00 00 00	 DD	 $LN10@Help
$LN10@Help:
  000e8	f8 fd ff ff	 DD	 -520			; fffffdf8H
  000ec	00 02 00 00	 DD	 512			; 00000200H
  000f0	00 00 00 00	 DD	 $LN9@Help
$LN9@Help:
  000f4	73		 DB	 115			; 00000073H
  000f5	74		 DB	 116			; 00000074H
  000f6	72		 DB	 114			; 00000072H
  000f7	00		 DB	 0
_Help	ENDP
_TEXT	ENDS
; Function compile flags: /Odtp /RTCsu /ZI
; File c:\notes\pcbeleg\software\libman\libman.c
;	COMDAT _MakeMenu
_TEXT	SEGMENT
_MakeMenu PROC						; COMDAT

; 2184 : {

  00000	55		 push	 ebp
  00001	8b ec		 mov	 ebp, esp
  00003	81 ec c0 00 00
	00		 sub	 esp, 192		; 000000c0H
  00009	53		 push	 ebx
  0000a	56		 push	 esi
  0000b	57		 push	 edi
  0000c	8d bd 40 ff ff
	ff		 lea	 edi, DWORD PTR [ebp-192]
  00012	b9 30 00 00 00	 mov	 ecx, 48			; 00000030H
  00017	b8 cc cc cc cc	 mov	 eax, -858993460		; ccccccccH
  0001c	f3 ab		 rep stosd

; 2185 : 
; 2186 : #define MENU_ID       MF_ENABLED|MF_STRING
; 2187 : 
; 2188 :   LIBMANMenu=CreateMenu();

  0001e	8b f4		 mov	 esi, esp
  00020	ff 15 00 00 00
	00		 call	 DWORD PTR __imp__CreateMenu@0
  00026	3b f4		 cmp	 esi, esp
  00028	e8 00 00 00 00	 call	 __RTC_CheckEsp
  0002d	a3 00 00 00 00	 mov	 DWORD PTR _LIBMANMenu, eax

; 2189 : 
; 2190 : // *****************************************************************************************
; 2191 :   LIBMANMenu1=CreateMenu();

  00032	8b f4		 mov	 esi, esp
  00034	ff 15 00 00 00
	00		 call	 DWORD PTR __imp__CreateMenu@0
  0003a	3b f4		 cmp	 esi, esp
  0003c	e8 00 00 00 00	 call	 __RTC_CheckEsp
  00041	a3 00 00 00 00	 mov	 DWORD PTR _LIBMANMenu1, eax

; 2192 :   AppendMenuUTF8(LIBMANMenu ,MF_ENABLED|MF_POPUP,(UINT)LIBMANMenu1,SC(43,"File"));

  00046	68 00 00 00 00	 push	 OFFSET ??_C@_04PBAHLACE@File?$AA@
  0004b	6a 2b		 push	 43			; 0000002bH
  0004d	e8 00 00 00 00	 call	 _StringConvert
  00052	83 c4 08	 add	 esp, 8
  00055	50		 push	 eax
  00056	a1 00 00 00 00	 mov	 eax, DWORD PTR _LIBMANMenu1
  0005b	50		 push	 eax
  0005c	6a 10		 push	 16			; 00000010H
  0005e	8b 0d 00 00 00
	00		 mov	 ecx, DWORD PTR _LIBMANMenu
  00064	51		 push	 ecx
  00065	e8 00 00 00 00	 call	 _AppendMenuUTF8
  0006a	83 c4 10	 add	 esp, 16			; 00000010H

; 2193 :   AppendMenuUTF8(LIBMANMenu1,MENU_ID,ID_FILE_EXIT                 ,SC(44,"Exit"));

  0006d	68 00 00 00 00	 push	 OFFSET ??_C@_04LBABLPF@Exit?$AA@
  00072	6a 2c		 push	 44			; 0000002cH
  00074	e8 00 00 00 00	 call	 _StringConvert
  00079	83 c4 08	 add	 esp, 8
  0007c	50		 push	 eax
  0007d	68 44 08 00 00	 push	 2116			; 00000844H
  00082	6a 00		 push	 0
  00084	a1 00 00 00 00	 mov	 eax, DWORD PTR _LIBMANMenu1
  00089	50		 push	 eax
  0008a	e8 00 00 00 00	 call	 _AppendMenuUTF8
  0008f	83 c4 10	 add	 esp, 16			; 00000010H

; 2194 : //  AppendMenu(LIBMANMenu ,MENU_ID,ID_HELP                      ,"Help");
; 2195 :   AppendMenuUTF8(LIBMANMenu ,MENU_ID,ID_ABOUT                     ,SC(45,"About"));

  00092	68 00 00 00 00	 push	 OFFSET ??_C@_05BDOHFCKE@About?$AA@
  00097	6a 2d		 push	 45			; 0000002dH
  00099	e8 00 00 00 00	 call	 _StringConvert
  0009e	83 c4 08	 add	 esp, 8
  000a1	50		 push	 eax
  000a2	68 34 08 00 00	 push	 2100			; 00000834H
  000a7	6a 00		 push	 0
  000a9	a1 00 00 00 00	 mov	 eax, DWORD PTR _LIBMANMenu
  000ae	50		 push	 eax
  000af	e8 00 00 00 00	 call	 _AppendMenuUTF8
  000b4	83 c4 10	 add	 esp, 16			; 00000010H

; 2196 :   SetMenu(LIBMANWindow,LIBMANMenu);

  000b7	8b f4		 mov	 esi, esp
  000b9	a1 00 00 00 00	 mov	 eax, DWORD PTR _LIBMANMenu
  000be	50		 push	 eax
  000bf	8b 0d 00 00 00
	00		 mov	 ecx, DWORD PTR _LIBMANWindow
  000c5	51		 push	 ecx
  000c6	ff 15 00 00 00
	00		 call	 DWORD PTR __imp__SetMenu@8
  000cc	3b f4		 cmp	 esi, esp
  000ce	e8 00 00 00 00	 call	 __RTC_CheckEsp

; 2197 :   return 0;

  000d3	33 c0		 xor	 eax, eax

; 2198 : }

  000d5	5f		 pop	 edi
  000d6	5e		 pop	 esi
  000d7	5b		 pop	 ebx
  000d8	81 c4 c0 00 00
	00		 add	 esp, 192		; 000000c0H
  000de	3b ec		 cmp	 ebp, esp
  000e0	e8 00 00 00 00	 call	 __RTC_CheckEsp
  000e5	8b e5		 mov	 esp, ebp
  000e7	5d		 pop	 ebp
  000e8	c3		 ret	 0
_MakeMenu ENDP
_TEXT	ENDS
; Function compile flags: /Odtp /RTCsu /ZI
; File c:\notes\pcbeleg\software\libman\libman.c
;	COMDAT _CreateWindowObjects
_TEXT	SEGMENT
_Wstr$ = -1068						; size = 1024
_NewRect$ = -36						; size = 16
_res$ = -12						; size = 4
__$ArrayPad$ = -4					; size = 4
_hInstance$ = 8						; size = 4
_CreateWindowObjects PROC				; COMDAT

; 1896 : {

  00000	55		 push	 ebp
  00001	8b ec		 mov	 ebp, esp
  00003	81 ec 70 06 00
	00		 sub	 esp, 1648		; 00000670H
  00009	53		 push	 ebx
  0000a	56		 push	 esi
  0000b	57		 push	 edi
  0000c	8d bd 90 f9 ff
	ff		 lea	 edi, DWORD PTR [ebp-1648]
  00012	b9 9c 01 00 00	 mov	 ecx, 412		; 0000019cH
  00017	b8 cc cc cc cc	 mov	 eax, -858993460		; ccccccccH
  0001c	f3 ab		 rep stosd
  0001e	a1 00 00 00 00	 mov	 eax, DWORD PTR ___security_cookie
  00023	33 c5		 xor	 eax, ebp
  00025	89 45 fc	 mov	 DWORD PTR __$ArrayPad$[ebp], eax

; 1897 :   int32 res;
; 1898 :   RECT  NewRect;
; 1899 :   WCHAR Wstr[MAX_LENGTH_STRING];
; 1900 : 
; 1901 :   RectListWindow1.left=10;

  00028	c7 05 00 00 00
	00 0a 00 00 00	 mov	 DWORD PTR _RectListWindow1, 10 ; 0000000aH

; 1902 :   RectListWindow1.top=40;

  00032	c7 05 04 00 00
	00 28 00 00 00	 mov	 DWORD PTR _RectListWindow1+4, 40 ; 00000028H

; 1903 :   RectListWindow1.right=ListWindowWidth+RectListWindow1.left;

  0003c	a1 00 00 00 00	 mov	 eax, DWORD PTR _ListWindowWidth
  00041	03 05 00 00 00
	00		 add	 eax, DWORD PTR _RectListWindow1
  00047	a3 08 00 00 00	 mov	 DWORD PTR _RectListWindow1+8, eax

; 1904 :   RectListWindow1.bottom=ListWindowHeight+RectListWindow1.top;

  0004c	a1 00 00 00 00	 mov	 eax, DWORD PTR _ListWindowHeight
  00051	03 05 04 00 00
	00		 add	 eax, DWORD PTR _RectListWindow1+4
  00057	a3 0c 00 00 00	 mov	 DWORD PTR _RectListWindow1+12, eax

; 1905 : 
; 1906 :   ListWindow1 = CreateWindowExW(WS_EX_ACCEPTFILES,

  0005c	8b f4		 mov	 esi, esp
  0005e	6a 00		 push	 0
  00060	8b 45 08	 mov	 eax, DWORD PTR _hInstance$[ebp]
  00063	50		 push	 eax
  00064	68 48 08 00 00	 push	 2120			; 00000848H
  00069	8b 0d 00 00 00
	00		 mov	 ecx, DWORD PTR _LIBMANWindow
  0006f	51		 push	 ecx
  00070	8b 15 00 00 00
	00		 mov	 edx, DWORD PTR _ListWindowHeight
  00076	52		 push	 edx
  00077	a1 00 00 00 00	 mov	 eax, DWORD PTR _ListWindowWidth
  0007c	50		 push	 eax
  0007d	8b 0d 04 00 00
	00		 mov	 ecx, DWORD PTR _RectListWindow1+4
  00083	51		 push	 ecx
  00084	8b 15 00 00 00
	00		 mov	 edx, DWORD PTR _RectListWindow1
  0008a	52		 push	 edx
  0008b	68 03 18 a4 40	 push	 1084495875		; 40a41803H
  00090	68 00 00 00 00	 push	 OFFSET ??_C@_11LOCGONAA@?$AA?$AA@
  00095	68 00 00 00 00	 push	 OFFSET ??_C@_1BA@BFOCGNID@?$AAL?$AAI?$AAS?$AAT?$AAB?$AAO?$AAX?$AA?$AA@
  0009a	6a 10		 push	 16			; 00000010H
  0009c	ff 15 00 00 00
	00		 call	 DWORD PTR __imp__CreateWindowExW@48
  000a2	3b f4		 cmp	 esi, esp
  000a4	e8 00 00 00 00	 call	 __RTC_CheckEsp
  000a9	a3 00 00 00 00	 mov	 DWORD PTR _ListWindow1, eax

; 1907 :                                L"LISTBOX",
; 1908 :                                L"",
; 1909 :                                WS_CHILD|WS_BORDER|LBS_SORT|LBS_NOTIFY|WS_VSCROLL|
; 1910 :                                WS_THICKFRAME|
; 1911 : //                               LBS_MULTIPLESEL|
; 1912 :                                LBS_EXTENDEDSEL|
; 1913 :                                LBS_DISABLENOSCROLL,
; 1914 : // LBS_WANTKEYBOARDINPUT
; 1915 :                                RectListWindow1.left,
; 1916 :                                RectListWindow1.top,
; 1917 :                                ListWindowWidth,
; 1918 :                                ListWindowHeight,
; 1919 :                                LIBMANWindow,
; 1920 :                                (HMENU)ID_LIST1,
; 1921 :                                hInstance,
; 1922 :                                NULL);
; 1923 : 
; 1924 : 
; 1925 : //  res=SendMessageUTF8(ListWindow1,LB_ADDSTRING,0,(LPARAM)"totx173__");
; 1926 : 
; 1927 :   ShowWindow(ListWindow1,SW_SHOW);

  000ae	8b f4		 mov	 esi, esp
  000b0	6a 05		 push	 5
  000b2	a1 00 00 00 00	 mov	 eax, DWORD PTR _ListWindow1
  000b7	50		 push	 eax
  000b8	ff 15 00 00 00
	00		 call	 DWORD PTR __imp__ShowWindow@8
  000be	3b f4		 cmp	 esi, esp
  000c0	e8 00 00 00 00	 call	 __RTC_CheckEsp

; 1928 :   GetClientRect(ListWindow1,&NewRect);

  000c5	8b f4		 mov	 esi, esp
  000c7	8d 45 dc	 lea	 eax, DWORD PTR _NewRect$[ebp]
  000ca	50		 push	 eax
  000cb	8b 0d 00 00 00
	00		 mov	 ecx, DWORD PTR _ListWindow1
  000d1	51		 push	 ecx
  000d2	ff 15 00 00 00
	00		 call	 DWORD PTR __imp__GetClientRect@8
  000d8	3b f4		 cmp	 esi, esp
  000da	e8 00 00 00 00	 call	 __RTC_CheckEsp

; 1929 :   RectListWindow1.right=NewRect.right-NewRect.left+RectListWindow1.left;

  000df	8b 45 e4	 mov	 eax, DWORD PTR _NewRect$[ebp+8]
  000e2	2b 45 dc	 sub	 eax, DWORD PTR _NewRect$[ebp]
  000e5	03 05 00 00 00
	00		 add	 eax, DWORD PTR _RectListWindow1
  000eb	a3 08 00 00 00	 mov	 DWORD PTR _RectListWindow1+8, eax

; 1930 :   RectListWindow1.bottom=NewRect.bottom-NewRect.top+RectListWindow1.top;

  000f0	8b 45 e8	 mov	 eax, DWORD PTR _NewRect$[ebp+12]
  000f3	2b 45 e0	 sub	 eax, DWORD PTR _NewRect$[ebp+4]
  000f6	03 05 04 00 00
	00		 add	 eax, DWORD PTR _RectListWindow1+4
  000fc	a3 0c 00 00 00	 mov	 DWORD PTR _RectListWindow1+12, eax

; 1931 : 
; 1932 :   RectListWindow2.left=ListWindowWidth+ButtonSizeX+40;

  00101	a1 00 00 00 00	 mov	 eax, DWORD PTR _ButtonSizeX
  00106	8b 0d 00 00 00
	00		 mov	 ecx, DWORD PTR _ListWindowWidth
  0010c	8d 54 01 28	 lea	 edx, DWORD PTR [ecx+eax+40]
  00110	89 15 00 00 00
	00		 mov	 DWORD PTR _RectListWindow2, edx

; 1933 : //  RectListWindow2.left=460;
; 1934 :   RectListWindow2.top=40;

  00116	c7 05 04 00 00
	00 28 00 00 00	 mov	 DWORD PTR _RectListWindow2+4, 40 ; 00000028H

; 1935 :   RectListWindow2.right=ListWindowWidth+RectListWindow1.left;

  00120	a1 00 00 00 00	 mov	 eax, DWORD PTR _ListWindowWidth
  00125	03 05 00 00 00
	00		 add	 eax, DWORD PTR _RectListWindow1
  0012b	a3 08 00 00 00	 mov	 DWORD PTR _RectListWindow2+8, eax

; 1936 :   RectListWindow2.bottom=ListWindowHeight+RectListWindow1.top;

  00130	a1 00 00 00 00	 mov	 eax, DWORD PTR _ListWindowHeight
  00135	03 05 04 00 00
	00		 add	 eax, DWORD PTR _RectListWindow1+4
  0013b	a3 0c 00 00 00	 mov	 DWORD PTR _RectListWindow2+12, eax

; 1937 :   ListWindow2 = CreateWindowExW(WS_EX_ACCEPTFILES,

  00140	8b f4		 mov	 esi, esp
  00142	6a 00		 push	 0
  00144	8b 45 08	 mov	 eax, DWORD PTR _hInstance$[ebp]
  00147	50		 push	 eax
  00148	68 49 08 00 00	 push	 2121			; 00000849H
  0014d	8b 0d 00 00 00
	00		 mov	 ecx, DWORD PTR _LIBMANWindow
  00153	51		 push	 ecx
  00154	8b 15 00 00 00
	00		 mov	 edx, DWORD PTR _ListWindowHeight
  0015a	52		 push	 edx
  0015b	a1 00 00 00 00	 mov	 eax, DWORD PTR _ListWindowWidth
  00160	50		 push	 eax
  00161	8b 0d 04 00 00
	00		 mov	 ecx, DWORD PTR _RectListWindow2+4
  00167	51		 push	 ecx
  00168	8b 15 00 00 00
	00		 mov	 edx, DWORD PTR _RectListWindow2
  0016e	52		 push	 edx
  0016f	68 03 18 a4 40	 push	 1084495875		; 40a41803H
  00174	68 00 00 00 00	 push	 OFFSET ??_C@_19GAFEELMN@?$AAL?$AAI?$AAS?$AAT?$AA?$AA@
  00179	68 00 00 00 00	 push	 OFFSET ??_C@_1BA@BFOCGNID@?$AAL?$AAI?$AAS?$AAT?$AAB?$AAO?$AAX?$AA?$AA@
  0017e	6a 10		 push	 16			; 00000010H
  00180	ff 15 00 00 00
	00		 call	 DWORD PTR __imp__CreateWindowExW@48
  00186	3b f4		 cmp	 esi, esp
  00188	e8 00 00 00 00	 call	 __RTC_CheckEsp
  0018d	a3 00 00 00 00	 mov	 DWORD PTR _ListWindow2, eax

; 1938 :                                L"LISTBOX",
; 1939 :                                L"LIST",
; 1940 :                                WS_CHILD|WS_BORDER|LBS_SORT|LBS_NOTIFY|WS_VSCROLL|
; 1941 :                                WS_THICKFRAME|
; 1942 : //                               LBS_MULTIPLESEL|
; 1943 :                                LBS_EXTENDEDSEL|
; 1944 :                                LBS_DISABLENOSCROLL,
; 1945 :                                RectListWindow2.left,
; 1946 :                                RectListWindow2.top,
; 1947 :                                ListWindowWidth,
; 1948 :                                ListWindowHeight,
; 1949 :                                LIBMANWindow,
; 1950 :                                (HMENU)ID_LIST2,
; 1951 :                                hInstance,
; 1952 :                                NULL);
; 1953 :   ShowWindow(ListWindow2,SW_SHOW);

  00192	8b f4		 mov	 esi, esp
  00194	6a 05		 push	 5
  00196	a1 00 00 00 00	 mov	 eax, DWORD PTR _ListWindow2
  0019b	50		 push	 eax
  0019c	ff 15 00 00 00
	00		 call	 DWORD PTR __imp__ShowWindow@8
  001a2	3b f4		 cmp	 esi, esp
  001a4	e8 00 00 00 00	 call	 __RTC_CheckEsp

; 1954 :   GetClientRect(ListWindow2,&NewRect);

  001a9	8b f4		 mov	 esi, esp
  001ab	8d 45 dc	 lea	 eax, DWORD PTR _NewRect$[ebp]
  001ae	50		 push	 eax
  001af	8b 0d 00 00 00
	00		 mov	 ecx, DWORD PTR _ListWindow2
  001b5	51		 push	 ecx
  001b6	ff 15 00 00 00
	00		 call	 DWORD PTR __imp__GetClientRect@8
  001bc	3b f4		 cmp	 esi, esp
  001be	e8 00 00 00 00	 call	 __RTC_CheckEsp

; 1955 :   RectListWindow2.right=NewRect.right-NewRect.left+RectListWindow2.left;

  001c3	8b 45 e4	 mov	 eax, DWORD PTR _NewRect$[ebp+8]
  001c6	2b 45 dc	 sub	 eax, DWORD PTR _NewRect$[ebp]
  001c9	03 05 00 00 00
	00		 add	 eax, DWORD PTR _RectListWindow2
  001cf	a3 08 00 00 00	 mov	 DWORD PTR _RectListWindow2+8, eax

; 1956 :   RectListWindow2.bottom=NewRect.bottom-NewRect.top+RectListWindow2.top;

  001d4	8b 45 e8	 mov	 eax, DWORD PTR _NewRect$[ebp+12]
  001d7	2b 45 e0	 sub	 eax, DWORD PTR _NewRect$[ebp+4]
  001da	03 05 04 00 00
	00		 add	 eax, DWORD PTR _RectListWindow2+4
  001e0	a3 0c 00 00 00	 mov	 DWORD PTR _RectListWindow2+12, eax

; 1957 : //  Utf8ToUnicode("New lib ",Wstr,200);
; 1958 :   Utf8ToUnicode(SC(32,"New lib"),Wstr,200);

  001e5	68 c8 00 00 00	 push	 200			; 000000c8H
  001ea	8d 85 d4 fb ff
	ff		 lea	 eax, DWORD PTR _Wstr$[ebp]
  001f0	50		 push	 eax
  001f1	68 00 00 00 00	 push	 OFFSET ??_C@_07MJJPDAEH@New?5lib?$AA@
  001f6	6a 20		 push	 32			; 00000020H
  001f8	e8 00 00 00 00	 call	 _StringConvert
  001fd	83 c4 08	 add	 esp, 8
  00200	50		 push	 eax
  00201	e8 00 00 00 00	 call	 _Utf8ToUnicode
  00206	83 c4 0c	 add	 esp, 12			; 0000000cH

; 1959 :   CreateNewLibButton1 = CreateWindowW(L"BUTTON",Wstr,WS_CHILD,

  00209	8b f4		 mov	 esi, esp
  0020b	6a 00		 push	 0
  0020d	8b 45 08	 mov	 eax, DWORD PTR _hInstance$[ebp]
  00210	50		 push	 eax
  00211	68 39 08 00 00	 push	 2105			; 00000839H
  00216	8b 0d 00 00 00
	00		 mov	 ecx, DWORD PTR _LIBMANWindow
  0021c	51		 push	 ecx
  0021d	8b 15 00 00 00
	00		 mov	 edx, DWORD PTR _ButtonSizeY
  00223	52		 push	 edx
  00224	a1 00 00 00 00	 mov	 eax, DWORD PTR _ButtonSizeX
  00229	50		 push	 eax
  0022a	8b 0d 0c 00 00
	00		 mov	 ecx, DWORD PTR _RectListWindow1+12
  00230	83 c1 0e	 add	 ecx, 14			; 0000000eH
  00233	51		 push	 ecx
  00234	6b 15 00 00 00
	00 00		 imul	 edx, DWORD PTR _ButtonStepX, 0
  0023b	03 15 00 00 00
	00		 add	 edx, DWORD PTR _RectListWindow1
  00241	52		 push	 edx
  00242	68 00 00 00 40	 push	 1073741824		; 40000000H
  00247	8d 85 d4 fb ff
	ff		 lea	 eax, DWORD PTR _Wstr$[ebp]
  0024d	50		 push	 eax
  0024e	68 00 00 00 00	 push	 OFFSET ??_C@_1O@MOBNNEMB@?$AAB?$AAU?$AAT?$AAT?$AAO?$AAN?$AA?$AA@
  00253	6a 00		 push	 0
  00255	ff 15 00 00 00
	00		 call	 DWORD PTR __imp__CreateWindowExW@48
  0025b	3b f4		 cmp	 esi, esp
  0025d	e8 00 00 00 00	 call	 __RTC_CheckEsp
  00262	a3 00 00 00 00	 mov	 DWORD PTR _CreateNewLibButton1, eax

; 1960 :                                      RectListWindow1.left+ButtonStepX*0,RectListWindow1.bottom+14,
; 1961 :                                      ButtonSizeX,ButtonSizeY,
; 1962 :                                      LIBMANWindow,(HMENU)ID_CREATE_LIB1,hInstance,NULL);
; 1963 : 
; 1964 :   ShowWindow(CreateNewLibButton1,SW_SHOW);

  00267	8b f4		 mov	 esi, esp
  00269	6a 05		 push	 5
  0026b	a1 00 00 00 00	 mov	 eax, DWORD PTR _CreateNewLibButton1
  00270	50		 push	 eax
  00271	ff 15 00 00 00
	00		 call	 DWORD PTR __imp__ShowWindow@8
  00277	3b f4		 cmp	 esi, esp
  00279	e8 00 00 00 00	 call	 __RTC_CheckEsp

; 1965 :   Utf8ToUnicode(SC(33,"Open lib"),Wstr,200);

  0027e	68 c8 00 00 00	 push	 200			; 000000c8H
  00283	8d 85 d4 fb ff
	ff		 lea	 eax, DWORD PTR _Wstr$[ebp]
  00289	50		 push	 eax
  0028a	68 00 00 00 00	 push	 OFFSET ??_C@_08PPABCFEK@Open?5lib?$AA@
  0028f	6a 21		 push	 33			; 00000021H
  00291	e8 00 00 00 00	 call	 _StringConvert
  00296	83 c4 08	 add	 esp, 8
  00299	50		 push	 eax
  0029a	e8 00 00 00 00	 call	 _Utf8ToUnicode
  0029f	83 c4 0c	 add	 esp, 12			; 0000000cH

; 1966 :   OpenLibButton1 = CreateWindowW(L"BUTTON",Wstr,WS_CHILD,

  002a2	8b f4		 mov	 esi, esp
  002a4	6a 00		 push	 0
  002a6	8b 45 08	 mov	 eax, DWORD PTR _hInstance$[ebp]
  002a9	50		 push	 eax
  002aa	68 4c 08 00 00	 push	 2124			; 0000084cH
  002af	8b 0d 00 00 00
	00		 mov	 ecx, DWORD PTR _LIBMANWindow
  002b5	51		 push	 ecx
  002b6	8b 15 00 00 00
	00		 mov	 edx, DWORD PTR _ButtonSizeY
  002bc	52		 push	 edx
  002bd	a1 00 00 00 00	 mov	 eax, DWORD PTR _ButtonSizeX
  002c2	50		 push	 eax
  002c3	8b 0d 0c 00 00
	00		 mov	 ecx, DWORD PTR _RectListWindow1+12
  002c9	83 c1 0e	 add	 ecx, 14			; 0000000eH
  002cc	51		 push	 ecx
  002cd	8b 15 00 00 00
	00		 mov	 edx, DWORD PTR _RectListWindow1
  002d3	03 15 00 00 00
	00		 add	 edx, DWORD PTR _ButtonStepX
  002d9	52		 push	 edx
  002da	68 00 00 00 40	 push	 1073741824		; 40000000H
  002df	8d 85 d4 fb ff
	ff		 lea	 eax, DWORD PTR _Wstr$[ebp]
  002e5	50		 push	 eax
  002e6	68 00 00 00 00	 push	 OFFSET ??_C@_1O@MOBNNEMB@?$AAB?$AAU?$AAT?$AAT?$AAO?$AAN?$AA?$AA@
  002eb	6a 00		 push	 0
  002ed	ff 15 00 00 00
	00		 call	 DWORD PTR __imp__CreateWindowExW@48
  002f3	3b f4		 cmp	 esi, esp
  002f5	e8 00 00 00 00	 call	 __RTC_CheckEsp
  002fa	a3 00 00 00 00	 mov	 DWORD PTR _OpenLibButton1, eax

; 1967 :                                 RectListWindow1.left+ButtonStepX,RectListWindow1.bottom+14,
; 1968 :                                 ButtonSizeX,ButtonSizeY,
; 1969 :                                 LIBMANWindow,(HMENU)ID_OPEN_LIB1,hInstance,NULL);
; 1970 :   ShowWindow(OpenLibButton1,SW_SHOW);

  002ff	8b f4		 mov	 esi, esp
  00301	6a 05		 push	 5
  00303	a1 00 00 00 00	 mov	 eax, DWORD PTR _OpenLibButton1
  00308	50		 push	 eax
  00309	ff 15 00 00 00
	00		 call	 DWORD PTR __imp__ShowWindow@8
  0030f	3b f4		 cmp	 esi, esp
  00311	e8 00 00 00 00	 call	 __RTC_CheckEsp

; 1971 : /*
; 1972 :   SaveLibButton1 = CreateWindow(L"BUTTON","Save lib",WS_CHILD,
; 1973 :                                 RectListWindow1.left+ButtonStepX*2,RectListWindow1.bottom+10,
; 1974 :                                 ButtonSizeX,ButtonSizeY,
; 1975 :                                 LIBMANWindow,(HMENU)ID_SAVE_LIB1,hInstance,NULL);
; 1976 :   ShowWindow(SaveLibButton1,SW_SHOW);
; 1977 : */
; 1978 :   Utf8ToUnicode(SC(34,"Close lib"),Wstr,200);

  00316	68 c8 00 00 00	 push	 200			; 000000c8H
  0031b	8d 85 d4 fb ff
	ff		 lea	 eax, DWORD PTR _Wstr$[ebp]
  00321	50		 push	 eax
  00322	68 00 00 00 00	 push	 OFFSET ??_C@_09PPCBCBOH@Close?5lib?$AA@
  00327	6a 22		 push	 34			; 00000022H
  00329	e8 00 00 00 00	 call	 _StringConvert
  0032e	83 c4 08	 add	 esp, 8
  00331	50		 push	 eax
  00332	e8 00 00 00 00	 call	 _Utf8ToUnicode
  00337	83 c4 0c	 add	 esp, 12			; 0000000cH

; 1979 :   CloseLibButton1 = CreateWindowW(L"BUTTON",Wstr,WS_CHILD,

  0033a	8b f4		 mov	 esi, esp
  0033c	6a 00		 push	 0
  0033e	8b 45 08	 mov	 eax, DWORD PTR _hInstance$[ebp]
  00341	50		 push	 eax
  00342	68 35 08 00 00	 push	 2101			; 00000835H
  00347	8b 0d 00 00 00
	00		 mov	 ecx, DWORD PTR _LIBMANWindow
  0034d	51		 push	 ecx
  0034e	8b 15 00 00 00
	00		 mov	 edx, DWORD PTR _ButtonSizeY
  00354	52		 push	 edx
  00355	a1 00 00 00 00	 mov	 eax, DWORD PTR _ButtonSizeX
  0035a	50		 push	 eax
  0035b	8b 0d 0c 00 00
	00		 mov	 ecx, DWORD PTR _RectListWindow1+12
  00361	83 c1 0e	 add	 ecx, 14			; 0000000eH
  00364	51		 push	 ecx
  00365	8b 15 00 00 00
	00		 mov	 edx, DWORD PTR _ButtonStepX
  0036b	a1 00 00 00 00	 mov	 eax, DWORD PTR _RectListWindow1
  00370	8d 0c 50	 lea	 ecx, DWORD PTR [eax+edx*2]
  00373	51		 push	 ecx
  00374	68 00 00 00 40	 push	 1073741824		; 40000000H
  00379	8d 95 d4 fb ff
	ff		 lea	 edx, DWORD PTR _Wstr$[ebp]
  0037f	52		 push	 edx
  00380	68 00 00 00 00	 push	 OFFSET ??_C@_1O@MOBNNEMB@?$AAB?$AAU?$AAT?$AAT?$AAO?$AAN?$AA?$AA@
  00385	6a 00		 push	 0
  00387	ff 15 00 00 00
	00		 call	 DWORD PTR __imp__CreateWindowExW@48
  0038d	3b f4		 cmp	 esi, esp
  0038f	e8 00 00 00 00	 call	 __RTC_CheckEsp
  00394	a3 00 00 00 00	 mov	 DWORD PTR _CloseLibButton1, eax

; 1980 :                                  RectListWindow1.left+ButtonStepX*2,RectListWindow1.bottom+14,
; 1981 :                                  ButtonSizeX,ButtonSizeY,
; 1982 :                                  LIBMANWindow,(HMENU)ID_CLOSE_LIB1,hInstance,NULL);
; 1983 :   ShowWindow(CloseLibButton1,SW_SHOW);

  00399	8b f4		 mov	 esi, esp
  0039b	6a 05		 push	 5
  0039d	a1 00 00 00 00	 mov	 eax, DWORD PTR _CloseLibButton1
  003a2	50		 push	 eax
  003a3	ff 15 00 00 00
	00		 call	 DWORD PTR __imp__ShowWindow@8
  003a9	3b f4		 cmp	 esi, esp
  003ab	e8 00 00 00 00	 call	 __RTC_CheckEsp

; 1984 :   if (LibraryMode==0) {

  003b0	83 3d 00 00 00
	00 00		 cmp	 DWORD PTR _LibraryMode, 0
  003b7	0f 85 46 01 00
	00		 jne	 $LN2@CreateWind

; 1985 :     Utf8ToUnicode(SC(35,"Import symbols"),Wstr,200);

  003bd	68 c8 00 00 00	 push	 200			; 000000c8H
  003c2	8d 85 d4 fb ff
	ff		 lea	 eax, DWORD PTR _Wstr$[ebp]
  003c8	50		 push	 eax
  003c9	68 00 00 00 00	 push	 OFFSET ??_C@_0P@LOIAGIPA@Import?5symbols?$AA@
  003ce	6a 23		 push	 35			; 00000023H
  003d0	e8 00 00 00 00	 call	 _StringConvert
  003d5	83 c4 08	 add	 esp, 8
  003d8	50		 push	 eax
  003d9	e8 00 00 00 00	 call	 _Utf8ToUnicode
  003de	83 c4 0c	 add	 esp, 12			; 0000000cH

; 1986 :     ImportSymbolsButton1 = CreateWindowW(L"BUTTON",Wstr,WS_CHILD,

  003e1	8b f4		 mov	 esi, esp
  003e3	6a 00		 push	 0
  003e5	8b 45 08	 mov	 eax, DWORD PTR _hInstance$[ebp]
  003e8	50		 push	 eax
  003e9	68 46 08 00 00	 push	 2118			; 00000846H
  003ee	8b 0d 00 00 00
	00		 mov	 ecx, DWORD PTR _LIBMANWindow
  003f4	51		 push	 ecx
  003f5	8b 15 00 00 00
	00		 mov	 edx, DWORD PTR _ButtonSizeY
  003fb	52		 push	 edx
  003fc	a1 00 00 00 00	 mov	 eax, DWORD PTR _ButtonSizeX
  00401	50		 push	 eax
  00402	8b 0d 00 00 00
	00		 mov	 ecx, DWORD PTR _ButtonStepY
  00408	8b 15 0c 00 00
	00		 mov	 edx, DWORD PTR _RectListWindow1+12
  0040e	8d 44 0a 0e	 lea	 eax, DWORD PTR [edx+ecx+14]
  00412	50		 push	 eax
  00413	8b 0d 00 00 00
	00		 mov	 ecx, DWORD PTR _RectListWindow1
  00419	03 0d 00 00 00
	00		 add	 ecx, DWORD PTR _ButtonStepX
  0041f	51		 push	 ecx
  00420	68 00 00 00 40	 push	 1073741824		; 40000000H
  00425	8d 95 d4 fb ff
	ff		 lea	 edx, DWORD PTR _Wstr$[ebp]
  0042b	52		 push	 edx
  0042c	68 00 00 00 00	 push	 OFFSET ??_C@_1O@MOBNNEMB@?$AAB?$AAU?$AAT?$AAT?$AAO?$AAN?$AA?$AA@
  00431	6a 00		 push	 0
  00433	ff 15 00 00 00
	00		 call	 DWORD PTR __imp__CreateWindowExW@48
  00439	3b f4		 cmp	 esi, esp
  0043b	e8 00 00 00 00	 call	 __RTC_CheckEsp
  00440	a3 00 00 00 00	 mov	 DWORD PTR _ImportSymbolsButton1, eax

; 1987 :                                         RectListWindow1.left+ButtonStepX*1,RectListWindow1.bottom+ButtonStepY+14,
; 1988 :                                         ButtonSizeX,ButtonSizeY,
; 1989 :                                         LIBMANWindow,(HMENU)ID_IMPORT_SYMBOLS1,hInstance,NULL);
; 1990 :     ShowWindow(ImportSymbolsButton1,SW_SHOW);

  00445	8b f4		 mov	 esi, esp
  00447	6a 05		 push	 5
  00449	a1 00 00 00 00	 mov	 eax, DWORD PTR _ImportSymbolsButton1
  0044e	50		 push	 eax
  0044f	ff 15 00 00 00
	00		 call	 DWORD PTR __imp__ShowWindow@8
  00455	3b f4		 cmp	 esi, esp
  00457	e8 00 00 00 00	 call	 __RTC_CheckEsp

; 1991 :     Utf8ToUnicode(SC(36,"Export symbols"),Wstr,200);

  0045c	68 c8 00 00 00	 push	 200			; 000000c8H
  00461	8d 85 d4 fb ff
	ff		 lea	 eax, DWORD PTR _Wstr$[ebp]
  00467	50		 push	 eax
  00468	68 00 00 00 00	 push	 OFFSET ??_C@_0P@BJGEJDBF@Export?5symbols?$AA@
  0046d	6a 24		 push	 36			; 00000024H
  0046f	e8 00 00 00 00	 call	 _StringConvert
  00474	83 c4 08	 add	 esp, 8
  00477	50		 push	 eax
  00478	e8 00 00 00 00	 call	 _Utf8ToUnicode
  0047d	83 c4 0c	 add	 esp, 12			; 0000000cH

; 1992 :     ExportSymbolsButton1 = CreateWindowW(L"BUTTON",Wstr,WS_CHILD,

  00480	8b f4		 mov	 esi, esp
  00482	6a 00		 push	 0
  00484	8b 45 08	 mov	 eax, DWORD PTR _hInstance$[ebp]
  00487	50		 push	 eax
  00488	68 42 08 00 00	 push	 2114			; 00000842H
  0048d	8b 0d 00 00 00
	00		 mov	 ecx, DWORD PTR _LIBMANWindow
  00493	51		 push	 ecx
  00494	8b 15 00 00 00
	00		 mov	 edx, DWORD PTR _ButtonSizeY
  0049a	52		 push	 edx
  0049b	a1 00 00 00 00	 mov	 eax, DWORD PTR _ButtonSizeX
  004a0	50		 push	 eax
  004a1	8b 0d 00 00 00
	00		 mov	 ecx, DWORD PTR _ButtonStepY
  004a7	8b 15 0c 00 00
	00		 mov	 edx, DWORD PTR _RectListWindow1+12
  004ad	8d 44 0a 0e	 lea	 eax, DWORD PTR [edx+ecx+14]
  004b1	50		 push	 eax
  004b2	8b 0d 00 00 00
	00		 mov	 ecx, DWORD PTR _ButtonStepX
  004b8	8b 15 00 00 00
	00		 mov	 edx, DWORD PTR _RectListWindow1
  004be	8d 04 4a	 lea	 eax, DWORD PTR [edx+ecx*2]
  004c1	50		 push	 eax
  004c2	68 00 00 00 40	 push	 1073741824		; 40000000H
  004c7	8d 8d d4 fb ff
	ff		 lea	 ecx, DWORD PTR _Wstr$[ebp]
  004cd	51		 push	 ecx
  004ce	68 00 00 00 00	 push	 OFFSET ??_C@_1O@MOBNNEMB@?$AAB?$AAU?$AAT?$AAT?$AAO?$AAN?$AA?$AA@
  004d3	6a 00		 push	 0
  004d5	ff 15 00 00 00
	00		 call	 DWORD PTR __imp__CreateWindowExW@48
  004db	3b f4		 cmp	 esi, esp
  004dd	e8 00 00 00 00	 call	 __RTC_CheckEsp
  004e2	a3 00 00 00 00	 mov	 DWORD PTR _ExportSymbolsButton1, eax

; 1993 :                                         RectListWindow1.left+ButtonStepX*2,RectListWindow1.bottom+ButtonStepY+14,
; 1994 :                                         ButtonSizeX,ButtonSizeY,
; 1995 :                                         LIBMANWindow,(HMENU)ID_EXPORT_SYMBOLS1,hInstance,NULL);
; 1996 :     ShowWindow(ExportSymbolsButton1,SW_SHOW);

  004e7	8b f4		 mov	 esi, esp
  004e9	6a 05		 push	 5
  004eb	a1 00 00 00 00	 mov	 eax, DWORD PTR _ExportSymbolsButton1
  004f0	50		 push	 eax
  004f1	ff 15 00 00 00
	00		 call	 DWORD PTR __imp__ShowWindow@8
  004f7	3b f4		 cmp	 esi, esp
  004f9	e8 00 00 00 00	 call	 __RTC_CheckEsp

; 1997 :   } else {

  004fe	e9 41 01 00 00	 jmp	 $LN3@CreateWind
$LN2@CreateWind:

; 1998 :     Utf8ToUnicode(SC(52,"Import geometries"),Wstr,200);

  00503	68 c8 00 00 00	 push	 200			; 000000c8H
  00508	8d 85 d4 fb ff
	ff		 lea	 eax, DWORD PTR _Wstr$[ebp]
  0050e	50		 push	 eax
  0050f	68 00 00 00 00	 push	 OFFSET ??_C@_0BC@FLIGJAJL@Import?5geometries?$AA@
  00514	6a 34		 push	 52			; 00000034H
  00516	e8 00 00 00 00	 call	 _StringConvert
  0051b	83 c4 08	 add	 esp, 8
  0051e	50		 push	 eax
  0051f	e8 00 00 00 00	 call	 _Utf8ToUnicode
  00524	83 c4 0c	 add	 esp, 12			; 0000000cH

; 1999 :     ImportSymbolsButton1 = CreateWindowW(L"BUTTON",Wstr,WS_CHILD,

  00527	8b f4		 mov	 esi, esp
  00529	6a 00		 push	 0
  0052b	8b 45 08	 mov	 eax, DWORD PTR _hInstance$[ebp]
  0052e	50		 push	 eax
  0052f	68 46 08 00 00	 push	 2118			; 00000846H
  00534	8b 0d 00 00 00
	00		 mov	 ecx, DWORD PTR _LIBMANWindow
  0053a	51		 push	 ecx
  0053b	8b 15 00 00 00
	00		 mov	 edx, DWORD PTR _ButtonSizeY
  00541	52		 push	 edx
  00542	a1 00 00 00 00	 mov	 eax, DWORD PTR _ButtonSizeX
  00547	50		 push	 eax
  00548	8b 0d 00 00 00
	00		 mov	 ecx, DWORD PTR _ButtonStepY
  0054e	8b 15 0c 00 00
	00		 mov	 edx, DWORD PTR _RectListWindow1+12
  00554	8d 44 0a 0e	 lea	 eax, DWORD PTR [edx+ecx+14]
  00558	50		 push	 eax
  00559	8b 0d 00 00 00
	00		 mov	 ecx, DWORD PTR _RectListWindow1
  0055f	03 0d 00 00 00
	00		 add	 ecx, DWORD PTR _ButtonStepX
  00565	51		 push	 ecx
  00566	68 00 00 00 40	 push	 1073741824		; 40000000H
  0056b	8d 95 d4 fb ff
	ff		 lea	 edx, DWORD PTR _Wstr$[ebp]
  00571	52		 push	 edx
  00572	68 00 00 00 00	 push	 OFFSET ??_C@_1O@MOBNNEMB@?$AAB?$AAU?$AAT?$AAT?$AAO?$AAN?$AA?$AA@
  00577	6a 00		 push	 0
  00579	ff 15 00 00 00
	00		 call	 DWORD PTR __imp__CreateWindowExW@48
  0057f	3b f4		 cmp	 esi, esp
  00581	e8 00 00 00 00	 call	 __RTC_CheckEsp
  00586	a3 00 00 00 00	 mov	 DWORD PTR _ImportSymbolsButton1, eax

; 2000 :                                         RectListWindow1.left+ButtonStepX*1,RectListWindow1.bottom+ButtonStepY+14,
; 2001 :                                         ButtonSizeX,ButtonSizeY,
; 2002 :                                         LIBMANWindow,(HMENU)ID_IMPORT_SYMBOLS1,hInstance,NULL);
; 2003 :     ShowWindow(ImportSymbolsButton1,SW_SHOW);

  0058b	8b f4		 mov	 esi, esp
  0058d	6a 05		 push	 5
  0058f	a1 00 00 00 00	 mov	 eax, DWORD PTR _ImportSymbolsButton1
  00594	50		 push	 eax
  00595	ff 15 00 00 00
	00		 call	 DWORD PTR __imp__ShowWindow@8
  0059b	3b f4		 cmp	 esi, esp
  0059d	e8 00 00 00 00	 call	 __RTC_CheckEsp

; 2004 :     Utf8ToUnicode(SC(53,"Export geometries"),Wstr,200);

  005a2	68 c8 00 00 00	 push	 200			; 000000c8H
  005a7	8d 85 d4 fb ff
	ff		 lea	 eax, DWORD PTR _Wstr$[ebp]
  005ad	50		 push	 eax
  005ae	68 00 00 00 00	 push	 OFFSET ??_C@_0BC@KEIAJMGA@Export?5geometries?$AA@
  005b3	6a 35		 push	 53			; 00000035H
  005b5	e8 00 00 00 00	 call	 _StringConvert
  005ba	83 c4 08	 add	 esp, 8
  005bd	50		 push	 eax
  005be	e8 00 00 00 00	 call	 _Utf8ToUnicode
  005c3	83 c4 0c	 add	 esp, 12			; 0000000cH

; 2005 :     ExportSymbolsButton1 = CreateWindowW(L"BUTTON",Wstr,WS_CHILD,

  005c6	8b f4		 mov	 esi, esp
  005c8	6a 00		 push	 0
  005ca	8b 45 08	 mov	 eax, DWORD PTR _hInstance$[ebp]
  005cd	50		 push	 eax
  005ce	68 42 08 00 00	 push	 2114			; 00000842H
  005d3	8b 0d 00 00 00
	00		 mov	 ecx, DWORD PTR _LIBMANWindow
  005d9	51		 push	 ecx
  005da	8b 15 00 00 00
	00		 mov	 edx, DWORD PTR _ButtonSizeY
  005e0	52		 push	 edx
  005e1	a1 00 00 00 00	 mov	 eax, DWORD PTR _ButtonSizeX
  005e6	50		 push	 eax
  005e7	8b 0d 00 00 00
	00		 mov	 ecx, DWORD PTR _ButtonStepY
  005ed	8b 15 0c 00 00
	00		 mov	 edx, DWORD PTR _RectListWindow1+12
  005f3	8d 44 0a 0e	 lea	 eax, DWORD PTR [edx+ecx+14]
  005f7	50		 push	 eax
  005f8	8b 0d 00 00 00
	00		 mov	 ecx, DWORD PTR _ButtonStepX
  005fe	8b 15 00 00 00
	00		 mov	 edx, DWORD PTR _RectListWindow1
  00604	8d 04 4a	 lea	 eax, DWORD PTR [edx+ecx*2]
  00607	50		 push	 eax
  00608	68 00 00 00 40	 push	 1073741824		; 40000000H
  0060d	8d 8d d4 fb ff
	ff		 lea	 ecx, DWORD PTR _Wstr$[ebp]
  00613	51		 push	 ecx
  00614	68 00 00 00 00	 push	 OFFSET ??_C@_1O@MOBNNEMB@?$AAB?$AAU?$AAT?$AAT?$AAO?$AAN?$AA?$AA@
  00619	6a 00		 push	 0
  0061b	ff 15 00 00 00
	00		 call	 DWORD PTR __imp__CreateWindowExW@48
  00621	3b f4		 cmp	 esi, esp
  00623	e8 00 00 00 00	 call	 __RTC_CheckEsp
  00628	a3 00 00 00 00	 mov	 DWORD PTR _ExportSymbolsButton1, eax

; 2006 :                                         RectListWindow1.left+ButtonStepX*2,RectListWindow1.bottom+ButtonStepY+14,
; 2007 :                                         ButtonSizeX,ButtonSizeY,
; 2008 :                                         LIBMANWindow,(HMENU)ID_EXPORT_SYMBOLS1,hInstance,NULL);
; 2009 :     ShowWindow(ExportSymbolsButton1,SW_SHOW);

  0062d	8b f4		 mov	 esi, esp
  0062f	6a 05		 push	 5
  00631	a1 00 00 00 00	 mov	 eax, DWORD PTR _ExportSymbolsButton1
  00636	50		 push	 eax
  00637	ff 15 00 00 00
	00		 call	 DWORD PTR __imp__ShowWindow@8
  0063d	3b f4		 cmp	 esi, esp
  0063f	e8 00 00 00 00	 call	 __RTC_CheckEsp
$LN3@CreateWind:

; 2010 :   }
; 2011 :   Utf8ToUnicode(SC(37,"Deselect all"),Wstr,200);

  00644	68 c8 00 00 00	 push	 200			; 000000c8H
  00649	8d 85 d4 fb ff
	ff		 lea	 eax, DWORD PTR _Wstr$[ebp]
  0064f	50		 push	 eax
  00650	68 00 00 00 00	 push	 OFFSET ??_C@_0N@KPCPMOND@Deselect?5all?$AA@
  00655	6a 25		 push	 37			; 00000025H
  00657	e8 00 00 00 00	 call	 _StringConvert
  0065c	83 c4 08	 add	 esp, 8
  0065f	50		 push	 eax
  00660	e8 00 00 00 00	 call	 _Utf8ToUnicode
  00665	83 c4 0c	 add	 esp, 12			; 0000000cH

; 2012 :   DeselectAllButton1 = CreateWindowW(L"BUTTON",Wstr,WS_CHILD,

  00668	8b f4		 mov	 esi, esp
  0066a	6a 00		 push	 0
  0066c	8b 45 08	 mov	 eax, DWORD PTR _hInstance$[ebp]
  0066f	50		 push	 eax
  00670	68 3d 08 00 00	 push	 2109			; 0000083dH
  00675	8b 0d 00 00 00
	00		 mov	 ecx, DWORD PTR _LIBMANWindow
  0067b	51		 push	 ecx
  0067c	8b 15 00 00 00
	00		 mov	 edx, DWORD PTR _ButtonSizeY
  00682	52		 push	 edx
  00683	a1 00 00 00 00	 mov	 eax, DWORD PTR _ButtonSizeX
  00688	50		 push	 eax
  00689	8b 0d 00 00 00
	00		 mov	 ecx, DWORD PTR _ButtonStepY
  0068f	8b 15 0c 00 00
	00		 mov	 edx, DWORD PTR _RectListWindow1+12
  00695	8d 44 4a 0e	 lea	 eax, DWORD PTR [edx+ecx*2+14]
  00699	50		 push	 eax
  0069a	6b 0d 00 00 00
	00 00		 imul	 ecx, DWORD PTR _ButtonStepX, 0
  006a1	03 0d 00 00 00
	00		 add	 ecx, DWORD PTR _RectListWindow1
  006a7	51		 push	 ecx
  006a8	68 00 00 00 40	 push	 1073741824		; 40000000H
  006ad	8d 95 d4 fb ff
	ff		 lea	 edx, DWORD PTR _Wstr$[ebp]
  006b3	52		 push	 edx
  006b4	68 00 00 00 00	 push	 OFFSET ??_C@_1O@MOBNNEMB@?$AAB?$AAU?$AAT?$AAT?$AAO?$AAN?$AA?$AA@
  006b9	6a 00		 push	 0
  006bb	ff 15 00 00 00
	00		 call	 DWORD PTR __imp__CreateWindowExW@48
  006c1	3b f4		 cmp	 esi, esp
  006c3	e8 00 00 00 00	 call	 __RTC_CheckEsp
  006c8	a3 00 00 00 00	 mov	 DWORD PTR _DeselectAllButton1, eax

; 2013 :                                     RectListWindow1.left+ButtonStepX*0,RectListWindow1.bottom+ButtonStepY*2+14,
; 2014 :                                     ButtonSizeX,ButtonSizeY,
; 2015 :                                     LIBMANWindow,(HMENU)ID_DESELECT_ALL1,hInstance,NULL);
; 2016 :   ShowWindow(DeselectAllButton1,SW_SHOW);

  006cd	8b f4		 mov	 esi, esp
  006cf	6a 05		 push	 5
  006d1	a1 00 00 00 00	 mov	 eax, DWORD PTR _DeselectAllButton1
  006d6	50		 push	 eax
  006d7	ff 15 00 00 00
	00		 call	 DWORD PTR __imp__ShowWindow@8
  006dd	3b f4		 cmp	 esi, esp
  006df	e8 00 00 00 00	 call	 __RTC_CheckEsp

; 2017 :   Utf8ToUnicode(SC(58,"Select all"),Wstr,200);

  006e4	68 c8 00 00 00	 push	 200			; 000000c8H
  006e9	8d 85 d4 fb ff
	ff		 lea	 eax, DWORD PTR _Wstr$[ebp]
  006ef	50		 push	 eax
  006f0	68 00 00 00 00	 push	 OFFSET ??_C@_0L@IAIFFGEP@Select?5all?$AA@
  006f5	6a 3a		 push	 58			; 0000003aH
  006f7	e8 00 00 00 00	 call	 _StringConvert
  006fc	83 c4 08	 add	 esp, 8
  006ff	50		 push	 eax
  00700	e8 00 00 00 00	 call	 _Utf8ToUnicode
  00705	83 c4 0c	 add	 esp, 12			; 0000000cH

; 2018 :   SelectAllButton1 = CreateWindowW(L"BUTTON",Wstr,WS_CHILD,

  00708	8b f4		 mov	 esi, esp
  0070a	6a 00		 push	 0
  0070c	8b 45 08	 mov	 eax, DWORD PTR _hInstance$[ebp]
  0070f	50		 push	 eax
  00710	68 54 08 00 00	 push	 2132			; 00000854H
  00715	8b 0d 00 00 00
	00		 mov	 ecx, DWORD PTR _LIBMANWindow
  0071b	51		 push	 ecx
  0071c	8b 15 00 00 00
	00		 mov	 edx, DWORD PTR _ButtonSizeY
  00722	52		 push	 edx
  00723	a1 00 00 00 00	 mov	 eax, DWORD PTR _ButtonSizeX
  00728	50		 push	 eax
  00729	8b 0d 00 00 00
	00		 mov	 ecx, DWORD PTR _ButtonStepY
  0072f	8b 15 0c 00 00
	00		 mov	 edx, DWORD PTR _RectListWindow1+12
  00735	8d 44 4a 0e	 lea	 eax, DWORD PTR [edx+ecx*2+14]
  00739	50		 push	 eax
  0073a	8b 0d 00 00 00
	00		 mov	 ecx, DWORD PTR _RectListWindow1
  00740	03 0d 00 00 00
	00		 add	 ecx, DWORD PTR _ButtonStepX
  00746	51		 push	 ecx
  00747	68 00 00 00 40	 push	 1073741824		; 40000000H
  0074c	8d 95 d4 fb ff
	ff		 lea	 edx, DWORD PTR _Wstr$[ebp]
  00752	52		 push	 edx
  00753	68 00 00 00 00	 push	 OFFSET ??_C@_1O@MOBNNEMB@?$AAB?$AAU?$AAT?$AAT?$AAO?$AAN?$AA?$AA@
  00758	6a 00		 push	 0
  0075a	ff 15 00 00 00
	00		 call	 DWORD PTR __imp__CreateWindowExW@48
  00760	3b f4		 cmp	 esi, esp
  00762	e8 00 00 00 00	 call	 __RTC_CheckEsp
  00767	a3 00 00 00 00	 mov	 DWORD PTR _SelectAllButton1, eax

; 2019 :                                     RectListWindow1.left+ButtonStepX*1,RectListWindow1.bottom+ButtonStepY*2+14,
; 2020 :                                     ButtonSizeX,ButtonSizeY,
; 2021 :                                     LIBMANWindow,(HMENU)ID_SELECT_ALL1,hInstance,NULL);
; 2022 :   ShowWindow(SelectAllButton1,SW_SHOW);

  0076c	8b f4		 mov	 esi, esp
  0076e	6a 05		 push	 5
  00770	a1 00 00 00 00	 mov	 eax, DWORD PTR _SelectAllButton1
  00775	50		 push	 eax
  00776	ff 15 00 00 00
	00		 call	 DWORD PTR __imp__ShowWindow@8
  0077c	3b f4		 cmp	 esi, esp
  0077e	e8 00 00 00 00	 call	 __RTC_CheckEsp

; 2023 :   if (LibraryMode==0) {

  00783	83 3d 00 00 00
	00 00		 cmp	 DWORD PTR _LibraryMode, 0
  0078a	0f 85 8e 00 00
	00		 jne	 $LN4@CreateWind

; 2024 :     Utf8ToUnicode(SC(38,"Delete symbols"),Wstr,200);

  00790	68 c8 00 00 00	 push	 200			; 000000c8H
  00795	8d 85 d4 fb ff
	ff		 lea	 eax, DWORD PTR _Wstr$[ebp]
  0079b	50		 push	 eax
  0079c	68 00 00 00 00	 push	 OFFSET ??_C@_0P@JFIENDBP@Delete?5symbols?$AA@
  007a1	6a 26		 push	 38			; 00000026H
  007a3	e8 00 00 00 00	 call	 _StringConvert
  007a8	83 c4 08	 add	 esp, 8
  007ab	50		 push	 eax
  007ac	e8 00 00 00 00	 call	 _Utf8ToUnicode
  007b1	83 c4 0c	 add	 esp, 12			; 0000000cH

; 2025 :     DeleteSymbolsButton1 = CreateWindowW(L"BUTTON",Wstr,WS_CHILD,

  007b4	8b f4		 mov	 esi, esp
  007b6	6a 00		 push	 0
  007b8	8b 45 08	 mov	 eax, DWORD PTR _hInstance$[ebp]
  007bb	50		 push	 eax
  007bc	68 3b 08 00 00	 push	 2107			; 0000083bH
  007c1	8b 0d 00 00 00
	00		 mov	 ecx, DWORD PTR _LIBMANWindow
  007c7	51		 push	 ecx
  007c8	8b 15 00 00 00
	00		 mov	 edx, DWORD PTR _ButtonSizeY
  007ce	52		 push	 edx
  007cf	a1 00 00 00 00	 mov	 eax, DWORD PTR _ButtonSizeX
  007d4	50		 push	 eax
  007d5	8b 0d 00 00 00
	00		 mov	 ecx, DWORD PTR _ButtonStepY
  007db	8b 15 0c 00 00
	00		 mov	 edx, DWORD PTR _RectListWindow1+12
  007e1	8d 44 0a 0e	 lea	 eax, DWORD PTR [edx+ecx+14]
  007e5	50		 push	 eax
  007e6	6b 0d 00 00 00
	00 00		 imul	 ecx, DWORD PTR _ButtonStepX, 0
  007ed	03 0d 00 00 00
	00		 add	 ecx, DWORD PTR _RectListWindow1
  007f3	51		 push	 ecx
  007f4	68 00 00 00 40	 push	 1073741824		; 40000000H
  007f9	8d 95 d4 fb ff
	ff		 lea	 edx, DWORD PTR _Wstr$[ebp]
  007ff	52		 push	 edx
  00800	68 00 00 00 00	 push	 OFFSET ??_C@_1O@MOBNNEMB@?$AAB?$AAU?$AAT?$AAT?$AAO?$AAN?$AA?$AA@
  00805	6a 00		 push	 0
  00807	ff 15 00 00 00
	00		 call	 DWORD PTR __imp__CreateWindowExW@48
  0080d	3b f4		 cmp	 esi, esp
  0080f	e8 00 00 00 00	 call	 __RTC_CheckEsp
  00814	a3 00 00 00 00	 mov	 DWORD PTR _DeleteSymbolsButton1, eax

; 2026 :                                         RectListWindow1.left+ButtonStepX*0,RectListWindow1.bottom+ButtonStepY*1+14,
; 2027 :                                         ButtonSizeX,ButtonSizeY,
; 2028 :                                         LIBMANWindow,(HMENU)ID_DELETE_SYMBOLS1,hInstance,NULL);
; 2029 :   } else {

  00819	e9 89 00 00 00	 jmp	 $LN5@CreateWind
$LN4@CreateWind:

; 2030 :     Utf8ToUnicode(SC(57,"Delete geometries"),Wstr,200);

  0081e	68 c8 00 00 00	 push	 200			; 000000c8H
  00823	8d 85 d4 fb ff
	ff		 lea	 eax, DWORD PTR _Wstr$[ebp]
  00829	50		 push	 eax
  0082a	68 00 00 00 00	 push	 OFFSET ??_C@_0BC@PJGELEEH@Delete?5geometries?$AA@
  0082f	6a 39		 push	 57			; 00000039H
  00831	e8 00 00 00 00	 call	 _StringConvert
  00836	83 c4 08	 add	 esp, 8
  00839	50		 push	 eax
  0083a	e8 00 00 00 00	 call	 _Utf8ToUnicode
  0083f	83 c4 0c	 add	 esp, 12			; 0000000cH

; 2031 :     DeleteSymbolsButton1 = CreateWindowW(L"BUTTON",Wstr,WS_CHILD,

  00842	8b f4		 mov	 esi, esp
  00844	6a 00		 push	 0
  00846	8b 45 08	 mov	 eax, DWORD PTR _hInstance$[ebp]
  00849	50		 push	 eax
  0084a	68 3b 08 00 00	 push	 2107			; 0000083bH
  0084f	8b 0d 00 00 00
	00		 mov	 ecx, DWORD PTR _LIBMANWindow
  00855	51		 push	 ecx
  00856	8b 15 00 00 00
	00		 mov	 edx, DWORD PTR _ButtonSizeY
  0085c	52		 push	 edx
  0085d	a1 00 00 00 00	 mov	 eax, DWORD PTR _ButtonSizeX
  00862	50		 push	 eax
  00863	8b 0d 00 00 00
	00		 mov	 ecx, DWORD PTR _ButtonStepY
  00869	8b 15 0c 00 00
	00		 mov	 edx, DWORD PTR _RectListWindow1+12
  0086f	8d 44 0a 0e	 lea	 eax, DWORD PTR [edx+ecx+14]
  00873	50		 push	 eax
  00874	6b 0d 00 00 00
	00 00		 imul	 ecx, DWORD PTR _ButtonStepX, 0
  0087b	03 0d 00 00 00
	00		 add	 ecx, DWORD PTR _RectListWindow1
  00881	51		 push	 ecx
  00882	68 00 00 00 40	 push	 1073741824		; 40000000H
  00887	8d 95 d4 fb ff
	ff		 lea	 edx, DWORD PTR _Wstr$[ebp]
  0088d	52		 push	 edx
  0088e	68 00 00 00 00	 push	 OFFSET ??_C@_1O@MOBNNEMB@?$AAB?$AAU?$AAT?$AAT?$AAO?$AAN?$AA?$AA@
  00893	6a 00		 push	 0
  00895	ff 15 00 00 00
	00		 call	 DWORD PTR __imp__CreateWindowExW@48
  0089b	3b f4		 cmp	 esi, esp
  0089d	e8 00 00 00 00	 call	 __RTC_CheckEsp
  008a2	a3 00 00 00 00	 mov	 DWORD PTR _DeleteSymbolsButton1, eax
$LN5@CreateWind:

; 2032 :                                         RectListWindow1.left+ButtonStepX*0,RectListWindow1.bottom+ButtonStepY*1+14,
; 2033 :                                         ButtonSizeX,ButtonSizeY,
; 2034 :                                         LIBMANWindow,(HMENU)ID_DELETE_SYMBOLS1,hInstance,NULL);
; 2035 :   }
; 2036 :   ShowWindow(DeleteSymbolsButton1,SW_SHOW);

  008a7	8b f4		 mov	 esi, esp
  008a9	6a 05		 push	 5
  008ab	a1 00 00 00 00	 mov	 eax, DWORD PTR _DeleteSymbolsButton1
  008b0	50		 push	 eax
  008b1	ff 15 00 00 00
	00		 call	 DWORD PTR __imp__ShowWindow@8
  008b7	3b f4		 cmp	 esi, esp
  008b9	e8 00 00 00 00	 call	 __RTC_CheckEsp

; 2037 : 
; 2038 :   Utf8ToUnicode(SC(39,"Copy "),Wstr,200);

  008be	68 c8 00 00 00	 push	 200			; 000000c8H
  008c3	8d 85 d4 fb ff
	ff		 lea	 eax, DWORD PTR _Wstr$[ebp]
  008c9	50		 push	 eax
  008ca	68 00 00 00 00	 push	 OFFSET ??_C@_08GNGEMOGB@Copy?5?b?$JG?$LK?$AA@
  008cf	6a 27		 push	 39			; 00000027H
  008d1	e8 00 00 00 00	 call	 _StringConvert
  008d6	83 c4 08	 add	 esp, 8
  008d9	50		 push	 eax
  008da	e8 00 00 00 00	 call	 _Utf8ToUnicode
  008df	83 c4 0c	 add	 esp, 12			; 0000000cH

; 2039 : //  Utf8ToUnicode(SC(39,"Copy ->"),Wstr,200);
; 2040 :   CopyButton1 = CreateWindowW(L"BUTTON",Wstr,WS_CHILD,

  008e2	8b f4		 mov	 esi, esp
  008e4	6a 00		 push	 0
  008e6	8b 45 08	 mov	 eax, DWORD PTR _hInstance$[ebp]
  008e9	50		 push	 eax
  008ea	68 37 08 00 00	 push	 2103			; 00000837H
  008ef	8b 0d 00 00 00
	00		 mov	 ecx, DWORD PTR _LIBMANWindow
  008f5	51		 push	 ecx
  008f6	8b 15 00 00 00
	00		 mov	 edx, DWORD PTR _ButtonSizeY
  008fc	52		 push	 edx
  008fd	a1 00 00 00 00	 mov	 eax, DWORD PTR _ButtonSizeX
  00902	50		 push	 eax
  00903	6a 78		 push	 120			; 00000078H
  00905	8b 0d 00 00 00
	00		 mov	 ecx, DWORD PTR _RectListWindow2
  0090b	2b 0d 00 00 00
	00		 sub	 ecx, DWORD PTR _ButtonSizeX
  00911	83 e9 0f	 sub	 ecx, 15			; 0000000fH
  00914	51		 push	 ecx
  00915	68 00 00 00 40	 push	 1073741824		; 40000000H
  0091a	8d 95 d4 fb ff
	ff		 lea	 edx, DWORD PTR _Wstr$[ebp]
  00920	52		 push	 edx
  00921	68 00 00 00 00	 push	 OFFSET ??_C@_1O@MOBNNEMB@?$AAB?$AAU?$AAT?$AAT?$AAO?$AAN?$AA?$AA@
  00926	6a 00		 push	 0
  00928	ff 15 00 00 00
	00		 call	 DWORD PTR __imp__CreateWindowExW@48
  0092e	3b f4		 cmp	 esi, esp
  00930	e8 00 00 00 00	 call	 __RTC_CheckEsp
  00935	a3 00 00 00 00	 mov	 DWORD PTR _CopyButton1, eax

; 2041 :                              RectListWindow2.left-ButtonSizeX-15,120,
; 2042 :                              ButtonSizeX,ButtonSizeY,
; 2043 :                              LIBMANWindow,(HMENU)ID_COPY_SYMBOLS1,hInstance,NULL);
; 2044 :   ShowWindow(CopyButton1,SW_SHOW);

  0093a	8b f4		 mov	 esi, esp
  0093c	6a 05		 push	 5
  0093e	a1 00 00 00 00	 mov	 eax, DWORD PTR _CopyButton1
  00943	50		 push	 eax
  00944	ff 15 00 00 00
	00		 call	 DWORD PTR __imp__ShowWindow@8
  0094a	3b f4		 cmp	 esi, esp
  0094c	e8 00 00 00 00	 call	 __RTC_CheckEsp

; 2045 :   Utf8ToUnicode(SC(40,"Move "),Wstr,200);

  00951	68 c8 00 00 00	 push	 200			; 000000c8H
  00956	8d 85 d4 fb ff
	ff		 lea	 eax, DWORD PTR _Wstr$[ebp]
  0095c	50		 push	 eax
  0095d	68 00 00 00 00	 push	 OFFSET ??_C@_08LCGCOCCJ@Move?5?b?$JG?$LK?$AA@
  00962	6a 28		 push	 40			; 00000028H
  00964	e8 00 00 00 00	 call	 _StringConvert
  00969	83 c4 08	 add	 esp, 8
  0096c	50		 push	 eax
  0096d	e8 00 00 00 00	 call	 _Utf8ToUnicode
  00972	83 c4 0c	 add	 esp, 12			; 0000000cH

; 2046 : //  Utf8ToUnicode(SC(40,"Move ->"),Wstr,200);
; 2047 :   MoveButton1 = CreateWindowW(L"BUTTON",Wstr,WS_CHILD,

  00975	8b f4		 mov	 esi, esp
  00977	6a 00		 push	 0
  00979	8b 45 08	 mov	 eax, DWORD PTR _hInstance$[ebp]
  0097c	50		 push	 eax
  0097d	68 4a 08 00 00	 push	 2122			; 0000084aH
  00982	8b 0d 00 00 00
	00		 mov	 ecx, DWORD PTR _LIBMANWindow
  00988	51		 push	 ecx
  00989	8b 15 00 00 00
	00		 mov	 edx, DWORD PTR _ButtonSizeY
  0098f	52		 push	 edx
  00990	a1 00 00 00 00	 mov	 eax, DWORD PTR _ButtonSizeX
  00995	50		 push	 eax
  00996	68 a0 00 00 00	 push	 160			; 000000a0H
  0099b	8b 0d 00 00 00
	00		 mov	 ecx, DWORD PTR _RectListWindow2
  009a1	2b 0d 00 00 00
	00		 sub	 ecx, DWORD PTR _ButtonSizeX
  009a7	83 e9 0f	 sub	 ecx, 15			; 0000000fH
  009aa	51		 push	 ecx
  009ab	68 00 00 00 40	 push	 1073741824		; 40000000H
  009b0	8d 95 d4 fb ff
	ff		 lea	 edx, DWORD PTR _Wstr$[ebp]
  009b6	52		 push	 edx
  009b7	68 00 00 00 00	 push	 OFFSET ??_C@_1O@MOBNNEMB@?$AAB?$AAU?$AAT?$AAT?$AAO?$AAN?$AA?$AA@
  009bc	6a 00		 push	 0
  009be	ff 15 00 00 00
	00		 call	 DWORD PTR __imp__CreateWindowExW@48
  009c4	3b f4		 cmp	 esi, esp
  009c6	e8 00 00 00 00	 call	 __RTC_CheckEsp
  009cb	a3 00 00 00 00	 mov	 DWORD PTR _MoveButton1, eax

; 2048 :                              RectListWindow2.left-ButtonSizeX-15,160,
; 2049 :                              ButtonSizeX,ButtonSizeY,
; 2050 :                              LIBMANWindow,(HMENU)ID_MOVE_SYMBOLS1,hInstance,NULL);
; 2051 :   ShowWindow(MoveButton1,SW_SHOW);

  009d0	8b f4		 mov	 esi, esp
  009d2	6a 05		 push	 5
  009d4	a1 00 00 00 00	 mov	 eax, DWORD PTR _MoveButton1
  009d9	50		 push	 eax
  009da	ff 15 00 00 00
	00		 call	 DWORD PTR __imp__ShowWindow@8
  009e0	3b f4		 cmp	 esi, esp
  009e2	e8 00 00 00 00	 call	 __RTC_CheckEsp

; 2052 : 
; 2053 : 
; 2054 :   Utf8ToUnicode(SC(32,"New lib"),Wstr,200);

  009e7	68 c8 00 00 00	 push	 200			; 000000c8H
  009ec	8d 85 d4 fb ff
	ff		 lea	 eax, DWORD PTR _Wstr$[ebp]
  009f2	50		 push	 eax
  009f3	68 00 00 00 00	 push	 OFFSET ??_C@_07MJJPDAEH@New?5lib?$AA@
  009f8	6a 20		 push	 32			; 00000020H
  009fa	e8 00 00 00 00	 call	 _StringConvert
  009ff	83 c4 08	 add	 esp, 8
  00a02	50		 push	 eax
  00a03	e8 00 00 00 00	 call	 _Utf8ToUnicode
  00a08	83 c4 0c	 add	 esp, 12			; 0000000cH

; 2055 :   CreateNewLibButton2 = CreateWindowW(L"BUTTON",Wstr,WS_CHILD,

  00a0b	8b f4		 mov	 esi, esp
  00a0d	6a 00		 push	 0
  00a0f	8b 45 08	 mov	 eax, DWORD PTR _hInstance$[ebp]
  00a12	50		 push	 eax
  00a13	68 3a 08 00 00	 push	 2106			; 0000083aH
  00a18	8b 0d 00 00 00
	00		 mov	 ecx, DWORD PTR _LIBMANWindow
  00a1e	51		 push	 ecx
  00a1f	8b 15 00 00 00
	00		 mov	 edx, DWORD PTR _ButtonSizeY
  00a25	52		 push	 edx
  00a26	a1 00 00 00 00	 mov	 eax, DWORD PTR _ButtonSizeX
  00a2b	50		 push	 eax
  00a2c	8b 0d 0c 00 00
	00		 mov	 ecx, DWORD PTR _RectListWindow2+12
  00a32	83 c1 0e	 add	 ecx, 14			; 0000000eH
  00a35	51		 push	 ecx
  00a36	6b 15 00 00 00
	00 00		 imul	 edx, DWORD PTR _ButtonStepX, 0
  00a3d	03 15 00 00 00
	00		 add	 edx, DWORD PTR _RectListWindow2
  00a43	52		 push	 edx
  00a44	68 00 00 00 40	 push	 1073741824		; 40000000H
  00a49	8d 85 d4 fb ff
	ff		 lea	 eax, DWORD PTR _Wstr$[ebp]
  00a4f	50		 push	 eax
  00a50	68 00 00 00 00	 push	 OFFSET ??_C@_1O@MOBNNEMB@?$AAB?$AAU?$AAT?$AAT?$AAO?$AAN?$AA?$AA@
  00a55	6a 00		 push	 0
  00a57	ff 15 00 00 00
	00		 call	 DWORD PTR __imp__CreateWindowExW@48
  00a5d	3b f4		 cmp	 esi, esp
  00a5f	e8 00 00 00 00	 call	 __RTC_CheckEsp
  00a64	a3 00 00 00 00	 mov	 DWORD PTR _CreateNewLibButton2, eax

; 2056 :                                      RectListWindow2.left+ButtonStepX*0,RectListWindow2.bottom+14,
; 2057 :                                      ButtonSizeX,ButtonSizeY,
; 2058 :                                      LIBMANWindow,(HMENU)ID_CREATE_LIB2,hInstance,NULL);
; 2059 :   ShowWindow(CreateNewLibButton2,SW_SHOW);

  00a69	8b f4		 mov	 esi, esp
  00a6b	6a 05		 push	 5
  00a6d	a1 00 00 00 00	 mov	 eax, DWORD PTR _CreateNewLibButton2
  00a72	50		 push	 eax
  00a73	ff 15 00 00 00
	00		 call	 DWORD PTR __imp__ShowWindow@8
  00a79	3b f4		 cmp	 esi, esp
  00a7b	e8 00 00 00 00	 call	 __RTC_CheckEsp

; 2060 :   Utf8ToUnicode(SC(33,"Open lib"),Wstr,200);

  00a80	68 c8 00 00 00	 push	 200			; 000000c8H
  00a85	8d 85 d4 fb ff
	ff		 lea	 eax, DWORD PTR _Wstr$[ebp]
  00a8b	50		 push	 eax
  00a8c	68 00 00 00 00	 push	 OFFSET ??_C@_08PPABCFEK@Open?5lib?$AA@
  00a91	6a 21		 push	 33			; 00000021H
  00a93	e8 00 00 00 00	 call	 _StringConvert
  00a98	83 c4 08	 add	 esp, 8
  00a9b	50		 push	 eax
  00a9c	e8 00 00 00 00	 call	 _Utf8ToUnicode
  00aa1	83 c4 0c	 add	 esp, 12			; 0000000cH

; 2061 :   OpenLibButton2 = CreateWindowW(L"BUTTON",Wstr,WS_CHILD,

  00aa4	8b f4		 mov	 esi, esp
  00aa6	6a 00		 push	 0
  00aa8	8b 45 08	 mov	 eax, DWORD PTR _hInstance$[ebp]
  00aab	50		 push	 eax
  00aac	68 4d 08 00 00	 push	 2125			; 0000084dH
  00ab1	8b 0d 00 00 00
	00		 mov	 ecx, DWORD PTR _LIBMANWindow
  00ab7	51		 push	 ecx
  00ab8	8b 15 00 00 00
	00		 mov	 edx, DWORD PTR _ButtonSizeY
  00abe	52		 push	 edx
  00abf	a1 00 00 00 00	 mov	 eax, DWORD PTR _ButtonSizeX
  00ac4	50		 push	 eax
  00ac5	8b 0d 0c 00 00
	00		 mov	 ecx, DWORD PTR _RectListWindow2+12
  00acb	83 c1 0e	 add	 ecx, 14			; 0000000eH
  00ace	51		 push	 ecx
  00acf	8b 15 00 00 00
	00		 mov	 edx, DWORD PTR _RectListWindow2
  00ad5	03 15 00 00 00
	00		 add	 edx, DWORD PTR _ButtonStepX
  00adb	52		 push	 edx
  00adc	68 00 00 00 40	 push	 1073741824		; 40000000H
  00ae1	8d 85 d4 fb ff
	ff		 lea	 eax, DWORD PTR _Wstr$[ebp]
  00ae7	50		 push	 eax
  00ae8	68 00 00 00 00	 push	 OFFSET ??_C@_1O@MOBNNEMB@?$AAB?$AAU?$AAT?$AAT?$AAO?$AAN?$AA?$AA@
  00aed	6a 00		 push	 0
  00aef	ff 15 00 00 00
	00		 call	 DWORD PTR __imp__CreateWindowExW@48
  00af5	3b f4		 cmp	 esi, esp
  00af7	e8 00 00 00 00	 call	 __RTC_CheckEsp
  00afc	a3 00 00 00 00	 mov	 DWORD PTR _OpenLibButton2, eax

; 2062 :                                 RectListWindow2.left+ButtonStepX,RectListWindow2.bottom+14,
; 2063 :                                 ButtonSizeX,ButtonSizeY,
; 2064 :                                 LIBMANWindow,(HMENU)ID_OPEN_LIB2,hInstance,NULL);
; 2065 :   ShowWindow(OpenLibButton2,SW_SHOW);

  00b01	8b f4		 mov	 esi, esp
  00b03	6a 05		 push	 5
  00b05	a1 00 00 00 00	 mov	 eax, DWORD PTR _OpenLibButton2
  00b0a	50		 push	 eax
  00b0b	ff 15 00 00 00
	00		 call	 DWORD PTR __imp__ShowWindow@8
  00b11	3b f4		 cmp	 esi, esp
  00b13	e8 00 00 00 00	 call	 __RTC_CheckEsp

; 2066 : /*
; 2067 :   SaveLibButton2 = CreateWindow(L"BUTTON","Save lib",WS_CHILD,
; 2068 :                                 RectListWindow2.left+ButtonStepX*2,RectListWindow2.bottom+10,
; 2069 :                                 ButtonSizeX,ButtonSizeY,
; 2070 :                                 LIBMANWindow,(HMENU)ID_SAVE_LIB2,hInstance,NULL);
; 2071 :   ShowWindow(SaveLibButton2,SW_SHOW);
; 2072 : */
; 2073 :   Utf8ToUnicode(SC(34,"Close lib"),Wstr,200);

  00b18	68 c8 00 00 00	 push	 200			; 000000c8H
  00b1d	8d 85 d4 fb ff
	ff		 lea	 eax, DWORD PTR _Wstr$[ebp]
  00b23	50		 push	 eax
  00b24	68 00 00 00 00	 push	 OFFSET ??_C@_09PPCBCBOH@Close?5lib?$AA@
  00b29	6a 22		 push	 34			; 00000022H
  00b2b	e8 00 00 00 00	 call	 _StringConvert
  00b30	83 c4 08	 add	 esp, 8
  00b33	50		 push	 eax
  00b34	e8 00 00 00 00	 call	 _Utf8ToUnicode
  00b39	83 c4 0c	 add	 esp, 12			; 0000000cH

; 2074 :   CloseLibButton2 = CreateWindowW(L"BUTTON",Wstr,WS_CHILD,

  00b3c	8b f4		 mov	 esi, esp
  00b3e	6a 00		 push	 0
  00b40	8b 45 08	 mov	 eax, DWORD PTR _hInstance$[ebp]
  00b43	50		 push	 eax
  00b44	68 36 08 00 00	 push	 2102			; 00000836H
  00b49	8b 0d 00 00 00
	00		 mov	 ecx, DWORD PTR _LIBMANWindow
  00b4f	51		 push	 ecx
  00b50	8b 15 00 00 00
	00		 mov	 edx, DWORD PTR _ButtonSizeY
  00b56	52		 push	 edx
  00b57	a1 00 00 00 00	 mov	 eax, DWORD PTR _ButtonSizeX
  00b5c	50		 push	 eax
  00b5d	8b 0d 0c 00 00
	00		 mov	 ecx, DWORD PTR _RectListWindow2+12
  00b63	83 c1 0e	 add	 ecx, 14			; 0000000eH
  00b66	51		 push	 ecx
  00b67	8b 15 00 00 00
	00		 mov	 edx, DWORD PTR _ButtonStepX
  00b6d	a1 00 00 00 00	 mov	 eax, DWORD PTR _RectListWindow2
  00b72	8d 0c 50	 lea	 ecx, DWORD PTR [eax+edx*2]
  00b75	51		 push	 ecx
  00b76	68 00 00 00 40	 push	 1073741824		; 40000000H
  00b7b	8d 95 d4 fb ff
	ff		 lea	 edx, DWORD PTR _Wstr$[ebp]
  00b81	52		 push	 edx
  00b82	68 00 00 00 00	 push	 OFFSET ??_C@_1O@MOBNNEMB@?$AAB?$AAU?$AAT?$AAT?$AAO?$AAN?$AA?$AA@
  00b87	6a 00		 push	 0
  00b89	ff 15 00 00 00
	00		 call	 DWORD PTR __imp__CreateWindowExW@48
  00b8f	3b f4		 cmp	 esi, esp
  00b91	e8 00 00 00 00	 call	 __RTC_CheckEsp
  00b96	a3 00 00 00 00	 mov	 DWORD PTR _CloseLibButton2, eax

; 2075 :                                  RectListWindow2.left+ButtonStepX*2,RectListWindow2.bottom+14,
; 2076 :                                  ButtonSizeX,ButtonSizeY,
; 2077 :                                  LIBMANWindow,(HMENU)ID_CLOSE_LIB2,hInstance,NULL);
; 2078 :   ShowWindow(CloseLibButton2,SW_SHOW);

  00b9b	8b f4		 mov	 esi, esp
  00b9d	6a 05		 push	 5
  00b9f	a1 00 00 00 00	 mov	 eax, DWORD PTR _CloseLibButton2
  00ba4	50		 push	 eax
  00ba5	ff 15 00 00 00
	00		 call	 DWORD PTR __imp__ShowWindow@8
  00bab	3b f4		 cmp	 esi, esp
  00bad	e8 00 00 00 00	 call	 __RTC_CheckEsp

; 2079 :   if (LibraryMode==0) {

  00bb2	83 3d 00 00 00
	00 00		 cmp	 DWORD PTR _LibraryMode, 0
  00bb9	0f 85 8d 00 00
	00		 jne	 $LN6@CreateWind

; 2080 :     Utf8ToUnicode(SC(35,"Import symbols"),Wstr,200);

  00bbf	68 c8 00 00 00	 push	 200			; 000000c8H
  00bc4	8d 85 d4 fb ff
	ff		 lea	 eax, DWORD PTR _Wstr$[ebp]
  00bca	50		 push	 eax
  00bcb	68 00 00 00 00	 push	 OFFSET ??_C@_0P@LOIAGIPA@Import?5symbols?$AA@
  00bd0	6a 23		 push	 35			; 00000023H
  00bd2	e8 00 00 00 00	 call	 _StringConvert
  00bd7	83 c4 08	 add	 esp, 8
  00bda	50		 push	 eax
  00bdb	e8 00 00 00 00	 call	 _Utf8ToUnicode
  00be0	83 c4 0c	 add	 esp, 12			; 0000000cH

; 2081 :     ImportSymbolsButton2 = CreateWindowW(L"BUTTON",Wstr,WS_CHILD,

  00be3	8b f4		 mov	 esi, esp
  00be5	6a 00		 push	 0
  00be7	8b 45 08	 mov	 eax, DWORD PTR _hInstance$[ebp]
  00bea	50		 push	 eax
  00beb	68 47 08 00 00	 push	 2119			; 00000847H
  00bf0	8b 0d 00 00 00
	00		 mov	 ecx, DWORD PTR _LIBMANWindow
  00bf6	51		 push	 ecx
  00bf7	8b 15 00 00 00
	00		 mov	 edx, DWORD PTR _ButtonSizeY
  00bfd	52		 push	 edx
  00bfe	a1 00 00 00 00	 mov	 eax, DWORD PTR _ButtonSizeX
  00c03	50		 push	 eax
  00c04	8b 0d 00 00 00
	00		 mov	 ecx, DWORD PTR _ButtonStepY
  00c0a	8b 15 0c 00 00
	00		 mov	 edx, DWORD PTR _RectListWindow2+12
  00c10	8d 44 0a 0e	 lea	 eax, DWORD PTR [edx+ecx+14]
  00c14	50		 push	 eax
  00c15	8b 0d 00 00 00
	00		 mov	 ecx, DWORD PTR _RectListWindow2
  00c1b	03 0d 00 00 00
	00		 add	 ecx, DWORD PTR _ButtonStepX
  00c21	51		 push	 ecx
  00c22	68 00 00 00 40	 push	 1073741824		; 40000000H
  00c27	8d 95 d4 fb ff
	ff		 lea	 edx, DWORD PTR _Wstr$[ebp]
  00c2d	52		 push	 edx
  00c2e	68 00 00 00 00	 push	 OFFSET ??_C@_1O@MOBNNEMB@?$AAB?$AAU?$AAT?$AAT?$AAO?$AAN?$AA?$AA@
  00c33	6a 00		 push	 0
  00c35	ff 15 00 00 00
	00		 call	 DWORD PTR __imp__CreateWindowExW@48
  00c3b	3b f4		 cmp	 esi, esp
  00c3d	e8 00 00 00 00	 call	 __RTC_CheckEsp
  00c42	a3 00 00 00 00	 mov	 DWORD PTR _ImportSymbolsButton2, eax

; 2082 :                                         RectListWindow2.left+ButtonStepX*1,RectListWindow2.bottom+ButtonStepY+14,
; 2083 :                                         ButtonSizeX,ButtonSizeY,
; 2084 :                                         LIBMANWindow,(HMENU)ID_IMPORT_SYMBOLS2,hInstance,NULL);
; 2085 :   } else {

  00c47	e9 88 00 00 00	 jmp	 $LN7@CreateWind
$LN6@CreateWind:

; 2086 :     Utf8ToUnicode(SC(52,"Import geometries"),Wstr,200);

  00c4c	68 c8 00 00 00	 push	 200			; 000000c8H
  00c51	8d 85 d4 fb ff
	ff		 lea	 eax, DWORD PTR _Wstr$[ebp]
  00c57	50		 push	 eax
  00c58	68 00 00 00 00	 push	 OFFSET ??_C@_0BC@FLIGJAJL@Import?5geometries?$AA@
  00c5d	6a 34		 push	 52			; 00000034H
  00c5f	e8 00 00 00 00	 call	 _StringConvert
  00c64	83 c4 08	 add	 esp, 8
  00c67	50		 push	 eax
  00c68	e8 00 00 00 00	 call	 _Utf8ToUnicode
  00c6d	83 c4 0c	 add	 esp, 12			; 0000000cH

; 2087 :     ImportSymbolsButton2 = CreateWindowW(L"BUTTON",Wstr,WS_CHILD,

  00c70	8b f4		 mov	 esi, esp
  00c72	6a 00		 push	 0
  00c74	8b 45 08	 mov	 eax, DWORD PTR _hInstance$[ebp]
  00c77	50		 push	 eax
  00c78	68 47 08 00 00	 push	 2119			; 00000847H
  00c7d	8b 0d 00 00 00
	00		 mov	 ecx, DWORD PTR _LIBMANWindow
  00c83	51		 push	 ecx
  00c84	8b 15 00 00 00
	00		 mov	 edx, DWORD PTR _ButtonSizeY
  00c8a	52		 push	 edx
  00c8b	a1 00 00 00 00	 mov	 eax, DWORD PTR _ButtonSizeX
  00c90	50		 push	 eax
  00c91	8b 0d 00 00 00
	00		 mov	 ecx, DWORD PTR _ButtonStepY
  00c97	8b 15 0c 00 00
	00		 mov	 edx, DWORD PTR _RectListWindow2+12
  00c9d	8d 44 0a 0e	 lea	 eax, DWORD PTR [edx+ecx+14]
  00ca1	50		 push	 eax
  00ca2	8b 0d 00 00 00
	00		 mov	 ecx, DWORD PTR _RectListWindow2
  00ca8	03 0d 00 00 00
	00		 add	 ecx, DWORD PTR _ButtonStepX
  00cae	51		 push	 ecx
  00caf	68 00 00 00 40	 push	 1073741824		; 40000000H
  00cb4	8d 95 d4 fb ff
	ff		 lea	 edx, DWORD PTR _Wstr$[ebp]
  00cba	52		 push	 edx
  00cbb	68 00 00 00 00	 push	 OFFSET ??_C@_1O@MOBNNEMB@?$AAB?$AAU?$AAT?$AAT?$AAO?$AAN?$AA?$AA@
  00cc0	6a 00		 push	 0
  00cc2	ff 15 00 00 00
	00		 call	 DWORD PTR __imp__CreateWindowExW@48
  00cc8	3b f4		 cmp	 esi, esp
  00cca	e8 00 00 00 00	 call	 __RTC_CheckEsp
  00ccf	a3 00 00 00 00	 mov	 DWORD PTR _ImportSymbolsButton2, eax
$LN7@CreateWind:

; 2088 :                                         RectListWindow2.left+ButtonStepX*1,RectListWindow2.bottom+ButtonStepY+14,
; 2089 :                                         ButtonSizeX,ButtonSizeY,
; 2090 :                                         LIBMANWindow,(HMENU)ID_IMPORT_SYMBOLS2,hInstance,NULL);
; 2091 :   }
; 2092 :   ShowWindow(ImportSymbolsButton2,SW_SHOW);

  00cd4	8b f4		 mov	 esi, esp
  00cd6	6a 05		 push	 5
  00cd8	a1 00 00 00 00	 mov	 eax, DWORD PTR _ImportSymbolsButton2
  00cdd	50		 push	 eax
  00cde	ff 15 00 00 00
	00		 call	 DWORD PTR __imp__ShowWindow@8
  00ce4	3b f4		 cmp	 esi, esp
  00ce6	e8 00 00 00 00	 call	 __RTC_CheckEsp

; 2093 :   if (LibraryMode==0) {

  00ceb	83 3d 00 00 00
	00 00		 cmp	 DWORD PTR _LibraryMode, 0
  00cf2	0f 85 90 00 00
	00		 jne	 $LN8@CreateWind

; 2094 :     Utf8ToUnicode(SC(36,"Export symbols"),Wstr,200);

  00cf8	68 c8 00 00 00	 push	 200			; 000000c8H
  00cfd	8d 85 d4 fb ff
	ff		 lea	 eax, DWORD PTR _Wstr$[ebp]
  00d03	50		 push	 eax
  00d04	68 00 00 00 00	 push	 OFFSET ??_C@_0P@BJGEJDBF@Export?5symbols?$AA@
  00d09	6a 24		 push	 36			; 00000024H
  00d0b	e8 00 00 00 00	 call	 _StringConvert
  00d10	83 c4 08	 add	 esp, 8
  00d13	50		 push	 eax
  00d14	e8 00 00 00 00	 call	 _Utf8ToUnicode
  00d19	83 c4 0c	 add	 esp, 12			; 0000000cH

; 2095 :     ExportSymbolsButton2 = CreateWindowW(L"BUTTON",Wstr,WS_CHILD,

  00d1c	8b f4		 mov	 esi, esp
  00d1e	6a 00		 push	 0
  00d20	8b 45 08	 mov	 eax, DWORD PTR _hInstance$[ebp]
  00d23	50		 push	 eax
  00d24	68 43 08 00 00	 push	 2115			; 00000843H
  00d29	8b 0d 00 00 00
	00		 mov	 ecx, DWORD PTR _LIBMANWindow
  00d2f	51		 push	 ecx
  00d30	8b 15 00 00 00
	00		 mov	 edx, DWORD PTR _ButtonSizeY
  00d36	52		 push	 edx
  00d37	a1 00 00 00 00	 mov	 eax, DWORD PTR _ButtonSizeX
  00d3c	50		 push	 eax
  00d3d	8b 0d 00 00 00
	00		 mov	 ecx, DWORD PTR _ButtonStepY
  00d43	8b 15 0c 00 00
	00		 mov	 edx, DWORD PTR _RectListWindow2+12
  00d49	8d 44 0a 0e	 lea	 eax, DWORD PTR [edx+ecx+14]
  00d4d	50		 push	 eax
  00d4e	8b 0d 00 00 00
	00		 mov	 ecx, DWORD PTR _ButtonStepX
  00d54	8b 15 00 00 00
	00		 mov	 edx, DWORD PTR _RectListWindow2
  00d5a	8d 04 4a	 lea	 eax, DWORD PTR [edx+ecx*2]
  00d5d	50		 push	 eax
  00d5e	68 00 00 00 40	 push	 1073741824		; 40000000H
  00d63	8d 8d d4 fb ff
	ff		 lea	 ecx, DWORD PTR _Wstr$[ebp]
  00d69	51		 push	 ecx
  00d6a	68 00 00 00 00	 push	 OFFSET ??_C@_1O@MOBNNEMB@?$AAB?$AAU?$AAT?$AAT?$AAO?$AAN?$AA?$AA@
  00d6f	6a 00		 push	 0
  00d71	ff 15 00 00 00
	00		 call	 DWORD PTR __imp__CreateWindowExW@48
  00d77	3b f4		 cmp	 esi, esp
  00d79	e8 00 00 00 00	 call	 __RTC_CheckEsp
  00d7e	a3 00 00 00 00	 mov	 DWORD PTR _ExportSymbolsButton2, eax

; 2096 :                                         RectListWindow2.left+ButtonStepX*2,RectListWindow2.bottom+ButtonStepY+14,
; 2097 :                                         ButtonSizeX,ButtonSizeY,
; 2098 :                                         LIBMANWindow,(HMENU)ID_EXPORT_SYMBOLS2,hInstance,NULL);
; 2099 :   } else {

  00d83	e9 8b 00 00 00	 jmp	 $LN9@CreateWind
$LN8@CreateWind:

; 2100 :     Utf8ToUnicode(SC(53,"Export geometries"),Wstr,200);

  00d88	68 c8 00 00 00	 push	 200			; 000000c8H
  00d8d	8d 85 d4 fb ff
	ff		 lea	 eax, DWORD PTR _Wstr$[ebp]
  00d93	50		 push	 eax
  00d94	68 00 00 00 00	 push	 OFFSET ??_C@_0BC@KEIAJMGA@Export?5geometries?$AA@
  00d99	6a 35		 push	 53			; 00000035H
  00d9b	e8 00 00 00 00	 call	 _StringConvert
  00da0	83 c4 08	 add	 esp, 8
  00da3	50		 push	 eax
  00da4	e8 00 00 00 00	 call	 _Utf8ToUnicode
  00da9	83 c4 0c	 add	 esp, 12			; 0000000cH

; 2101 :     ExportSymbolsButton2 = CreateWindowW(L"BUTTON",Wstr,WS_CHILD,

  00dac	8b f4		 mov	 esi, esp
  00dae	6a 00		 push	 0
  00db0	8b 45 08	 mov	 eax, DWORD PTR _hInstance$[ebp]
  00db3	50		 push	 eax
  00db4	68 43 08 00 00	 push	 2115			; 00000843H
  00db9	8b 0d 00 00 00
	00		 mov	 ecx, DWORD PTR _LIBMANWindow
  00dbf	51		 push	 ecx
  00dc0	8b 15 00 00 00
	00		 mov	 edx, DWORD PTR _ButtonSizeY
  00dc6	52		 push	 edx
  00dc7	a1 00 00 00 00	 mov	 eax, DWORD PTR _ButtonSizeX
  00dcc	50		 push	 eax
  00dcd	8b 0d 00 00 00
	00		 mov	 ecx, DWORD PTR _ButtonStepY
  00dd3	8b 15 0c 00 00
	00		 mov	 edx, DWORD PTR _RectListWindow2+12
  00dd9	8d 44 0a 0e	 lea	 eax, DWORD PTR [edx+ecx+14]
  00ddd	50		 push	 eax
  00dde	8b 0d 00 00 00
	00		 mov	 ecx, DWORD PTR _ButtonStepX
  00de4	8b 15 00 00 00
	00		 mov	 edx, DWORD PTR _RectListWindow2
  00dea	8d 04 4a	 lea	 eax, DWORD PTR [edx+ecx*2]
  00ded	50		 push	 eax
  00dee	68 00 00 00 40	 push	 1073741824		; 40000000H
  00df3	8d 8d d4 fb ff
	ff		 lea	 ecx, DWORD PTR _Wstr$[ebp]
  00df9	51		 push	 ecx
  00dfa	68 00 00 00 00	 push	 OFFSET ??_C@_1O@MOBNNEMB@?$AAB?$AAU?$AAT?$AAT?$AAO?$AAN?$AA?$AA@
  00dff	6a 00		 push	 0
  00e01	ff 15 00 00 00
	00		 call	 DWORD PTR __imp__CreateWindowExW@48
  00e07	3b f4		 cmp	 esi, esp
  00e09	e8 00 00 00 00	 call	 __RTC_CheckEsp
  00e0e	a3 00 00 00 00	 mov	 DWORD PTR _ExportSymbolsButton2, eax
$LN9@CreateWind:

; 2102 :                                         RectListWindow2.left+ButtonStepX*2,RectListWindow2.bottom+ButtonStepY+14,
; 2103 :                                         ButtonSizeX,ButtonSizeY,
; 2104 :                                         LIBMANWindow,(HMENU)ID_EXPORT_SYMBOLS2,hInstance,NULL);
; 2105 :   }
; 2106 :   ShowWindow(ExportSymbolsButton2,SW_SHOW);

  00e13	8b f4		 mov	 esi, esp
  00e15	6a 05		 push	 5
  00e17	a1 00 00 00 00	 mov	 eax, DWORD PTR _ExportSymbolsButton2
  00e1c	50		 push	 eax
  00e1d	ff 15 00 00 00
	00		 call	 DWORD PTR __imp__ShowWindow@8
  00e23	3b f4		 cmp	 esi, esp
  00e25	e8 00 00 00 00	 call	 __RTC_CheckEsp

; 2107 :   Utf8ToUnicode(SC(37,"Deselect all"),Wstr,200);

  00e2a	68 c8 00 00 00	 push	 200			; 000000c8H
  00e2f	8d 85 d4 fb ff
	ff		 lea	 eax, DWORD PTR _Wstr$[ebp]
  00e35	50		 push	 eax
  00e36	68 00 00 00 00	 push	 OFFSET ??_C@_0N@KPCPMOND@Deselect?5all?$AA@
  00e3b	6a 25		 push	 37			; 00000025H
  00e3d	e8 00 00 00 00	 call	 _StringConvert
  00e42	83 c4 08	 add	 esp, 8
  00e45	50		 push	 eax
  00e46	e8 00 00 00 00	 call	 _Utf8ToUnicode
  00e4b	83 c4 0c	 add	 esp, 12			; 0000000cH

; 2108 :   DeselectAllButton2 = CreateWindowW(L"BUTTON",Wstr,WS_CHILD,

  00e4e	8b f4		 mov	 esi, esp
  00e50	6a 00		 push	 0
  00e52	8b 45 08	 mov	 eax, DWORD PTR _hInstance$[ebp]
  00e55	50		 push	 eax
  00e56	68 3e 08 00 00	 push	 2110			; 0000083eH
  00e5b	8b 0d 00 00 00
	00		 mov	 ecx, DWORD PTR _LIBMANWindow
  00e61	51		 push	 ecx
  00e62	8b 15 00 00 00
	00		 mov	 edx, DWORD PTR _ButtonSizeY
  00e68	52		 push	 edx
  00e69	a1 00 00 00 00	 mov	 eax, DWORD PTR _ButtonSizeX
  00e6e	50		 push	 eax
  00e6f	8b 0d 00 00 00
	00		 mov	 ecx, DWORD PTR _ButtonStepY
  00e75	8b 15 0c 00 00
	00		 mov	 edx, DWORD PTR _RectListWindow2+12
  00e7b	8d 44 4a 0e	 lea	 eax, DWORD PTR [edx+ecx*2+14]
  00e7f	50		 push	 eax
  00e80	6b 0d 00 00 00
	00 00		 imul	 ecx, DWORD PTR _ButtonStepX, 0
  00e87	03 0d 00 00 00
	00		 add	 ecx, DWORD PTR _RectListWindow2
  00e8d	51		 push	 ecx
  00e8e	68 00 00 00 40	 push	 1073741824		; 40000000H
  00e93	8d 95 d4 fb ff
	ff		 lea	 edx, DWORD PTR _Wstr$[ebp]
  00e99	52		 push	 edx
  00e9a	68 00 00 00 00	 push	 OFFSET ??_C@_1O@MOBNNEMB@?$AAB?$AAU?$AAT?$AAT?$AAO?$AAN?$AA?$AA@
  00e9f	6a 00		 push	 0
  00ea1	ff 15 00 00 00
	00		 call	 DWORD PTR __imp__CreateWindowExW@48
  00ea7	3b f4		 cmp	 esi, esp
  00ea9	e8 00 00 00 00	 call	 __RTC_CheckEsp
  00eae	a3 00 00 00 00	 mov	 DWORD PTR _DeselectAllButton2, eax

; 2109 :                                     RectListWindow2.left+ButtonStepX*0,RectListWindow2.bottom+ButtonStepY*2+14,
; 2110 :                                     ButtonSizeX,ButtonSizeY,
; 2111 :                                     LIBMANWindow,(HMENU)ID_DESELECT_ALL2,hInstance,NULL);
; 2112 :   ShowWindow(DeselectAllButton2,SW_SHOW);

  00eb3	8b f4		 mov	 esi, esp
  00eb5	6a 05		 push	 5
  00eb7	a1 00 00 00 00	 mov	 eax, DWORD PTR _DeselectAllButton2
  00ebc	50		 push	 eax
  00ebd	ff 15 00 00 00
	00		 call	 DWORD PTR __imp__ShowWindow@8
  00ec3	3b f4		 cmp	 esi, esp
  00ec5	e8 00 00 00 00	 call	 __RTC_CheckEsp

; 2113 :   Utf8ToUnicode(SC(58,"Select all"),Wstr,200);

  00eca	68 c8 00 00 00	 push	 200			; 000000c8H
  00ecf	8d 85 d4 fb ff
	ff		 lea	 eax, DWORD PTR _Wstr$[ebp]
  00ed5	50		 push	 eax
  00ed6	68 00 00 00 00	 push	 OFFSET ??_C@_0L@IAIFFGEP@Select?5all?$AA@
  00edb	6a 3a		 push	 58			; 0000003aH
  00edd	e8 00 00 00 00	 call	 _StringConvert
  00ee2	83 c4 08	 add	 esp, 8
  00ee5	50		 push	 eax
  00ee6	e8 00 00 00 00	 call	 _Utf8ToUnicode
  00eeb	83 c4 0c	 add	 esp, 12			; 0000000cH

; 2114 :   SelectAllButton2 = CreateWindowW(L"BUTTON",Wstr,WS_CHILD,

  00eee	8b f4		 mov	 esi, esp
  00ef0	6a 00		 push	 0
  00ef2	8b 45 08	 mov	 eax, DWORD PTR _hInstance$[ebp]
  00ef5	50		 push	 eax
  00ef6	68 55 08 00 00	 push	 2133			; 00000855H
  00efb	8b 0d 00 00 00
	00		 mov	 ecx, DWORD PTR _LIBMANWindow
  00f01	51		 push	 ecx
  00f02	8b 15 00 00 00
	00		 mov	 edx, DWORD PTR _ButtonSizeY
  00f08	52		 push	 edx
  00f09	a1 00 00 00 00	 mov	 eax, DWORD PTR _ButtonSizeX
  00f0e	50		 push	 eax
  00f0f	8b 0d 00 00 00
	00		 mov	 ecx, DWORD PTR _ButtonStepY
  00f15	8b 15 0c 00 00
	00		 mov	 edx, DWORD PTR _RectListWindow2+12
  00f1b	8d 44 4a 0e	 lea	 eax, DWORD PTR [edx+ecx*2+14]
  00f1f	50		 push	 eax
  00f20	8b 0d 00 00 00
	00		 mov	 ecx, DWORD PTR _RectListWindow2
  00f26	03 0d 00 00 00
	00		 add	 ecx, DWORD PTR _ButtonStepX
  00f2c	51		 push	 ecx
  00f2d	68 00 00 00 40	 push	 1073741824		; 40000000H
  00f32	8d 95 d4 fb ff
	ff		 lea	 edx, DWORD PTR _Wstr$[ebp]
  00f38	52		 push	 edx
  00f39	68 00 00 00 00	 push	 OFFSET ??_C@_1O@MOBNNEMB@?$AAB?$AAU?$AAT?$AAT?$AAO?$AAN?$AA?$AA@
  00f3e	6a 00		 push	 0
  00f40	ff 15 00 00 00
	00		 call	 DWORD PTR __imp__CreateWindowExW@48
  00f46	3b f4		 cmp	 esi, esp
  00f48	e8 00 00 00 00	 call	 __RTC_CheckEsp
  00f4d	a3 00 00 00 00	 mov	 DWORD PTR _SelectAllButton2, eax

; 2115 :                                     RectListWindow2.left+ButtonStepX*1,RectListWindow2.bottom+ButtonStepY*2+14,
; 2116 :                                     ButtonSizeX,ButtonSizeY,
; 2117 :                                     LIBMANWindow,(HMENU)ID_SELECT_ALL2,hInstance,NULL);
; 2118 :   ShowWindow(SelectAllButton2,SW_SHOW);

  00f52	8b f4		 mov	 esi, esp
  00f54	6a 05		 push	 5
  00f56	a1 00 00 00 00	 mov	 eax, DWORD PTR _SelectAllButton2
  00f5b	50		 push	 eax
  00f5c	ff 15 00 00 00
	00		 call	 DWORD PTR __imp__ShowWindow@8
  00f62	3b f4		 cmp	 esi, esp
  00f64	e8 00 00 00 00	 call	 __RTC_CheckEsp

; 2119 :   if (LibraryMode==0) {

  00f69	83 3d 00 00 00
	00 00		 cmp	 DWORD PTR _LibraryMode, 0
  00f70	0f 85 8e 00 00
	00		 jne	 $LN10@CreateWind

; 2120 :     Utf8ToUnicode(SC(38,"Delete symbols"),Wstr,200);

  00f76	68 c8 00 00 00	 push	 200			; 000000c8H
  00f7b	8d 85 d4 fb ff
	ff		 lea	 eax, DWORD PTR _Wstr$[ebp]
  00f81	50		 push	 eax
  00f82	68 00 00 00 00	 push	 OFFSET ??_C@_0P@JFIENDBP@Delete?5symbols?$AA@
  00f87	6a 26		 push	 38			; 00000026H
  00f89	e8 00 00 00 00	 call	 _StringConvert
  00f8e	83 c4 08	 add	 esp, 8
  00f91	50		 push	 eax
  00f92	e8 00 00 00 00	 call	 _Utf8ToUnicode
  00f97	83 c4 0c	 add	 esp, 12			; 0000000cH

; 2121 :     DeleteSymbolsButton2 = CreateWindowW(L"BUTTON",Wstr,WS_CHILD,

  00f9a	8b f4		 mov	 esi, esp
  00f9c	6a 00		 push	 0
  00f9e	8b 45 08	 mov	 eax, DWORD PTR _hInstance$[ebp]
  00fa1	50		 push	 eax
  00fa2	68 3c 08 00 00	 push	 2108			; 0000083cH
  00fa7	8b 0d 00 00 00
	00		 mov	 ecx, DWORD PTR _LIBMANWindow
  00fad	51		 push	 ecx
  00fae	8b 15 00 00 00
	00		 mov	 edx, DWORD PTR _ButtonSizeY
  00fb4	52		 push	 edx
  00fb5	a1 00 00 00 00	 mov	 eax, DWORD PTR _ButtonSizeX
  00fba	50		 push	 eax
  00fbb	8b 0d 00 00 00
	00		 mov	 ecx, DWORD PTR _ButtonStepY
  00fc1	8b 15 0c 00 00
	00		 mov	 edx, DWORD PTR _RectListWindow2+12
  00fc7	8d 44 0a 0e	 lea	 eax, DWORD PTR [edx+ecx+14]
  00fcb	50		 push	 eax
  00fcc	6b 0d 00 00 00
	00 00		 imul	 ecx, DWORD PTR _ButtonStepX, 0
  00fd3	03 0d 00 00 00
	00		 add	 ecx, DWORD PTR _RectListWindow2
  00fd9	51		 push	 ecx
  00fda	68 00 00 00 40	 push	 1073741824		; 40000000H
  00fdf	8d 95 d4 fb ff
	ff		 lea	 edx, DWORD PTR _Wstr$[ebp]
  00fe5	52		 push	 edx
  00fe6	68 00 00 00 00	 push	 OFFSET ??_C@_1O@MOBNNEMB@?$AAB?$AAU?$AAT?$AAT?$AAO?$AAN?$AA?$AA@
  00feb	6a 00		 push	 0
  00fed	ff 15 00 00 00
	00		 call	 DWORD PTR __imp__CreateWindowExW@48
  00ff3	3b f4		 cmp	 esi, esp
  00ff5	e8 00 00 00 00	 call	 __RTC_CheckEsp
  00ffa	a3 00 00 00 00	 mov	 DWORD PTR _DeleteSymbolsButton2, eax

; 2122 :                                         RectListWindow2.left+ButtonStepX*0,RectListWindow2.bottom+ButtonStepY*1+14,
; 2123 :                                         ButtonSizeX,ButtonSizeY,
; 2124 :                                         LIBMANWindow,(HMENU)ID_DELETE_SYMBOLS2,hInstance,NULL);
; 2125 :   } else {

  00fff	e9 89 00 00 00	 jmp	 $LN11@CreateWind
$LN10@CreateWind:

; 2126 :     Utf8ToUnicode(SC(57,"Delete geometries"),Wstr,200);

  01004	68 c8 00 00 00	 push	 200			; 000000c8H
  01009	8d 85 d4 fb ff
	ff		 lea	 eax, DWORD PTR _Wstr$[ebp]
  0100f	50		 push	 eax
  01010	68 00 00 00 00	 push	 OFFSET ??_C@_0BC@PJGELEEH@Delete?5geometries?$AA@
  01015	6a 39		 push	 57			; 00000039H
  01017	e8 00 00 00 00	 call	 _StringConvert
  0101c	83 c4 08	 add	 esp, 8
  0101f	50		 push	 eax
  01020	e8 00 00 00 00	 call	 _Utf8ToUnicode
  01025	83 c4 0c	 add	 esp, 12			; 0000000cH

; 2127 :     DeleteSymbolsButton2 = CreateWindowW(L"BUTTON",Wstr,WS_CHILD,

  01028	8b f4		 mov	 esi, esp
  0102a	6a 00		 push	 0
  0102c	8b 45 08	 mov	 eax, DWORD PTR _hInstance$[ebp]
  0102f	50		 push	 eax
  01030	68 3c 08 00 00	 push	 2108			; 0000083cH
  01035	8b 0d 00 00 00
	00		 mov	 ecx, DWORD PTR _LIBMANWindow
  0103b	51		 push	 ecx
  0103c	8b 15 00 00 00
	00		 mov	 edx, DWORD PTR _ButtonSizeY
  01042	52		 push	 edx
  01043	a1 00 00 00 00	 mov	 eax, DWORD PTR _ButtonSizeX
  01048	50		 push	 eax
  01049	8b 0d 00 00 00
	00		 mov	 ecx, DWORD PTR _ButtonStepY
  0104f	8b 15 0c 00 00
	00		 mov	 edx, DWORD PTR _RectListWindow2+12
  01055	8d 44 0a 0e	 lea	 eax, DWORD PTR [edx+ecx+14]
  01059	50		 push	 eax
  0105a	6b 0d 00 00 00
	00 00		 imul	 ecx, DWORD PTR _ButtonStepX, 0
  01061	03 0d 00 00 00
	00		 add	 ecx, DWORD PTR _RectListWindow2
  01067	51		 push	 ecx
  01068	68 00 00 00 40	 push	 1073741824		; 40000000H
  0106d	8d 95 d4 fb ff
	ff		 lea	 edx, DWORD PTR _Wstr$[ebp]
  01073	52		 push	 edx
  01074	68 00 00 00 00	 push	 OFFSET ??_C@_1O@MOBNNEMB@?$AAB?$AAU?$AAT?$AAT?$AAO?$AAN?$AA?$AA@
  01079	6a 00		 push	 0
  0107b	ff 15 00 00 00
	00		 call	 DWORD PTR __imp__CreateWindowExW@48
  01081	3b f4		 cmp	 esi, esp
  01083	e8 00 00 00 00	 call	 __RTC_CheckEsp
  01088	a3 00 00 00 00	 mov	 DWORD PTR _DeleteSymbolsButton2, eax
$LN11@CreateWind:

; 2128 :                                         RectListWindow2.left+ButtonStepX*0,RectListWindow2.bottom+ButtonStepY*1+14,
; 2129 :                                         ButtonSizeX,ButtonSizeY,
; 2130 :                                         LIBMANWindow,(HMENU)ID_DELETE_SYMBOLS2,hInstance,NULL);
; 2131 :   }
; 2132 :   ShowWindow(DeleteSymbolsButton2,SW_SHOW);

  0108d	8b f4		 mov	 esi, esp
  0108f	6a 05		 push	 5
  01091	a1 00 00 00 00	 mov	 eax, DWORD PTR _DeleteSymbolsButton2
  01096	50		 push	 eax
  01097	ff 15 00 00 00
	00		 call	 DWORD PTR __imp__ShowWindow@8
  0109d	3b f4		 cmp	 esi, esp
  0109f	e8 00 00 00 00	 call	 __RTC_CheckEsp

; 2133 : 
; 2134 :   Utf8ToUnicode(SC(41," Copy"),Wstr,200);

  010a4	68 c8 00 00 00	 push	 200			; 000000c8H
  010a9	8d 85 d4 fb ff
	ff		 lea	 eax, DWORD PTR _Wstr$[ebp]
  010af	50		 push	 eax
  010b0	68 00 00 00 00	 push	 OFFSET ??_C@_08IFJMFLCA@?b?$JH?$IE?5Copy?$AA@
  010b5	6a 29		 push	 41			; 00000029H
  010b7	e8 00 00 00 00	 call	 _StringConvert
  010bc	83 c4 08	 add	 esp, 8
  010bf	50		 push	 eax
  010c0	e8 00 00 00 00	 call	 _Utf8ToUnicode
  010c5	83 c4 0c	 add	 esp, 12			; 0000000cH

; 2135 : //  Utf8ToUnicode(SC(41,"<- Copy"),Wstr,200);
; 2136 :   CopyButton2 = CreateWindowW(L"BUTTON",Wstr,WS_CHILD,

  010c8	8b f4		 mov	 esi, esp
  010ca	6a 00		 push	 0
  010cc	8b 45 08	 mov	 eax, DWORD PTR _hInstance$[ebp]
  010cf	50		 push	 eax
  010d0	68 38 08 00 00	 push	 2104			; 00000838H
  010d5	8b 0d 00 00 00
	00		 mov	 ecx, DWORD PTR _LIBMANWindow
  010db	51		 push	 ecx
  010dc	8b 15 00 00 00
	00		 mov	 edx, DWORD PTR _ButtonSizeY
  010e2	52		 push	 edx
  010e3	a1 00 00 00 00	 mov	 eax, DWORD PTR _ButtonSizeX
  010e8	50		 push	 eax
  010e9	68 dc 00 00 00	 push	 220			; 000000dcH
  010ee	8b 0d 00 00 00
	00		 mov	 ecx, DWORD PTR _RectListWindow2
  010f4	2b 0d 00 00 00
	00		 sub	 ecx, DWORD PTR _ButtonSizeX
  010fa	83 e9 0f	 sub	 ecx, 15			; 0000000fH
  010fd	51		 push	 ecx
  010fe	68 00 00 00 40	 push	 1073741824		; 40000000H
  01103	8d 95 d4 fb ff
	ff		 lea	 edx, DWORD PTR _Wstr$[ebp]
  01109	52		 push	 edx
  0110a	68 00 00 00 00	 push	 OFFSET ??_C@_1O@MOBNNEMB@?$AAB?$AAU?$AAT?$AAT?$AAO?$AAN?$AA?$AA@
  0110f	6a 00		 push	 0
  01111	ff 15 00 00 00
	00		 call	 DWORD PTR __imp__CreateWindowExW@48
  01117	3b f4		 cmp	 esi, esp
  01119	e8 00 00 00 00	 call	 __RTC_CheckEsp
  0111e	a3 00 00 00 00	 mov	 DWORD PTR _CopyButton2, eax

; 2137 :                              RectListWindow2.left-ButtonSizeX-15,220,ButtonSizeX,ButtonSizeY,
; 2138 :                              LIBMANWindow,(HMENU)ID_COPY_SYMBOLS2,hInstance,NULL);
; 2139 :   ShowWindow(CopyButton2,SW_SHOW);

  01123	8b f4		 mov	 esi, esp
  01125	6a 05		 push	 5
  01127	a1 00 00 00 00	 mov	 eax, DWORD PTR _CopyButton2
  0112c	50		 push	 eax
  0112d	ff 15 00 00 00
	00		 call	 DWORD PTR __imp__ShowWindow@8
  01133	3b f4		 cmp	 esi, esp
  01135	e8 00 00 00 00	 call	 __RTC_CheckEsp

; 2140 :   Utf8ToUnicode(SC(42," Move"),Wstr,200);

  0113a	68 c8 00 00 00	 push	 200			; 000000c8H
  0113f	8d 85 d4 fb ff
	ff		 lea	 eax, DWORD PTR _Wstr$[ebp]
  01145	50		 push	 eax
  01146	68 00 00 00 00	 push	 OFFSET ??_C@_08NIFGMEKO@?b?$JH?$IE?5Move?$AA@
  0114b	6a 2a		 push	 42			; 0000002aH
  0114d	e8 00 00 00 00	 call	 _StringConvert
  01152	83 c4 08	 add	 esp, 8
  01155	50		 push	 eax
  01156	e8 00 00 00 00	 call	 _Utf8ToUnicode
  0115b	83 c4 0c	 add	 esp, 12			; 0000000cH

; 2141 : //  Utf8ToUnicode(SC(42,"<- Move"),Wstr,200);
; 2142 :   MoveButton2 = CreateWindowW(L"BUTTON",Wstr,WS_CHILD,

  0115e	8b f4		 mov	 esi, esp
  01160	6a 00		 push	 0
  01162	8b 45 08	 mov	 eax, DWORD PTR _hInstance$[ebp]
  01165	50		 push	 eax
  01166	68 4b 08 00 00	 push	 2123			; 0000084bH
  0116b	8b 0d 00 00 00
	00		 mov	 ecx, DWORD PTR _LIBMANWindow
  01171	51		 push	 ecx
  01172	8b 15 00 00 00
	00		 mov	 edx, DWORD PTR _ButtonSizeY
  01178	52		 push	 edx
  01179	a1 00 00 00 00	 mov	 eax, DWORD PTR _ButtonSizeX
  0117e	50		 push	 eax
  0117f	68 04 01 00 00	 push	 260			; 00000104H
  01184	8b 0d 00 00 00
	00		 mov	 ecx, DWORD PTR _RectListWindow2
  0118a	2b 0d 00 00 00
	00		 sub	 ecx, DWORD PTR _ButtonSizeX
  01190	83 e9 0f	 sub	 ecx, 15			; 0000000fH
  01193	51		 push	 ecx
  01194	68 00 00 00 40	 push	 1073741824		; 40000000H
  01199	8d 95 d4 fb ff
	ff		 lea	 edx, DWORD PTR _Wstr$[ebp]
  0119f	52		 push	 edx
  011a0	68 00 00 00 00	 push	 OFFSET ??_C@_1O@MOBNNEMB@?$AAB?$AAU?$AAT?$AAT?$AAO?$AAN?$AA?$AA@
  011a5	6a 00		 push	 0
  011a7	ff 15 00 00 00
	00		 call	 DWORD PTR __imp__CreateWindowExW@48
  011ad	3b f4		 cmp	 esi, esp
  011af	e8 00 00 00 00	 call	 __RTC_CheckEsp
  011b4	a3 00 00 00 00	 mov	 DWORD PTR _MoveButton2, eax

; 2143 :                              RectListWindow2.left-ButtonSizeX-15,260,ButtonSizeX,ButtonSizeY,
; 2144 :                              LIBMANWindow,(HMENU)ID_MOVE_SYMBOLS2,hInstance,NULL);
; 2145 :   ShowWindow(MoveButton2,SW_SHOW);

  011b9	8b f4		 mov	 esi, esp
  011bb	6a 05		 push	 5
  011bd	a1 00 00 00 00	 mov	 eax, DWORD PTR _MoveButton2
  011c2	50		 push	 eax
  011c3	ff 15 00 00 00
	00		 call	 DWORD PTR __imp__ShowWindow@8
  011c9	3b f4		 cmp	 esi, esp
  011cb	e8 00 00 00 00	 call	 __RTC_CheckEsp

; 2146 : 
; 2147 :   res=SendMessage(ListWindow1,WM_SETFONT,(WPARAM)NewFont,1);

  011d0	8b f4		 mov	 esi, esp
  011d2	6a 01		 push	 1
  011d4	a1 00 00 00 00	 mov	 eax, DWORD PTR _NewFont
  011d9	50		 push	 eax
  011da	6a 30		 push	 48			; 00000030H
  011dc	8b 0d 00 00 00
	00		 mov	 ecx, DWORD PTR _ListWindow1
  011e2	51		 push	 ecx
  011e3	ff 15 00 00 00
	00		 call	 DWORD PTR __imp__SendMessageA@16
  011e9	3b f4		 cmp	 esi, esp
  011eb	e8 00 00 00 00	 call	 __RTC_CheckEsp
  011f0	89 45 f4	 mov	 DWORD PTR _res$[ebp], eax

; 2148 :   res=SendMessage(ListWindow2,WM_SETFONT,(WPARAM)NewFont,1);

  011f3	8b f4		 mov	 esi, esp
  011f5	6a 01		 push	 1
  011f7	a1 00 00 00 00	 mov	 eax, DWORD PTR _NewFont
  011fc	50		 push	 eax
  011fd	6a 30		 push	 48			; 00000030H
  011ff	8b 0d 00 00 00
	00		 mov	 ecx, DWORD PTR _ListWindow2
  01205	51		 push	 ecx
  01206	ff 15 00 00 00
	00		 call	 DWORD PTR __imp__SendMessageA@16
  0120c	3b f4		 cmp	 esi, esp
  0120e	e8 00 00 00 00	 call	 __RTC_CheckEsp
  01213	89 45 f4	 mov	 DWORD PTR _res$[ebp], eax

; 2149 : 
; 2150 : 
; 2151 :   res=SendMessage(CreateNewLibButton1 ,WM_SETFONT,(WPARAM)NewFont,1);

  01216	8b f4		 mov	 esi, esp
  01218	6a 01		 push	 1
  0121a	a1 00 00 00 00	 mov	 eax, DWORD PTR _NewFont
  0121f	50		 push	 eax
  01220	6a 30		 push	 48			; 00000030H
  01222	8b 0d 00 00 00
	00		 mov	 ecx, DWORD PTR _CreateNewLibButton1
  01228	51		 push	 ecx
  01229	ff 15 00 00 00
	00		 call	 DWORD PTR __imp__SendMessageA@16
  0122f	3b f4		 cmp	 esi, esp
  01231	e8 00 00 00 00	 call	 __RTC_CheckEsp
  01236	89 45 f4	 mov	 DWORD PTR _res$[ebp], eax

; 2152 :   res=SendMessage(OpenLibButton1      ,WM_SETFONT,(WPARAM)NewFont,1);

  01239	8b f4		 mov	 esi, esp
  0123b	6a 01		 push	 1
  0123d	a1 00 00 00 00	 mov	 eax, DWORD PTR _NewFont
  01242	50		 push	 eax
  01243	6a 30		 push	 48			; 00000030H
  01245	8b 0d 00 00 00
	00		 mov	 ecx, DWORD PTR _OpenLibButton1
  0124b	51		 push	 ecx
  0124c	ff 15 00 00 00
	00		 call	 DWORD PTR __imp__SendMessageA@16
  01252	3b f4		 cmp	 esi, esp
  01254	e8 00 00 00 00	 call	 __RTC_CheckEsp
  01259	89 45 f4	 mov	 DWORD PTR _res$[ebp], eax

; 2153 :   res=SendMessage(SaveLibButton1      ,WM_SETFONT,(WPARAM)NewFont,1);

  0125c	8b f4		 mov	 esi, esp
  0125e	6a 01		 push	 1
  01260	a1 00 00 00 00	 mov	 eax, DWORD PTR _NewFont
  01265	50		 push	 eax
  01266	6a 30		 push	 48			; 00000030H
  01268	8b 0d 00 00 00
	00		 mov	 ecx, DWORD PTR _SaveLibButton1
  0126e	51		 push	 ecx
  0126f	ff 15 00 00 00
	00		 call	 DWORD PTR __imp__SendMessageA@16
  01275	3b f4		 cmp	 esi, esp
  01277	e8 00 00 00 00	 call	 __RTC_CheckEsp
  0127c	89 45 f4	 mov	 DWORD PTR _res$[ebp], eax

; 2154 :   res=SendMessage(CloseLibButton1     ,WM_SETFONT,(WPARAM)NewFont,1);

  0127f	8b f4		 mov	 esi, esp
  01281	6a 01		 push	 1
  01283	a1 00 00 00 00	 mov	 eax, DWORD PTR _NewFont
  01288	50		 push	 eax
  01289	6a 30		 push	 48			; 00000030H
  0128b	8b 0d 00 00 00
	00		 mov	 ecx, DWORD PTR _CloseLibButton1
  01291	51		 push	 ecx
  01292	ff 15 00 00 00
	00		 call	 DWORD PTR __imp__SendMessageA@16
  01298	3b f4		 cmp	 esi, esp
  0129a	e8 00 00 00 00	 call	 __RTC_CheckEsp
  0129f	89 45 f4	 mov	 DWORD PTR _res$[ebp], eax

; 2155 :   res=SendMessage(ImportSymbolsButton1,WM_SETFONT,(WPARAM)NewFont,1);

  012a2	8b f4		 mov	 esi, esp
  012a4	6a 01		 push	 1
  012a6	a1 00 00 00 00	 mov	 eax, DWORD PTR _NewFont
  012ab	50		 push	 eax
  012ac	6a 30		 push	 48			; 00000030H
  012ae	8b 0d 00 00 00
	00		 mov	 ecx, DWORD PTR _ImportSymbolsButton1
  012b4	51		 push	 ecx
  012b5	ff 15 00 00 00
	00		 call	 DWORD PTR __imp__SendMessageA@16
  012bb	3b f4		 cmp	 esi, esp
  012bd	e8 00 00 00 00	 call	 __RTC_CheckEsp
  012c2	89 45 f4	 mov	 DWORD PTR _res$[ebp], eax

; 2156 :   res=SendMessage(ExportSymbolsButton1,WM_SETFONT,(WPARAM)NewFont,1);

  012c5	8b f4		 mov	 esi, esp
  012c7	6a 01		 push	 1
  012c9	a1 00 00 00 00	 mov	 eax, DWORD PTR _NewFont
  012ce	50		 push	 eax
  012cf	6a 30		 push	 48			; 00000030H
  012d1	8b 0d 00 00 00
	00		 mov	 ecx, DWORD PTR _ExportSymbolsButton1
  012d7	51		 push	 ecx
  012d8	ff 15 00 00 00
	00		 call	 DWORD PTR __imp__SendMessageA@16
  012de	3b f4		 cmp	 esi, esp
  012e0	e8 00 00 00 00	 call	 __RTC_CheckEsp
  012e5	89 45 f4	 mov	 DWORD PTR _res$[ebp], eax

; 2157 :   res=SendMessage(DeleteSymbolsButton1,WM_SETFONT,(WPARAM)NewFont,1);

  012e8	8b f4		 mov	 esi, esp
  012ea	6a 01		 push	 1
  012ec	a1 00 00 00 00	 mov	 eax, DWORD PTR _NewFont
  012f1	50		 push	 eax
  012f2	6a 30		 push	 48			; 00000030H
  012f4	8b 0d 00 00 00
	00		 mov	 ecx, DWORD PTR _DeleteSymbolsButton1
  012fa	51		 push	 ecx
  012fb	ff 15 00 00 00
	00		 call	 DWORD PTR __imp__SendMessageA@16
  01301	3b f4		 cmp	 esi, esp
  01303	e8 00 00 00 00	 call	 __RTC_CheckEsp
  01308	89 45 f4	 mov	 DWORD PTR _res$[ebp], eax

; 2158 :   res=SendMessage(DeselectAllButton1  ,WM_SETFONT,(WPARAM)NewFont,1);

  0130b	8b f4		 mov	 esi, esp
  0130d	6a 01		 push	 1
  0130f	a1 00 00 00 00	 mov	 eax, DWORD PTR _NewFont
  01314	50		 push	 eax
  01315	6a 30		 push	 48			; 00000030H
  01317	8b 0d 00 00 00
	00		 mov	 ecx, DWORD PTR _DeselectAllButton1
  0131d	51		 push	 ecx
  0131e	ff 15 00 00 00
	00		 call	 DWORD PTR __imp__SendMessageA@16
  01324	3b f4		 cmp	 esi, esp
  01326	e8 00 00 00 00	 call	 __RTC_CheckEsp
  0132b	89 45 f4	 mov	 DWORD PTR _res$[ebp], eax

; 2159 :   res=SendMessage(SelectAllButton1    ,WM_SETFONT,(WPARAM)NewFont,1);

  0132e	8b f4		 mov	 esi, esp
  01330	6a 01		 push	 1
  01332	a1 00 00 00 00	 mov	 eax, DWORD PTR _NewFont
  01337	50		 push	 eax
  01338	6a 30		 push	 48			; 00000030H
  0133a	8b 0d 00 00 00
	00		 mov	 ecx, DWORD PTR _SelectAllButton1
  01340	51		 push	 ecx
  01341	ff 15 00 00 00
	00		 call	 DWORD PTR __imp__SendMessageA@16
  01347	3b f4		 cmp	 esi, esp
  01349	e8 00 00 00 00	 call	 __RTC_CheckEsp
  0134e	89 45 f4	 mov	 DWORD PTR _res$[ebp], eax

; 2160 :   res=SendMessage(CopyButton1         ,WM_SETFONT,(WPARAM)NewFont,1);

  01351	8b f4		 mov	 esi, esp
  01353	6a 01		 push	 1
  01355	a1 00 00 00 00	 mov	 eax, DWORD PTR _NewFont
  0135a	50		 push	 eax
  0135b	6a 30		 push	 48			; 00000030H
  0135d	8b 0d 00 00 00
	00		 mov	 ecx, DWORD PTR _CopyButton1
  01363	51		 push	 ecx
  01364	ff 15 00 00 00
	00		 call	 DWORD PTR __imp__SendMessageA@16
  0136a	3b f4		 cmp	 esi, esp
  0136c	e8 00 00 00 00	 call	 __RTC_CheckEsp
  01371	89 45 f4	 mov	 DWORD PTR _res$[ebp], eax

; 2161 :   res=SendMessage(MoveButton1         ,WM_SETFONT,(WPARAM)NewFont,1);

  01374	8b f4		 mov	 esi, esp
  01376	6a 01		 push	 1
  01378	a1 00 00 00 00	 mov	 eax, DWORD PTR _NewFont
  0137d	50		 push	 eax
  0137e	6a 30		 push	 48			; 00000030H
  01380	8b 0d 00 00 00
	00		 mov	 ecx, DWORD PTR _MoveButton1
  01386	51		 push	 ecx
  01387	ff 15 00 00 00
	00		 call	 DWORD PTR __imp__SendMessageA@16
  0138d	3b f4		 cmp	 esi, esp
  0138f	e8 00 00 00 00	 call	 __RTC_CheckEsp
  01394	89 45 f4	 mov	 DWORD PTR _res$[ebp], eax

; 2162 : 
; 2163 :   res=SendMessage(CreateNewLibButton2 ,WM_SETFONT,(WPARAM)NewFont,1);

  01397	8b f4		 mov	 esi, esp
  01399	6a 01		 push	 1
  0139b	a1 00 00 00 00	 mov	 eax, DWORD PTR _NewFont
  013a0	50		 push	 eax
  013a1	6a 30		 push	 48			; 00000030H
  013a3	8b 0d 00 00 00
	00		 mov	 ecx, DWORD PTR _CreateNewLibButton2
  013a9	51		 push	 ecx
  013aa	ff 15 00 00 00
	00		 call	 DWORD PTR __imp__SendMessageA@16
  013b0	3b f4		 cmp	 esi, esp
  013b2	e8 00 00 00 00	 call	 __RTC_CheckEsp
  013b7	89 45 f4	 mov	 DWORD PTR _res$[ebp], eax

; 2164 :   res=SendMessage(OpenLibButton2      ,WM_SETFONT,(WPARAM)NewFont,1);

  013ba	8b f4		 mov	 esi, esp
  013bc	6a 01		 push	 1
  013be	a1 00 00 00 00	 mov	 eax, DWORD PTR _NewFont
  013c3	50		 push	 eax
  013c4	6a 30		 push	 48			; 00000030H
  013c6	8b 0d 00 00 00
	00		 mov	 ecx, DWORD PTR _OpenLibButton2
  013cc	51		 push	 ecx
  013cd	ff 15 00 00 00
	00		 call	 DWORD PTR __imp__SendMessageA@16
  013d3	3b f4		 cmp	 esi, esp
  013d5	e8 00 00 00 00	 call	 __RTC_CheckEsp
  013da	89 45 f4	 mov	 DWORD PTR _res$[ebp], eax

; 2165 :   res=SendMessage(SaveLibButton2      ,WM_SETFONT,(WPARAM)NewFont,1);

  013dd	8b f4		 mov	 esi, esp
  013df	6a 01		 push	 1
  013e1	a1 00 00 00 00	 mov	 eax, DWORD PTR _NewFont
  013e6	50		 push	 eax
  013e7	6a 30		 push	 48			; 00000030H
  013e9	8b 0d 00 00 00
	00		 mov	 ecx, DWORD PTR _SaveLibButton2
  013ef	51		 push	 ecx
  013f0	ff 15 00 00 00
	00		 call	 DWORD PTR __imp__SendMessageA@16
  013f6	3b f4		 cmp	 esi, esp
  013f8	e8 00 00 00 00	 call	 __RTC_CheckEsp
  013fd	89 45 f4	 mov	 DWORD PTR _res$[ebp], eax

; 2166 :   res=SendMessage(CloseLibButton2     ,WM_SETFONT,(WPARAM)NewFont,1);

  01400	8b f4		 mov	 esi, esp
  01402	6a 01		 push	 1
  01404	a1 00 00 00 00	 mov	 eax, DWORD PTR _NewFont
  01409	50		 push	 eax
  0140a	6a 30		 push	 48			; 00000030H
  0140c	8b 0d 00 00 00
	00		 mov	 ecx, DWORD PTR _CloseLibButton2
  01412	51		 push	 ecx
  01413	ff 15 00 00 00
	00		 call	 DWORD PTR __imp__SendMessageA@16
  01419	3b f4		 cmp	 esi, esp
  0141b	e8 00 00 00 00	 call	 __RTC_CheckEsp
  01420	89 45 f4	 mov	 DWORD PTR _res$[ebp], eax

; 2167 :   res=SendMessage(ImportSymbolsButton2,WM_SETFONT,(WPARAM)NewFont,1);

  01423	8b f4		 mov	 esi, esp
  01425	6a 01		 push	 1
  01427	a1 00 00 00 00	 mov	 eax, DWORD PTR _NewFont
  0142c	50		 push	 eax
  0142d	6a 30		 push	 48			; 00000030H
  0142f	8b 0d 00 00 00
	00		 mov	 ecx, DWORD PTR _ImportSymbolsButton2
  01435	51		 push	 ecx
  01436	ff 15 00 00 00
	00		 call	 DWORD PTR __imp__SendMessageA@16
  0143c	3b f4		 cmp	 esi, esp
  0143e	e8 00 00 00 00	 call	 __RTC_CheckEsp
  01443	89 45 f4	 mov	 DWORD PTR _res$[ebp], eax

; 2168 :   res=SendMessage(ExportSymbolsButton2,WM_SETFONT,(WPARAM)NewFont,1);

  01446	8b f4		 mov	 esi, esp
  01448	6a 01		 push	 1
  0144a	a1 00 00 00 00	 mov	 eax, DWORD PTR _NewFont
  0144f	50		 push	 eax
  01450	6a 30		 push	 48			; 00000030H
  01452	8b 0d 00 00 00
	00		 mov	 ecx, DWORD PTR _ExportSymbolsButton2
  01458	51		 push	 ecx
  01459	ff 15 00 00 00
	00		 call	 DWORD PTR __imp__SendMessageA@16
  0145f	3b f4		 cmp	 esi, esp
  01461	e8 00 00 00 00	 call	 __RTC_CheckEsp
  01466	89 45 f4	 mov	 DWORD PTR _res$[ebp], eax

; 2169 :   res=SendMessage(DeleteSymbolsButton2,WM_SETFONT,(WPARAM)NewFont,1);

  01469	8b f4		 mov	 esi, esp
  0146b	6a 01		 push	 1
  0146d	a1 00 00 00 00	 mov	 eax, DWORD PTR _NewFont
  01472	50		 push	 eax
  01473	6a 30		 push	 48			; 00000030H
  01475	8b 0d 00 00 00
	00		 mov	 ecx, DWORD PTR _DeleteSymbolsButton2
  0147b	51		 push	 ecx
  0147c	ff 15 00 00 00
	00		 call	 DWORD PTR __imp__SendMessageA@16
  01482	3b f4		 cmp	 esi, esp
  01484	e8 00 00 00 00	 call	 __RTC_CheckEsp
  01489	89 45 f4	 mov	 DWORD PTR _res$[ebp], eax

; 2170 :   res=SendMessage(DeselectAllButton2  ,WM_SETFONT,(WPARAM)NewFont,1);

  0148c	8b f4		 mov	 esi, esp
  0148e	6a 01		 push	 1
  01490	a1 00 00 00 00	 mov	 eax, DWORD PTR _NewFont
  01495	50		 push	 eax
  01496	6a 30		 push	 48			; 00000030H
  01498	8b 0d 00 00 00
	00		 mov	 ecx, DWORD PTR _DeselectAllButton2
  0149e	51		 push	 ecx
  0149f	ff 15 00 00 00
	00		 call	 DWORD PTR __imp__SendMessageA@16
  014a5	3b f4		 cmp	 esi, esp
  014a7	e8 00 00 00 00	 call	 __RTC_CheckEsp
  014ac	89 45 f4	 mov	 DWORD PTR _res$[ebp], eax

; 2171 :   res=SendMessage(SelectAllButton2    ,WM_SETFONT,(WPARAM)NewFont,1);

  014af	8b f4		 mov	 esi, esp
  014b1	6a 01		 push	 1
  014b3	a1 00 00 00 00	 mov	 eax, DWORD PTR _NewFont
  014b8	50		 push	 eax
  014b9	6a 30		 push	 48			; 00000030H
  014bb	8b 0d 00 00 00
	00		 mov	 ecx, DWORD PTR _SelectAllButton2
  014c1	51		 push	 ecx
  014c2	ff 15 00 00 00
	00		 call	 DWORD PTR __imp__SendMessageA@16
  014c8	3b f4		 cmp	 esi, esp
  014ca	e8 00 00 00 00	 call	 __RTC_CheckEsp
  014cf	89 45 f4	 mov	 DWORD PTR _res$[ebp], eax

; 2172 :   res=SendMessage(CopyButton2         ,WM_SETFONT,(WPARAM)NewFont,1);

  014d2	8b f4		 mov	 esi, esp
  014d4	6a 01		 push	 1
  014d6	a1 00 00 00 00	 mov	 eax, DWORD PTR _NewFont
  014db	50		 push	 eax
  014dc	6a 30		 push	 48			; 00000030H
  014de	8b 0d 00 00 00
	00		 mov	 ecx, DWORD PTR _CopyButton2
  014e4	51		 push	 ecx
  014e5	ff 15 00 00 00
	00		 call	 DWORD PTR __imp__SendMessageA@16
  014eb	3b f4		 cmp	 esi, esp
  014ed	e8 00 00 00 00	 call	 __RTC_CheckEsp
  014f2	89 45 f4	 mov	 DWORD PTR _res$[ebp], eax

; 2173 :   res=SendMessage(MoveButton2         ,WM_SETFONT,(WPARAM)NewFont,1);

  014f5	8b f4		 mov	 esi, esp
  014f7	6a 01		 push	 1
  014f9	a1 00 00 00 00	 mov	 eax, DWORD PTR _NewFont
  014fe	50		 push	 eax
  014ff	6a 30		 push	 48			; 00000030H
  01501	8b 0d 00 00 00
	00		 mov	 ecx, DWORD PTR _MoveButton2
  01507	51		 push	 ecx
  01508	ff 15 00 00 00
	00		 call	 DWORD PTR __imp__SendMessageA@16
  0150e	3b f4		 cmp	 esi, esp
  01510	e8 00 00 00 00	 call	 __RTC_CheckEsp
  01515	89 45 f4	 mov	 DWORD PTR _res$[ebp], eax

; 2174 : 
; 2175 : }

  01518	52		 push	 edx
  01519	8b cd		 mov	 ecx, ebp
  0151b	50		 push	 eax
  0151c	8d 15 00 00 00
	00		 lea	 edx, DWORD PTR $LN16@CreateWind
  01522	e8 00 00 00 00	 call	 @_RTC_CheckStackVars@8
  01527	58		 pop	 eax
  01528	5a		 pop	 edx
  01529	5f		 pop	 edi
  0152a	5e		 pop	 esi
  0152b	5b		 pop	 ebx
  0152c	8b 4d fc	 mov	 ecx, DWORD PTR __$ArrayPad$[ebp]
  0152f	33 cd		 xor	 ecx, ebp
  01531	e8 00 00 00 00	 call	 @__security_check_cookie@4
  01536	81 c4 70 06 00
	00		 add	 esp, 1648		; 00000670H
  0153c	3b ec		 cmp	 ebp, esp
  0153e	e8 00 00 00 00	 call	 __RTC_CheckEsp
  01543	8b e5		 mov	 esp, ebp
  01545	5d		 pop	 ebp
  01546	c3		 ret	 0
  01547	90		 npad	 1
$LN16@CreateWind:
  01548	02 00 00 00	 DD	 2
  0154c	00 00 00 00	 DD	 $LN15@CreateWind
$LN15@CreateWind:
  01550	dc ff ff ff	 DD	 -36			; ffffffdcH
  01554	10 00 00 00	 DD	 16			; 00000010H
  01558	00 00 00 00	 DD	 $LN13@CreateWind
  0155c	d4 fb ff ff	 DD	 -1068			; fffffbd4H
  01560	00 04 00 00	 DD	 1024			; 00000400H
  01564	00 00 00 00	 DD	 $LN14@CreateWind
$LN14@CreateWind:
  01568	57		 DB	 87			; 00000057H
  01569	73		 DB	 115			; 00000073H
  0156a	74		 DB	 116			; 00000074H
  0156b	72		 DB	 114			; 00000072H
  0156c	00		 DB	 0
$LN13@CreateWind:
  0156d	4e		 DB	 78			; 0000004eH
  0156e	65		 DB	 101			; 00000065H
  0156f	77		 DB	 119			; 00000077H
  01570	52		 DB	 82			; 00000052H
  01571	65		 DB	 101			; 00000065H
  01572	63		 DB	 99			; 00000063H
  01573	74		 DB	 116			; 00000074H
  01574	00		 DB	 0
_CreateWindowObjects ENDP
_TEXT	ENDS
; Function compile flags: /Odtp /RTCsu /ZI
; File c:\notes\pcbeleg\software\libman\libman.c
;	COMDAT _PopupMenu
_TEXT	SEGMENT
_PopUpMenu$ = -8					; size = 4
_ListNr$ = 8						; size = 4
_mode$ = 12						; size = 4
_PopupMenu PROC						; COMDAT

; 1846 : {

  00000	55		 push	 ebp
  00001	8b ec		 mov	 ebp, esp
  00003	81 ec cc 00 00
	00		 sub	 esp, 204		; 000000ccH
  00009	53		 push	 ebx
  0000a	56		 push	 esi
  0000b	57		 push	 edi
  0000c	8d bd 34 ff ff
	ff		 lea	 edi, DWORD PTR [ebp-204]
  00012	b9 33 00 00 00	 mov	 ecx, 51			; 00000033H
  00017	b8 cc cc cc cc	 mov	 eax, -858993460		; ccccccccH
  0001c	f3 ab		 rep stosd

; 1847 :   HMENU  PopUpMenu;
; 1848 : 
; 1849 :   if (ListNr==0) {

  0001e	83 7d 08 00	 cmp	 DWORD PTR _ListNr$[ebp], 0
  00022	75 2b		 jne	 SHORT $LN2@PopupMenu

; 1850 :     SymbolsSelected=SendMessage(ListWindow1,LB_GETSELITEMS,MAX_NR_LIB_SYMBOLS+1,

  00024	8b f4		 mov	 esi, esp
  00026	68 00 00 00 00	 push	 OFFSET _LibIndex
  0002b	68 01 10 00 00	 push	 4097			; 00001001H
  00030	68 91 01 00 00	 push	 401			; 00000191H
  00035	a1 00 00 00 00	 mov	 eax, DWORD PTR _ListWindow1
  0003a	50		 push	 eax
  0003b	ff 15 00 00 00
	00		 call	 DWORD PTR __imp__SendMessageA@16
  00041	3b f4		 cmp	 esi, esp
  00043	e8 00 00 00 00	 call	 __RTC_CheckEsp
  00048	a3 00 00 00 00	 mov	 DWORD PTR _SymbolsSelected, eax

; 1851 :                                 (LPARAM)(LPINT)&LibIndex);
; 1852 :   } else {

  0004d	eb 29		 jmp	 SHORT $LN3@PopupMenu
$LN2@PopupMenu:

; 1853 :     SymbolsSelected=SendMessage(ListWindow2,LB_GETSELITEMS,MAX_NR_LIB_SYMBOLS+1,

  0004f	8b f4		 mov	 esi, esp
  00051	68 00 00 00 00	 push	 OFFSET _LibIndex
  00056	68 01 10 00 00	 push	 4097			; 00001001H
  0005b	68 91 01 00 00	 push	 401			; 00000191H
  00060	a1 00 00 00 00	 mov	 eax, DWORD PTR _ListWindow2
  00065	50		 push	 eax
  00066	ff 15 00 00 00
	00		 call	 DWORD PTR __imp__SendMessageA@16
  0006c	3b f4		 cmp	 esi, esp
  0006e	e8 00 00 00 00	 call	 __RTC_CheckEsp
  00073	a3 00 00 00 00	 mov	 DWORD PTR _SymbolsSelected, eax
$LN3@PopupMenu:

; 1854 :                                 (LPARAM)(LPINT)&LibIndex);
; 1855 :   }
; 1856 :   if (SymbolsSelected==1) {

  00078	83 3d 00 00 00
	00 01		 cmp	 DWORD PTR _SymbolsSelected, 1
  0007f	0f 85 9a 01 00
	00		 jne	 $LN1@PopupMenu

; 1857 :     if (mode==1) {

  00085	83 7d 0c 01	 cmp	 DWORD PTR _mode$[ebp], 1
  00089	75 4f		 jne	 SHORT $LN5@PopupMenu

; 1858 :       if (ListNr==0) {

  0008b	83 7d 08 00	 cmp	 DWORD PTR _ListNr$[ebp], 0
  0008f	75 23		 jne	 SHORT $LN6@PopupMenu

; 1859 :         PostMessage(LIBMANWindow,WM_COMMAND,(WPARAM)ID_EDIT_SYMBOL1,(LPARAM)0);

  00091	8b f4		 mov	 esi, esp
  00093	6a 00		 push	 0
  00095	68 3f 08 00 00	 push	 2111			; 0000083fH
  0009a	68 11 01 00 00	 push	 273			; 00000111H
  0009f	a1 00 00 00 00	 mov	 eax, DWORD PTR _LIBMANWindow
  000a4	50		 push	 eax
  000a5	ff 15 00 00 00
	00		 call	 DWORD PTR __imp__PostMessageA@16
  000ab	3b f4		 cmp	 esi, esp
  000ad	e8 00 00 00 00	 call	 __RTC_CheckEsp

; 1860 :       } else {

  000b2	eb 21		 jmp	 SHORT $LN7@PopupMenu
$LN6@PopupMenu:

; 1861 :         PostMessage(LIBMANWindow,WM_COMMAND,(WPARAM)ID_EDIT_SYMBOL2,(LPARAM)0);

  000b4	8b f4		 mov	 esi, esp
  000b6	6a 00		 push	 0
  000b8	68 40 08 00 00	 push	 2112			; 00000840H
  000bd	68 11 01 00 00	 push	 273			; 00000111H
  000c2	a1 00 00 00 00	 mov	 eax, DWORD PTR _LIBMANWindow
  000c7	50		 push	 eax
  000c8	ff 15 00 00 00
	00		 call	 DWORD PTR __imp__PostMessageA@16
  000ce	3b f4		 cmp	 esi, esp
  000d0	e8 00 00 00 00	 call	 __RTC_CheckEsp
$LN7@PopupMenu:

; 1862 :       }
; 1863 :       return;

  000d5	e9 45 01 00 00	 jmp	 $LN1@PopupMenu
$LN5@PopupMenu:

; 1864 :     }
; 1865 :     PopUpMenu=CreatePopupMenu();

  000da	8b f4		 mov	 esi, esp
  000dc	ff 15 00 00 00
	00		 call	 DWORD PTR __imp__CreatePopupMenu@0
  000e2	3b f4		 cmp	 esi, esp
  000e4	e8 00 00 00 00	 call	 __RTC_CheckEsp
  000e9	89 45 f8	 mov	 DWORD PTR _PopUpMenu$[ebp], eax

; 1866 :     if (LibraryMode==0) {

  000ec	83 3d 00 00 00
	00 00		 cmp	 DWORD PTR _LibraryMode, 0
  000f3	75 50		 jne	 SHORT $LN8@PopupMenu

; 1867 :       if (ListNr==0) {

  000f5	83 7d 08 00	 cmp	 DWORD PTR _ListNr$[ebp], 0
  000f9	75 25		 jne	 SHORT $LN10@PopupMenu

; 1868 :         AppendMenuUTF8(PopUpMenu,MF_ENABLED|MF_STRING,ID_EDIT_SYMBOL1,SC(29,"Edit symbol"));

  000fb	68 00 00 00 00	 push	 OFFSET ??_C@_0M@DOMPHBIC@Edit?5symbol?$AA@
  00100	6a 1d		 push	 29			; 0000001dH
  00102	e8 00 00 00 00	 call	 _StringConvert
  00107	83 c4 08	 add	 esp, 8
  0010a	50		 push	 eax
  0010b	68 3f 08 00 00	 push	 2111			; 0000083fH
  00110	6a 00		 push	 0
  00112	8b 45 f8	 mov	 eax, DWORD PTR _PopUpMenu$[ebp]
  00115	50		 push	 eax
  00116	e8 00 00 00 00	 call	 _AppendMenuUTF8
  0011b	83 c4 10	 add	 esp, 16			; 00000010H

; 1869 :       } else {

  0011e	eb 23		 jmp	 SHORT $LN11@PopupMenu
$LN10@PopupMenu:

; 1870 :         AppendMenuUTF8(PopUpMenu,MF_ENABLED|MF_STRING,ID_EDIT_SYMBOL2,SC(29,"Edit symbol"));

  00120	68 00 00 00 00	 push	 OFFSET ??_C@_0M@DOMPHBIC@Edit?5symbol?$AA@
  00125	6a 1d		 push	 29			; 0000001dH
  00127	e8 00 00 00 00	 call	 _StringConvert
  0012c	83 c4 08	 add	 esp, 8
  0012f	50		 push	 eax
  00130	68 40 08 00 00	 push	 2112			; 00000840H
  00135	6a 00		 push	 0
  00137	8b 45 f8	 mov	 eax, DWORD PTR _PopUpMenu$[ebp]
  0013a	50		 push	 eax
  0013b	e8 00 00 00 00	 call	 _AppendMenuUTF8
  00140	83 c4 10	 add	 esp, 16			; 00000010H
$LN11@PopupMenu:

; 1871 :       }
; 1872 :     } else {

  00143	eb 4e		 jmp	 SHORT $LN9@PopupMenu
$LN8@PopupMenu:

; 1873 :       if (ListNr==0) {

  00145	83 7d 08 00	 cmp	 DWORD PTR _ListNr$[ebp], 0
  00149	75 25		 jne	 SHORT $LN12@PopupMenu

; 1874 :         AppendMenuUTF8(PopUpMenu,MF_ENABLED|MF_STRING,ID_EDIT_SYMBOL1,SC(30,"Edit geometry"));

  0014b	68 00 00 00 00	 push	 OFFSET ??_C@_0O@OENDAIBJ@Edit?5geometry?$AA@
  00150	6a 1e		 push	 30			; 0000001eH
  00152	e8 00 00 00 00	 call	 _StringConvert
  00157	83 c4 08	 add	 esp, 8
  0015a	50		 push	 eax
  0015b	68 3f 08 00 00	 push	 2111			; 0000083fH
  00160	6a 00		 push	 0
  00162	8b 45 f8	 mov	 eax, DWORD PTR _PopUpMenu$[ebp]
  00165	50		 push	 eax
  00166	e8 00 00 00 00	 call	 _AppendMenuUTF8
  0016b	83 c4 10	 add	 esp, 16			; 00000010H

; 1875 :       } else {

  0016e	eb 23		 jmp	 SHORT $LN9@PopupMenu
$LN12@PopupMenu:

; 1876 :         AppendMenuUTF8(PopUpMenu,MF_ENABLED|MF_STRING,ID_EDIT_SYMBOL2,SC(30,"Edit geometry"));

  00170	68 00 00 00 00	 push	 OFFSET ??_C@_0O@OENDAIBJ@Edit?5geometry?$AA@
  00175	6a 1e		 push	 30			; 0000001eH
  00177	e8 00 00 00 00	 call	 _StringConvert
  0017c	83 c4 08	 add	 esp, 8
  0017f	50		 push	 eax
  00180	68 40 08 00 00	 push	 2112			; 00000840H
  00185	6a 00		 push	 0
  00187	8b 45 f8	 mov	 eax, DWORD PTR _PopUpMenu$[ebp]
  0018a	50		 push	 eax
  0018b	e8 00 00 00 00	 call	 _AppendMenuUTF8
  00190	83 c4 10	 add	 esp, 16			; 00000010H
$LN9@PopupMenu:

; 1877 :       }
; 1878 :     }
; 1879 :     AppendMenuUTF8(PopUpMenu,MF_ENABLED|MF_SEPARATOR,0,0);

  00193	6a 00		 push	 0
  00195	6a 00		 push	 0
  00197	68 00 08 00 00	 push	 2048			; 00000800H
  0019c	8b 45 f8	 mov	 eax, DWORD PTR _PopUpMenu$[ebp]
  0019f	50		 push	 eax
  001a0	e8 00 00 00 00	 call	 _AppendMenuUTF8
  001a5	83 c4 10	 add	 esp, 16			; 00000010H

; 1880 :     AppendMenuUTF8(PopUpMenu,MF_ENABLED|MF_STRING,ID_ESCAPE,SC(31,"Exit popup menu"));

  001a8	68 00 00 00 00	 push	 OFFSET ??_C@_0BA@JCADGPII@Exit?5popup?5menu?$AA@
  001ad	6a 1f		 push	 31			; 0000001fH
  001af	e8 00 00 00 00	 call	 _StringConvert
  001b4	83 c4 08	 add	 esp, 8
  001b7	50		 push	 eax
  001b8	68 41 08 00 00	 push	 2113			; 00000841H
  001bd	6a 00		 push	 0
  001bf	8b 45 f8	 mov	 eax, DWORD PTR _PopUpMenu$[ebp]
  001c2	50		 push	 eax
  001c3	e8 00 00 00 00	 call	 _AppendMenuUTF8
  001c8	83 c4 10	 add	 esp, 16			; 00000010H

; 1881 :     TrackPopupMenu(PopUpMenu,TPM_LEFTALIGN+TPM_RIGHTBUTTON,

  001cb	8b f4		 mov	 esi, esp
  001cd	6a 00		 push	 0
  001cf	a1 00 00 00 00	 mov	 eax, DWORD PTR _LIBMANWindow
  001d4	50		 push	 eax
  001d5	6a 00		 push	 0
  001d7	8b 0d 00 00 00
	00		 mov	 ecx, DWORD PTR _MousePosY
  001dd	8b 15 04 00 00
	00		 mov	 edx, DWORD PTR _RealWindow+4
  001e3	8d 44 0a 28	 lea	 eax, DWORD PTR [edx+ecx+40]
  001e7	50		 push	 eax
  001e8	8b 0d 00 00 00
	00		 mov	 ecx, DWORD PTR _MousePosX
  001ee	8b 15 00 00 00
	00		 mov	 edx, DWORD PTR _RealWindow
  001f4	8d 44 0a 05	 lea	 eax, DWORD PTR [edx+ecx+5]
  001f8	50		 push	 eax
  001f9	6a 02		 push	 2
  001fb	8b 4d f8	 mov	 ecx, DWORD PTR _PopUpMenu$[ebp]
  001fe	51		 push	 ecx
  001ff	ff 15 00 00 00
	00		 call	 DWORD PTR __imp__TrackPopupMenu@28
  00205	3b f4		 cmp	 esi, esp
  00207	e8 00 00 00 00	 call	 __RTC_CheckEsp

; 1882 :                    RealWindow.left+MousePosX+5,RealWindow.top+MousePosY+40,0,LIBMANWindow,NULL);
; 1883 :     DestroyMenu(PopUpMenu);

  0020c	8b f4		 mov	 esi, esp
  0020e	8b 45 f8	 mov	 eax, DWORD PTR _PopUpMenu$[ebp]
  00211	50		 push	 eax
  00212	ff 15 00 00 00
	00		 call	 DWORD PTR __imp__DestroyMenu@4
  00218	3b f4		 cmp	 esi, esp
  0021a	e8 00 00 00 00	 call	 __RTC_CheckEsp
$LN1@PopupMenu:

; 1884 :   }
; 1885 :   if (SymbolsSelected>1) {
; 1886 :   }
; 1887 : }

  0021f	5f		 pop	 edi
  00220	5e		 pop	 esi
  00221	5b		 pop	 ebx
  00222	81 c4 cc 00 00
	00		 add	 esp, 204		; 000000ccH
  00228	3b ec		 cmp	 ebp, esp
  0022a	e8 00 00 00 00	 call	 __RTC_CheckEsp
  0022f	8b e5		 mov	 esp, ebp
  00231	5d		 pop	 ebp
  00232	c3		 ret	 0
_PopupMenu ENDP
_TEXT	ENDS
; Function compile flags: /Odtp /RTCsu /ZI
; File c:\notes\pcbeleg\software\libman\libman.c
;	COMDAT _ReloadSymbolsIntoLibrary
_TEXT	SEGMENT
_SymbolFile$ = -544					; size = 512
_cnt2$ = -24						; size = 4
_cnt$ = -12						; size = 4
__$ArrayPad$ = -4					; size = 4
_ReloadSymbolsIntoLibrary PROC				; COMDAT

; 1824 : {

  00000	55		 push	 ebp
  00001	8b ec		 mov	 ebp, esp
  00003	81 ec a4 03 00
	00		 sub	 esp, 932		; 000003a4H
  00009	53		 push	 ebx
  0000a	56		 push	 esi
  0000b	57		 push	 edi
  0000c	8d bd 5c fc ff
	ff		 lea	 edi, DWORD PTR [ebp-932]
  00012	b9 e9 00 00 00	 mov	 ecx, 233		; 000000e9H
  00017	b8 cc cc cc cc	 mov	 eax, -858993460		; ccccccccH
  0001c	f3 ab		 rep stosd
  0001e	a1 00 00 00 00	 mov	 eax, DWORD PTR ___security_cookie
  00023	33 c5		 xor	 eax, ebp
  00025	89 45 fc	 mov	 DWORD PTR __$ArrayPad$[ebp], eax

; 1825 :   int32  cnt,cnt2;
; 1826 :   char   SymbolFile[MAX_LENGTH_STRING];
; 1827 : 
; 1828 :   for (cnt2=0;cnt2<1;cnt2++) {

  00028	c7 45 e8 00 00
	00 00		 mov	 DWORD PTR _cnt2$[ebp], 0
  0002f	eb 09		 jmp	 SHORT $LN4@ReloadSymb
$LN2@ReloadSymb:
  00031	8b 45 e8	 mov	 eax, DWORD PTR _cnt2$[ebp]
  00034	83 c0 01	 add	 eax, 1
  00037	89 45 e8	 mov	 DWORD PTR _cnt2$[ebp], eax
$LN4@ReloadSymb:
  0003a	83 7d e8 01	 cmp	 DWORD PTR _cnt2$[ebp], 1
  0003e	0f 8d 85 00 00
	00		 jge	 $LN3@ReloadSymb

; 1829 :     for (cnt=0;cnt<SymbolToBeEditedPos[cnt2];cnt++) {

  00044	c7 45 f4 00 00
	00 00		 mov	 DWORD PTR _cnt$[ebp], 0
  0004b	eb 09		 jmp	 SHORT $LN7@ReloadSymb
$LN5@ReloadSymb:
  0004d	8b 45 f4	 mov	 eax, DWORD PTR _cnt$[ebp]
  00050	83 c0 01	 add	 eax, 1
  00053	89 45 f4	 mov	 DWORD PTR _cnt$[ebp], eax
$LN7@ReloadSymb:
  00056	8b 45 e8	 mov	 eax, DWORD PTR _cnt2$[ebp]
  00059	8b 4d f4	 mov	 ecx, DWORD PTR _cnt$[ebp]
  0005c	3b 0c 85 00 00
	00 00		 cmp	 ecx, DWORD PTR _SymbolToBeEditedPos[eax*4]
  00063	7d 5f		 jge	 SHORT $LN6@ReloadSymb

; 1830 :       if (SymbolToBeEdited[cnt2][cnt][0]!=0) {

  00065	69 45 e8 00 28
	00 00		 imul	 eax, DWORD PTR _cnt2$[ebp], 10240
  0006c	8b 4d f4	 mov	 ecx, DWORD PTR _cnt$[ebp]
  0006f	c1 e1 09	 shl	 ecx, 9
  00072	8d 94 08 00 00
	00 00		 lea	 edx, DWORD PTR _SymbolToBeEdited[eax+ecx]
  00079	b8 01 00 00 00	 mov	 eax, 1
  0007e	6b c8 00	 imul	 ecx, eax, 0
  00081	0f be 14 0a	 movsx	 edx, BYTE PTR [edx+ecx]
  00085	85 d2		 test	 edx, edx
  00087	74 39		 je	 SHORT $LN8@ReloadSymb

; 1831 :         strcpy(SymbolFile,SymbolToBeEdited[cnt2][cnt]);

  00089	69 45 e8 00 28
	00 00		 imul	 eax, DWORD PTR _cnt2$[ebp], 10240
  00090	8b 4d f4	 mov	 ecx, DWORD PTR _cnt$[ebp]
  00093	c1 e1 09	 shl	 ecx, 9
  00096	8d 94 08 00 00
	00 00		 lea	 edx, DWORD PTR _SymbolToBeEdited[eax+ecx]
  0009d	52		 push	 edx
  0009e	8d 85 e0 fd ff
	ff		 lea	 eax, DWORD PTR _SymbolFile$[ebp]
  000a4	50		 push	 eax
  000a5	e8 00 00 00 00	 call	 _strcpy
  000aa	83 c4 08	 add	 esp, 8

; 1832 :         AddSymbolToLibrary(SymbolFile,cnt2,2);

  000ad	6a 02		 push	 2
  000af	8b 45 e8	 mov	 eax, DWORD PTR _cnt2$[ebp]
  000b2	50		 push	 eax
  000b3	8d 8d e0 fd ff
	ff		 lea	 ecx, DWORD PTR _SymbolFile$[ebp]
  000b9	51		 push	 ecx
  000ba	e8 00 00 00 00	 call	 _AddSymbolToLibrary
  000bf	83 c4 0c	 add	 esp, 12			; 0000000cH
$LN8@ReloadSymb:

; 1833 :       }
; 1834 :     }

  000c2	eb 89		 jmp	 SHORT $LN5@ReloadSymb
$LN6@ReloadSymb:

; 1835 :   }

  000c4	e9 68 ff ff ff	 jmp	 $LN2@ReloadSymb
$LN3@ReloadSymb:

; 1836 :   return 0;

  000c9	33 c0		 xor	 eax, eax

; 1837 : }

  000cb	52		 push	 edx
  000cc	8b cd		 mov	 ecx, ebp
  000ce	50		 push	 eax
  000cf	8d 15 00 00 00
	00		 lea	 edx, DWORD PTR $LN12@ReloadSymb
  000d5	e8 00 00 00 00	 call	 @_RTC_CheckStackVars@8
  000da	58		 pop	 eax
  000db	5a		 pop	 edx
  000dc	5f		 pop	 edi
  000dd	5e		 pop	 esi
  000de	5b		 pop	 ebx
  000df	8b 4d fc	 mov	 ecx, DWORD PTR __$ArrayPad$[ebp]
  000e2	33 cd		 xor	 ecx, ebp
  000e4	e8 00 00 00 00	 call	 @__security_check_cookie@4
  000e9	81 c4 a4 03 00
	00		 add	 esp, 932		; 000003a4H
  000ef	3b ec		 cmp	 ebp, esp
  000f1	e8 00 00 00 00	 call	 __RTC_CheckEsp
  000f6	8b e5		 mov	 esp, ebp
  000f8	5d		 pop	 ebp
  000f9	c3		 ret	 0
  000fa	66 90		 npad	 2
$LN12@ReloadSymb:
  000fc	01 00 00 00	 DD	 1
  00100	00 00 00 00	 DD	 $LN11@ReloadSymb
$LN11@ReloadSymb:
  00104	e0 fd ff ff	 DD	 -544			; fffffde0H
  00108	00 02 00 00	 DD	 512			; 00000200H
  0010c	00 00 00 00	 DD	 $LN10@ReloadSymb
$LN10@ReloadSymb:
  00110	53		 DB	 83			; 00000053H
  00111	79		 DB	 121			; 00000079H
  00112	6d		 DB	 109			; 0000006dH
  00113	62		 DB	 98			; 00000062H
  00114	6f		 DB	 111			; 0000006fH
  00115	6c		 DB	 108			; 0000006cH
  00116	46		 DB	 70			; 00000046H
  00117	69		 DB	 105			; 00000069H
  00118	6c		 DB	 108			; 0000006cH
  00119	65		 DB	 101			; 00000065H
  0011a	00		 DB	 0
_ReloadSymbolsIntoLibrary ENDP
_TEXT	ENDS
; Function compile flags: /Odtp /RTCsu /ZI
; File c:\notes\pcbeleg\software\libman\libman.c
;	COMDAT _ExitEditingSymbol
_TEXT	SEGMENT
_SymbolFile$ = -532					; size = 512
_ListNr2$ = -12						; size = 4
__$ArrayPad$ = -4					; size = 4
_SymbolNr$ = 8						; size = 4
_ExitEditingSymbol PROC					; COMDAT

; 1800 : {

  00000	55		 push	 ebp
  00001	8b ec		 mov	 ebp, esp
  00003	81 ec 98 03 00
	00		 sub	 esp, 920		; 00000398H
  00009	53		 push	 ebx
  0000a	56		 push	 esi
  0000b	57		 push	 edi
  0000c	8d bd 68 fc ff
	ff		 lea	 edi, DWORD PTR [ebp-920]
  00012	b9 e6 00 00 00	 mov	 ecx, 230		; 000000e6H
  00017	b8 cc cc cc cc	 mov	 eax, -858993460		; ccccccccH
  0001c	f3 ab		 rep stosd
  0001e	a1 00 00 00 00	 mov	 eax, DWORD PTR ___security_cookie
  00023	33 c5		 xor	 eax, ebp
  00025	89 45 fc	 mov	 DWORD PTR __$ArrayPad$[ebp], eax

; 1801 :   int32 ListNr2;
; 1802 :   char  SymbolFile[MAX_LENGTH_STRING];
; 1803 : 
; 1804 :   if (SymbolNr<200) {

  00028	81 7d 08 c8 00
	00 00		 cmp	 DWORD PTR _SymbolNr$[ebp], 200 ; 000000c8H
  0002f	7d 09		 jge	 SHORT $LN2@ExitEditin

; 1805 :     ListNr2=0;

  00031	c7 45 f4 00 00
	00 00		 mov	 DWORD PTR _ListNr2$[ebp], 0

; 1806 :   } else {

  00038	eb 07		 jmp	 SHORT $LN3@ExitEditin
$LN2@ExitEditin:

; 1807 :     ListNr2=1;

  0003a	c7 45 f4 01 00
	00 00		 mov	 DWORD PTR _ListNr2$[ebp], 1
$LN3@ExitEditin:

; 1808 :   }
; 1809 :   SymbolNr%=100;

  00041	8b 45 08	 mov	 eax, DWORD PTR _SymbolNr$[ebp]
  00044	99		 cdq
  00045	b9 64 00 00 00	 mov	 ecx, 100		; 00000064H
  0004a	f7 f9		 idiv	 ecx
  0004c	89 55 08	 mov	 DWORD PTR _SymbolNr$[ebp], edx

; 1810 :   strcpy(SymbolFile,SymbolToBeEdited[ListNr2][SymbolNr]);

  0004f	69 45 f4 00 28
	00 00		 imul	 eax, DWORD PTR _ListNr2$[ebp], 10240
  00056	8b 4d 08	 mov	 ecx, DWORD PTR _SymbolNr$[ebp]
  00059	c1 e1 09	 shl	 ecx, 9
  0005c	8d 94 08 00 00
	00 00		 lea	 edx, DWORD PTR _SymbolToBeEdited[eax+ecx]
  00063	52		 push	 edx
  00064	8d 85 ec fd ff
	ff		 lea	 eax, DWORD PTR _SymbolFile$[ebp]
  0006a	50		 push	 eax
  0006b	e8 00 00 00 00	 call	 _strcpy
  00070	83 c4 08	 add	 esp, 8

; 1811 :   SymbolToBeEdited[ListNr2][SymbolNr][0]=0;

  00073	69 45 f4 00 28
	00 00		 imul	 eax, DWORD PTR _ListNr2$[ebp], 10240
  0007a	8b 4d 08	 mov	 ecx, DWORD PTR _SymbolNr$[ebp]
  0007d	c1 e1 09	 shl	 ecx, 9
  00080	8d 94 08 00 00
	00 00		 lea	 edx, DWORD PTR _SymbolToBeEdited[eax+ecx]
  00087	b8 01 00 00 00	 mov	 eax, 1
  0008c	6b c8 00	 imul	 ecx, eax, 0
  0008f	c6 04 0a 00	 mov	 BYTE PTR [edx+ecx], 0

; 1812 :   DeleteFileUTF8(SymbolFile);

  00093	8d 85 ec fd ff
	ff		 lea	 eax, DWORD PTR _SymbolFile$[ebp]
  00099	50		 push	 eax
  0009a	e8 00 00 00 00	 call	 _DeleteFileUTF8
  0009f	83 c4 04	 add	 esp, 4

; 1813 :   return 0;

  000a2	33 c0		 xor	 eax, eax

; 1814 : }

  000a4	52		 push	 edx
  000a5	8b cd		 mov	 ecx, ebp
  000a7	50		 push	 eax
  000a8	8d 15 00 00 00
	00		 lea	 edx, DWORD PTR $LN7@ExitEditin
  000ae	e8 00 00 00 00	 call	 @_RTC_CheckStackVars@8
  000b3	58		 pop	 eax
  000b4	5a		 pop	 edx
  000b5	5f		 pop	 edi
  000b6	5e		 pop	 esi
  000b7	5b		 pop	 ebx
  000b8	8b 4d fc	 mov	 ecx, DWORD PTR __$ArrayPad$[ebp]
  000bb	33 cd		 xor	 ecx, ebp
  000bd	e8 00 00 00 00	 call	 @__security_check_cookie@4
  000c2	81 c4 98 03 00
	00		 add	 esp, 920		; 00000398H
  000c8	3b ec		 cmp	 ebp, esp
  000ca	e8 00 00 00 00	 call	 __RTC_CheckEsp
  000cf	8b e5		 mov	 esp, ebp
  000d1	5d		 pop	 ebp
  000d2	c3		 ret	 0
  000d3	90		 npad	 1
$LN7@ExitEditin:
  000d4	01 00 00 00	 DD	 1
  000d8	00 00 00 00	 DD	 $LN6@ExitEditin
$LN6@ExitEditin:
  000dc	ec fd ff ff	 DD	 -532			; fffffdecH
  000e0	00 02 00 00	 DD	 512			; 00000200H
  000e4	00 00 00 00	 DD	 $LN5@ExitEditin
$LN5@ExitEditin:
  000e8	53		 DB	 83			; 00000053H
  000e9	79		 DB	 121			; 00000079H
  000ea	6d		 DB	 109			; 0000006dH
  000eb	62		 DB	 98			; 00000062H
  000ec	6f		 DB	 111			; 0000006fH
  000ed	6c		 DB	 108			; 0000006cH
  000ee	46		 DB	 70			; 00000046H
  000ef	69		 DB	 105			; 00000069H
  000f0	6c		 DB	 108			; 0000006cH
  000f1	65		 DB	 101			; 00000065H
  000f2	00		 DB	 0
_ExitEditingSymbol ENDP
_TEXT	ENDS
; Function compile flags: /Odtp /RTCsu /ZI
; File c:\notes\pcbeleg\software\libman\libman.c
;	COMDAT _EditSymbol
_TEXT	SEGMENT
tv175 = -7916						; size = 4
_ProcessInfo$ = -6372					; size = 16
_ExeParams$ = -6348					; size = 2560
_ExeFile$ = -3780					; size = 512
_SymbolFile$ = -3260					; size = 600
_str$ = -2652						; size = 2560
_pos$ = -84						; size = 4
_res2$ = -72						; size = 4
_result$ = -60						; size = 4
_fp2$ = -48						; size = 4
_fp$ = -36						; size = 4
_length$ = -24						; size = 4
_cnt2$ = -12						; size = 4
__$ArrayPad$ = -4					; size = 4
_ListNr$ = 8						; size = 4
_EditSymbol PROC					; COMDAT

; 1702 : {

  00000	55		 push	 ebp
  00001	8b ec		 mov	 ebp, esp
  00003	b8 ec 1e 00 00	 mov	 eax, 7916		; 00001eecH
  00008	e8 00 00 00 00	 call	 __chkstk
  0000d	53		 push	 ebx
  0000e	56		 push	 esi
  0000f	57		 push	 edi
  00010	8d bd 14 e1 ff
	ff		 lea	 edi, DWORD PTR [ebp-7916]
  00016	b9 bb 07 00 00	 mov	 ecx, 1979		; 000007bbH
  0001b	b8 cc cc cc cc	 mov	 eax, -858993460		; ccccccccH
  00020	f3 ab		 rep stosd
  00022	a1 00 00 00 00	 mov	 eax, DWORD PTR ___security_cookie
  00027	33 c5		 xor	 eax, ebp
  00029	89 45 fc	 mov	 DWORD PTR __$ArrayPad$[ebp], eax

; 1703 :   int32  cnt2,length,fp,fp2,result,res2,pos;
; 1704 :   char   str[MAX_LENGTH_STRING*5],SymbolFile[600],
; 1705 :          ExeFile[MAX_LENGTH_STRING],ExeParams[MAX_LENGTH_STRING*5];
; 1706 :   PROCESS_INFORMATION ProcessInfo;
; 1707 : 
; 1708 :   if (ListNr==0) {

  0002c	83 7d 08 00	 cmp	 DWORD PTR _ListNr$[ebp], 0
  00030	75 2b		 jne	 SHORT $LN6@EditSymbol

; 1709 :     SymbolsSelected=SendMessage(ListWindow1,LB_GETSELITEMS,MAX_NR_LIB_SYMBOLS+1,

  00032	8b f4		 mov	 esi, esp
  00034	68 00 00 00 00	 push	 OFFSET _LibIndex
  00039	68 01 10 00 00	 push	 4097			; 00001001H
  0003e	68 91 01 00 00	 push	 401			; 00000191H
  00043	a1 00 00 00 00	 mov	 eax, DWORD PTR _ListWindow1
  00048	50		 push	 eax
  00049	ff 15 00 00 00
	00		 call	 DWORD PTR __imp__SendMessageA@16
  0004f	3b f4		 cmp	 esi, esp
  00051	e8 00 00 00 00	 call	 __RTC_CheckEsp
  00056	a3 00 00 00 00	 mov	 DWORD PTR _SymbolsSelected, eax

; 1710 :                                 (LPARAM)(LPINT)&LibIndex);
; 1711 :   } else {

  0005b	eb 29		 jmp	 SHORT $LN7@EditSymbol
$LN6@EditSymbol:

; 1712 :     SymbolsSelected=SendMessage(ListWindow2,LB_GETSELITEMS,MAX_NR_LIB_SYMBOLS+1,

  0005d	8b f4		 mov	 esi, esp
  0005f	68 00 00 00 00	 push	 OFFSET _LibIndex
  00064	68 01 10 00 00	 push	 4097			; 00001001H
  00069	68 91 01 00 00	 push	 401			; 00000191H
  0006e	a1 00 00 00 00	 mov	 eax, DWORD PTR _ListWindow2
  00073	50		 push	 eax
  00074	ff 15 00 00 00
	00		 call	 DWORD PTR __imp__SendMessageA@16
  0007a	3b f4		 cmp	 esi, esp
  0007c	e8 00 00 00 00	 call	 __RTC_CheckEsp
  00081	a3 00 00 00 00	 mov	 DWORD PTR _SymbolsSelected, eax
$LN7@EditSymbol:

; 1713 :                                 (LPARAM)(LPINT)&LibIndex);
; 1714 :   }
; 1715 : 
; 1716 :   if (SymbolsSelected!=1) return -1;

  00086	83 3d 00 00 00
	00 01		 cmp	 DWORD PTR _SymbolsSelected, 1
  0008d	74 08		 je	 SHORT $LN8@EditSymbol
  0008f	83 c8 ff	 or	 eax, -1
  00092	e9 64 04 00 00	 jmp	 $LN1@EditSymbol
$LN8@EditSymbol:

; 1717 :   MakeBackup(ListNr);

  00097	8b 45 08	 mov	 eax, DWORD PTR _ListNr$[ebp]
  0009a	50		 push	 eax
  0009b	e8 00 00 00 00	 call	 _MakeBackup
  000a0	83 c4 04	 add	 esp, 4

; 1718 :   if (ListNr==0) {

  000a3	83 7d 08 00	 cmp	 DWORD PTR _ListNr$[ebp], 0
  000a7	75 2c		 jne	 SHORT $LN9@EditSymbol

; 1719 :     SendMessageUTF8(ListWindow1,LB_GETTEXT,LibIndex[0],(LPARAM)str);

  000a9	8d 85 a4 f5 ff
	ff		 lea	 eax, DWORD PTR _str$[ebp]
  000af	50		 push	 eax
  000b0	b9 04 00 00 00	 mov	 ecx, 4
  000b5	6b d1 00	 imul	 edx, ecx, 0
  000b8	8b 82 00 00 00
	00		 mov	 eax, DWORD PTR _LibIndex[edx]
  000be	50		 push	 eax
  000bf	68 89 01 00 00	 push	 393			; 00000189H
  000c4	8b 0d 00 00 00
	00		 mov	 ecx, DWORD PTR _ListWindow1
  000ca	51		 push	 ecx
  000cb	e8 00 00 00 00	 call	 _SendMessageUTF8
  000d0	83 c4 10	 add	 esp, 16			; 00000010H

; 1720 :   } else {

  000d3	eb 2a		 jmp	 SHORT $LN10@EditSymbol
$LN9@EditSymbol:

; 1721 :     SendMessageUTF8(ListWindow2,LB_GETTEXT,LibIndex[0],(LPARAM)str);

  000d5	8d 85 a4 f5 ff
	ff		 lea	 eax, DWORD PTR _str$[ebp]
  000db	50		 push	 eax
  000dc	b9 04 00 00 00	 mov	 ecx, 4
  000e1	6b d1 00	 imul	 edx, ecx, 0
  000e4	8b 82 00 00 00
	00		 mov	 eax, DWORD PTR _LibIndex[edx]
  000ea	50		 push	 eax
  000eb	68 89 01 00 00	 push	 393			; 00000189H
  000f0	8b 0d 00 00 00
	00		 mov	 ecx, DWORD PTR _ListWindow2
  000f6	51		 push	 ecx
  000f7	e8 00 00 00 00	 call	 _SendMessageUTF8
  000fc	83 c4 10	 add	 esp, 16			; 00000010H
$LN10@EditSymbol:

; 1722 :   }
; 1723 :   cnt2=0;

  000ff	c7 45 f4 00 00
	00 00		 mov	 DWORD PTR _cnt2$[ebp], 0
$LN2@EditSymbol:

; 1724 :   while ((cnt2<Lib[ListNr].NrLibEntries)
; 1725 :         &&

  00106	6b 45 08 50	 imul	 eax, DWORD PTR _ListNr$[ebp], 80
  0010a	8b 4d f4	 mov	 ecx, DWORD PTR _cnt2$[ebp]
  0010d	3b 88 48 00 00
	00		 cmp	 ecx, DWORD PTR _Lib[eax+72]
  00113	7d 31		 jge	 SHORT $LN3@EditSymbol
  00115	8d 85 a4 f5 ff
	ff		 lea	 eax, DWORD PTR _str$[ebp]
  0011b	50		 push	 eax
  0011c	69 4d 08 00 80
	02 00		 imul	 ecx, DWORD PTR _ListNr$[ebp], 163840
  00123	6b 55 f4 28	 imul	 edx, DWORD PTR _cnt2$[ebp], 40
  00127	8d 84 11 00 00
	00 00		 lea	 eax, DWORD PTR _LibNames[ecx+edx]
  0012e	50		 push	 eax
  0012f	e8 00 00 00 00	 call	 _stricmp
  00134	83 c4 08	 add	 esp, 8
  00137	85 c0		 test	 eax, eax
  00139	74 0b		 je	 SHORT $LN3@EditSymbol

; 1726 :         (stricmp(LibNames[ListNr][cnt2].Text,str)!=0)) cnt2++;

  0013b	8b 45 f4	 mov	 eax, DWORD PTR _cnt2$[ebp]
  0013e	83 c0 01	 add	 eax, 1
  00141	89 45 f4	 mov	 DWORD PTR _cnt2$[ebp], eax
  00144	eb c0		 jmp	 SHORT $LN2@EditSymbol
$LN3@EditSymbol:

; 1727 :   if (cnt2<Lib[ListNr].NrLibEntries) {

  00146	6b 45 08 50	 imul	 eax, DWORD PTR _ListNr$[ebp], 80
  0014a	8b 4d f4	 mov	 ecx, DWORD PTR _cnt2$[ebp]
  0014d	3b 88 48 00 00
	00		 cmp	 ecx, DWORD PTR _Lib[eax+72]
  00153	0f 8d a0 03 00
	00		 jge	 $LN11@EditSymbol

; 1728 :     length=LibNames[ListNr][cnt2].Length;

  00159	69 45 08 00 80
	02 00		 imul	 eax, DWORD PTR _ListNr$[ebp], 163840
  00160	6b 4d f4 28	 imul	 ecx, DWORD PTR _cnt2$[ebp], 40
  00164	8b 94 08 24 00
	00 00		 mov	 edx, DWORD PTR _LibNames[eax+ecx+36]
  0016b	89 55 e8	 mov	 DWORD PTR _length$[ebp], edx

; 1729 :     if (LibraryMode==0) {

  0016e	83 3d 00 00 00
	00 00		 cmp	 DWORD PTR _LibraryMode, 0
  00175	75 22		 jne	 SHORT $LN12@EditSymbol

; 1730 :       sprintf(SymbolFile,"%s\\%s.sym",TempPath,str);

  00177	8d 85 a4 f5 ff
	ff		 lea	 eax, DWORD PTR _str$[ebp]
  0017d	50		 push	 eax
  0017e	68 00 00 00 00	 push	 OFFSET _TempPath
  00183	68 00 00 00 00	 push	 OFFSET ??_C@_09OCJNPHPC@?$CFs?2?$CFs?4sym?$AA@
  00188	8d 8d 44 f3 ff
	ff		 lea	 ecx, DWORD PTR _SymbolFile$[ebp]
  0018e	51		 push	 ecx
  0018f	e8 00 00 00 00	 call	 _sprintf
  00194	83 c4 10	 add	 esp, 16			; 00000010H

; 1731 :     } else {

  00197	eb 20		 jmp	 SHORT $LN13@EditSymbol
$LN12@EditSymbol:

; 1732 :       sprintf(SymbolFile,"%s\\%s.shp",TempPath,str);

  00199	8d 85 a4 f5 ff
	ff		 lea	 eax, DWORD PTR _str$[ebp]
  0019f	50		 push	 eax
  001a0	68 00 00 00 00	 push	 OFFSET _TempPath
  001a5	68 00 00 00 00	 push	 OFFSET ??_C@_09BFFCKJ@?$CFs?2?$CFs?4shp?$AA@
  001aa	8d 8d 44 f3 ff
	ff		 lea	 ecx, DWORD PTR _SymbolFile$[ebp]
  001b0	51		 push	 ecx
  001b1	e8 00 00 00 00	 call	 _sprintf
  001b6	83 c4 10	 add	 esp, 16			; 00000010H
$LN13@EditSymbol:

; 1733 :     }
; 1734 : 
; 1735 :     if (((fp2=FileOpenReadOnlyUTF8(LibraryFile[ListNr]))>0)
; 1736 :        &&

  001b9	8b 45 08	 mov	 eax, DWORD PTR _ListNr$[ebp]
  001bc	c1 e0 09	 shl	 eax, 9
  001bf	05 00 00 00 00	 add	 eax, OFFSET _LibraryFile
  001c4	50		 push	 eax
  001c5	e8 00 00 00 00	 call	 _FileOpenReadOnlyUTF8
  001ca	83 c4 04	 add	 esp, 4
  001cd	89 45 d0	 mov	 DWORD PTR _fp2$[ebp], eax
  001d0	83 7d d0 00	 cmp	 DWORD PTR _fp2$[ebp], 0
  001d4	0f 8e 1f 03 00
	00		 jle	 $LN11@EditSymbol
  001da	a1 00 00 00 00	 mov	 eax, DWORD PTR _LIBMANWindow
  001df	50		 push	 eax
  001e0	8b 4d e8	 mov	 ecx, DWORD PTR _length$[ebp]
  001e3	51		 push	 ecx
  001e4	8d 95 44 f3 ff
	ff		 lea	 edx, DWORD PTR _SymbolFile$[ebp]
  001ea	52		 push	 edx
  001eb	e8 00 00 00 00	 call	 _CheckForWritingAndOpenUTF8
  001f0	83 c4 0c	 add	 esp, 12			; 0000000cH
  001f3	89 45 dc	 mov	 DWORD PTR _fp$[ebp], eax
  001f6	83 7d dc 00	 cmp	 DWORD PTR _fp$[ebp], 0
  001fa	0f 8e f9 02 00
	00		 jle	 $LN11@EditSymbol

; 1737 :        ((fp=CheckForWritingAndOpenUTF8(SymbolFile,length,LIBMANWindow))>0)) {
; 1738 :       FileSeek(fp2,LibNames[ListNr][cnt2].Pos);

  00200	69 45 08 00 80
	02 00		 imul	 eax, DWORD PTR _ListNr$[ebp], 163840
  00207	6b 4d f4 28	 imul	 ecx, DWORD PTR _cnt2$[ebp], 40
  0020b	8b 94 08 20 00
	00 00		 mov	 edx, DWORD PTR _LibNames[eax+ecx+32]
  00212	52		 push	 edx
  00213	8b 45 d0	 mov	 eax, DWORD PTR _fp2$[ebp]
  00216	50		 push	 eax
  00217	e8 00 00 00 00	 call	 _FileSeek
  0021c	83 c4 08	 add	 esp, 8
$LN4@EditSymbol:

; 1739 :       while (length>0) {

  0021f	83 7d e8 00	 cmp	 DWORD PTR _length$[ebp], 0
  00223	7e 70		 jle	 SHORT $LN5@EditSymbol

; 1740 :         FileRead(fp2,Buf,min(length,BufSize),&result);

  00225	81 7d e8 00 00
	04 00		 cmp	 DWORD PTR _length$[ebp], 262144 ; 00040000H
  0022c	7d 0b		 jge	 SHORT $LN26@EditSymbol
  0022e	8b 45 e8	 mov	 eax, DWORD PTR _length$[ebp]
  00231	89 85 14 e1 ff
	ff		 mov	 DWORD PTR tv175[ebp], eax
  00237	eb 0a		 jmp	 SHORT $LN27@EditSymbol
$LN26@EditSymbol:
  00239	c7 85 14 e1 ff
	ff 00 00 04 00	 mov	 DWORD PTR tv175[ebp], 262144 ; 00040000H
$LN27@EditSymbol:
  00243	8d 4d c4	 lea	 ecx, DWORD PTR _result$[ebp]
  00246	51		 push	 ecx
  00247	8b 95 14 e1 ff
	ff		 mov	 edx, DWORD PTR tv175[ebp]
  0024d	52		 push	 edx
  0024e	a1 00 00 00 00	 mov	 eax, DWORD PTR _Buf
  00253	50		 push	 eax
  00254	8b 4d d0	 mov	 ecx, DWORD PTR _fp2$[ebp]
  00257	51		 push	 ecx
  00258	e8 00 00 00 00	 call	 _FileRead
  0025d	83 c4 10	 add	 esp, 16			; 00000010H

; 1741 :         if (result>0) {

  00260	83 7d c4 00	 cmp	 DWORD PTR _result$[ebp], 0
  00264	7e 26		 jle	 SHORT $LN15@EditSymbol

; 1742 :           FileWrite(fp,Buf,result,&res2);

  00266	8d 45 b8	 lea	 eax, DWORD PTR _res2$[ebp]
  00269	50		 push	 eax
  0026a	8b 4d c4	 mov	 ecx, DWORD PTR _result$[ebp]
  0026d	51		 push	 ecx
  0026e	8b 15 00 00 00
	00		 mov	 edx, DWORD PTR _Buf
  00274	52		 push	 edx
  00275	8b 45 dc	 mov	 eax, DWORD PTR _fp$[ebp]
  00278	50		 push	 eax
  00279	e8 00 00 00 00	 call	 _FileWrite
  0027e	83 c4 10	 add	 esp, 16			; 00000010H

; 1743 :           length-=result;

  00281	8b 45 e8	 mov	 eax, DWORD PTR _length$[ebp]
  00284	2b 45 c4	 sub	 eax, DWORD PTR _result$[ebp]
  00287	89 45 e8	 mov	 DWORD PTR _length$[ebp], eax
  0028a	eb 07		 jmp	 SHORT $LN16@EditSymbol
$LN15@EditSymbol:

; 1744 :         } else length=0;

  0028c	c7 45 e8 00 00
	00 00		 mov	 DWORD PTR _length$[ebp], 0
$LN16@EditSymbol:

; 1745 :       }

  00293	eb 8a		 jmp	 SHORT $LN4@EditSymbol
$LN5@EditSymbol:

; 1746 :       FileClose(fp);

  00295	8b 45 dc	 mov	 eax, DWORD PTR _fp$[ebp]
  00298	50		 push	 eax
  00299	e8 00 00 00 00	 call	 _FileClose
  0029e	83 c4 04	 add	 esp, 4

; 1747 :       FileClose(fp2);

  002a1	8b 45 d0	 mov	 eax, DWORD PTR _fp2$[ebp]
  002a4	50		 push	 eax
  002a5	e8 00 00 00 00	 call	 _FileClose
  002aa	83 c4 04	 add	 esp, 4

; 1748 :       if (LibraryMode==0) {

  002ad	83 3d 00 00 00
	00 00		 cmp	 DWORD PTR _LibraryMode, 0
  002b4	0f 85 21 01 00
	00		 jne	 $LN17@EditSymbol

; 1749 :         sprintf(ExeFile,"%s\\sch.exe",ExePath);

  002ba	68 00 00 00 00	 push	 OFFSET _ExePath
  002bf	68 00 00 00 00	 push	 OFFSET ??_C@_0L@KGOMJMBN@?$CFs?2sch?4exe?$AA@
  002c4	8d 85 3c f1 ff
	ff		 lea	 eax, DWORD PTR _ExeFile$[ebp]
  002ca	50		 push	 eax
  002cb	e8 00 00 00 00	 call	 _sprintf
  002d0	83 c4 0c	 add	 esp, 12			; 0000000cH

; 1750 :         if (FileExistsUTF8(ExeFile)==0) {

  002d3	8d 85 3c f1 ff
	ff		 lea	 eax, DWORD PTR _ExeFile$[ebp]
  002d9	50		 push	 eax
  002da	e8 00 00 00 00	 call	 _FileExistsUTF8
  002df	83 c4 04	 add	 esp, 4
  002e2	85 c0		 test	 eax, eax
  002e4	0f 85 ec 00 00
	00		 jne	 $LN19@EditSymbol

; 1751 :           if (SymbolToBeEditedPos[ListNr]<20) {

  002ea	8b 45 08	 mov	 eax, DWORD PTR _ListNr$[ebp]
  002ed	83 3c 85 00 00
	00 00 14	 cmp	 DWORD PTR _SymbolToBeEditedPos[eax*4], 20 ; 00000014H
  002f5	0f 8d db 00 00
	00		 jge	 $LN19@EditSymbol

; 1752 :             pos=SymbolToBeEditedPos[ListNr]+100;

  002fb	8b 45 08	 mov	 eax, DWORD PTR _ListNr$[ebp]
  002fe	8b 0c 85 00 00
	00 00		 mov	 ecx, DWORD PTR _SymbolToBeEditedPos[eax*4]
  00305	83 c1 64	 add	 ecx, 100		; 00000064H
  00308	89 4d ac	 mov	 DWORD PTR _pos$[ebp], ecx

; 1753 :             if (ListNr==1) pos+=100;

  0030b	83 7d 08 01	 cmp	 DWORD PTR _ListNr$[ebp], 1
  0030f	75 09		 jne	 SHORT $LN21@EditSymbol
  00311	8b 45 ac	 mov	 eax, DWORD PTR _pos$[ebp]
  00314	83 c0 64	 add	 eax, 100		; 00000064H
  00317	89 45 ac	 mov	 DWORD PTR _pos$[ebp], eax
$LN21@EditSymbol:

; 1754 : //            sprintf(str2,"%s\\sch.exe \"%s\" /e \"%s\" /a /w %x /z %d",ExePath,SymbolFile,ExePath,LIBMANWindow,pos);
; 1755 :             strcpy(SymbolToBeEdited[ListNr][SymbolToBeEditedPos[ListNr]],SymbolFile);

  0031a	8d 85 44 f3 ff
	ff		 lea	 eax, DWORD PTR _SymbolFile$[ebp]
  00320	50		 push	 eax
  00321	69 4d 08 00 28
	00 00		 imul	 ecx, DWORD PTR _ListNr$[ebp], 10240
  00328	8b 55 08	 mov	 edx, DWORD PTR _ListNr$[ebp]
  0032b	8b 04 95 00 00
	00 00		 mov	 eax, DWORD PTR _SymbolToBeEditedPos[edx*4]
  00332	c1 e0 09	 shl	 eax, 9
  00335	8d 8c 01 00 00
	00 00		 lea	 ecx, DWORD PTR _SymbolToBeEdited[ecx+eax]
  0033c	51		 push	 ecx
