In archive .\libzlib.a:

adler32.o:     file format pe-i386


Disassembly of section .text:

00000000 <_adler32>:
/* ========================================================================= */
uLong ZEXPORT adler32(adler, buf, len)
    uLong adler;
    const Bytef *buf;
    uInt len;
{
   0:	55                   	push   %ebp
   1:	57                   	push   %edi
   2:	56                   	push   %esi
   3:	53                   	push   %ebx
   4:	83 ec 38             	sub    $0x38,%esp
    unsigned long s1 = adler & 0xffff;
   7:	31 db                	xor    %ebx,%ebx
/* ========================================================================= */
uLong ZEXPORT adler32(adler, buf, len)
    uLong adler;
    const Bytef *buf;
    uInt len;
{
   9:	8b 44 24 4c          	mov    0x4c(%esp),%eax
    unsigned long s1 = adler & 0xffff;
    unsigned long s2 = (adler >> 16) & 0xffff;
    int k;

    if (buf == Z_NULL) return 1L;
   d:	8b 7c 24 50          	mov    0x50(%esp),%edi
uLong ZEXPORT adler32(adler, buf, len)
    uLong adler;
    const Bytef *buf;
    uInt len;
{
    unsigned long s1 = adler & 0xffff;
  11:	66 89 c3             	mov    %ax,%bx
    unsigned long s2 = (adler >> 16) & 0xffff;
  14:	c1 e8 10             	shr    $0x10,%eax
    int k;

    if (buf == Z_NULL) return 1L;
  17:	85 ff                	test   %edi,%edi
    uLong adler;
    const Bytef *buf;
    uInt len;
{
    unsigned long s1 = adler & 0xffff;
    unsigned long s2 = (adler >> 16) & 0xffff;
  19:	89 44 24 30          	mov    %eax,0x30(%esp)
    int k;

    if (buf == Z_NULL) return 1L;
  1d:	0f 84 d5 01 00 00    	je     1f8 <_adler32+0x1f8>

    while (len > 0) {
  23:	8b 74 24 54          	mov    0x54(%esp),%esi
  27:	85 f6                	test   %esi,%esi
  29:	0f 84 92 01 00 00    	je     1c1 <_adler32+0x1c1>
        }
        if (k != 0) do {
            s1 += *buf++;
	    s2 += s1;
        } while (--k);
        s1 %= BASE;
  2f:	89 dd                	mov    %ebx,%ebp
    int k;

    if (buf == Z_NULL) return 1L;

    while (len > 0) {
        k = len < NMAX ? len : NMAX;
  31:	b8 b0 15 00 00       	mov    $0x15b0,%eax
        len -= k;
  36:	8b 5c 24 54          	mov    0x54(%esp),%ebx
    int k;

    if (buf == Z_NULL) return 1L;

    while (len > 0) {
        k = len < NMAX ? len : NMAX;
  3a:	81 7c 24 54 b0 15 00 	cmpl   $0x15b0,0x54(%esp)
  41:	00 
  42:	0f 46 44 24 54       	cmovbe 0x54(%esp),%eax
        len -= k;
  47:	29 c3                	sub    %eax,%ebx
    int k;

    if (buf == Z_NULL) return 1L;

    while (len > 0) {
        k = len < NMAX ? len : NMAX;
  49:	89 44 24 34          	mov    %eax,0x34(%esp)
        len -= k;
  4d:	89 5c 24 54          	mov    %ebx,0x54(%esp)
        while (k >= 16) {
  51:	83 f8 0f             	cmp    $0xf,%eax
  54:	0f 86 78 01 00 00    	jbe    1d2 <_adler32+0x1d2>
  5a:	89 04 24             	mov    %eax,(%esp)
  5d:	8b 44 24 50          	mov    0x50(%esp),%eax
            DO16(buf);
  61:	31 d2                	xor    %edx,%edx
  63:	8a 10                	mov    (%eax),%dl
  65:	8d 5c 15 00          	lea    0x0(%ebp,%edx,1),%ebx
  69:	31 d2                	xor    %edx,%edx
  6b:	8a 50 01             	mov    0x1(%eax),%dl
  6e:	89 5c 24 04          	mov    %ebx,0x4(%esp)
  72:	01 da                	add    %ebx,%edx
  74:	89 d6                	mov    %edx,%esi
  76:	31 d2                	xor    %edx,%edx
  78:	8a 50 02             	mov    0x2(%eax),%dl
  7b:	89 74 24 08          	mov    %esi,0x8(%esp)
  7f:	89 d7                	mov    %edx,%edi
  81:	31 d2                	xor    %edx,%edx
  83:	8a 50 03             	mov    0x3(%eax),%dl
  86:	01 f7                	add    %esi,%edi
  88:	89 d3                	mov    %edx,%ebx
  8a:	31 d2                	xor    %edx,%edx
  8c:	8a 50 04             	mov    0x4(%eax),%dl
  8f:	01 fb                	add    %edi,%ebx
  91:	89 d1                	mov    %edx,%ecx
  93:	31 d2                	xor    %edx,%edx
  95:	8a 50 05             	mov    0x5(%eax),%dl
  98:	01 d9                	add    %ebx,%ecx
  9a:	89 d5                	mov    %edx,%ebp
  9c:	31 d2                	xor    %edx,%edx
  9e:	01 cd                	add    %ecx,%ebp
  a0:	8a 50 06             	mov    0x6(%eax),%dl
  a3:	01 ea                	add    %ebp,%edx
  a5:	89 7c 24 0c          	mov    %edi,0xc(%esp)
  a9:	89 d6                	mov    %edx,%esi
  ab:	31 d2                	xor    %edx,%edx
  ad:	8a 50 07             	mov    0x7(%eax),%dl
  b0:	89 5c 24 10          	mov    %ebx,0x10(%esp)
  b4:	01 f2                	add    %esi,%edx
  b6:	89 4c 24 14          	mov    %ecx,0x14(%esp)
  ba:	89 d7                	mov    %edx,%edi
  bc:	31 d2                	xor    %edx,%edx
  be:	8a 50 08             	mov    0x8(%eax),%dl
  c1:	89 7c 24 20          	mov    %edi,0x20(%esp)
  c5:	01 fa                	add    %edi,%edx
  c7:	89 74 24 1c          	mov    %esi,0x1c(%esp)
  cb:	89 d3                	mov    %edx,%ebx
  cd:	31 d2                	xor    %edx,%edx
  cf:	8a 50 09             	mov    0x9(%eax),%dl
  d2:	89 5c 24 24          	mov    %ebx,0x24(%esp)
  d6:	01 da                	add    %ebx,%edx
  d8:	31 db                	xor    %ebx,%ebx
  da:	89 d1                	mov    %edx,%ecx
  dc:	31 d2                	xor    %edx,%edx
  de:	0f b6 78 0b          	movzbl 0xb(%eax),%edi
  e2:	8a 50 0a             	mov    0xa(%eax),%dl
  e5:	81 e7 ff 00 00 00    	and    $0xff,%edi
  eb:	01 ca                	add    %ecx,%edx
  ed:	8a 58 0d             	mov    0xd(%eax),%bl
  f0:	0f b6 70 0c          	movzbl 0xc(%eax),%esi
  f4:	01 d7                	add    %edx,%edi
  f6:	89 54 24 2c          	mov    %edx,0x2c(%esp)
  fa:	8b 54 24 08          	mov    0x8(%esp),%edx
  fe:	81 e6 ff 00 00 00    	and    $0xff,%esi
 104:	03 54 24 04          	add    0x4(%esp),%edx
 108:	01 fe                	add    %edi,%esi
 10a:	89 6c 24 18          	mov    %ebp,0x18(%esp)
 10e:	89 4c 24 28          	mov    %ecx,0x28(%esp)
 112:	0f b6 68 0f          	movzbl 0xf(%eax),%ebp
 116:	31 c9                	xor    %ecx,%ecx
 118:	01 f3                	add    %esi,%ebx
 11a:	8a 48 0e             	mov    0xe(%eax),%cl
 11d:	03 54 24 0c          	add    0xc(%esp),%edx
 121:	01 d9                	add    %ebx,%ecx
 123:	81 e5 ff 00 00 00    	and    $0xff,%ebp
 129:	01 cd                	add    %ecx,%ebp
 12b:	03 54 24 10          	add    0x10(%esp),%edx
 12f:	03 54 24 14          	add    0x14(%esp),%edx
	    buf += 16;
 133:	83 c0 10             	add    $0x10,%eax
 136:	03 54 24 18          	add    0x18(%esp),%edx
 13a:	03 54 24 1c          	add    0x1c(%esp),%edx
 13e:	03 54 24 20          	add    0x20(%esp),%edx
 142:	03 54 24 24          	add    0x24(%esp),%edx
 146:	03 54 24 28          	add    0x28(%esp),%edx
 14a:	03 54 24 2c          	add    0x2c(%esp),%edx
 14e:	01 fa                	add    %edi,%edx
 150:	01 f2                	add    %esi,%edx
 152:	01 d3                	add    %edx,%ebx

    while (len > 0) {
        k = len < NMAX ? len : NMAX;
        len -= k;
        while (k >= 16) {
            DO16(buf);
 154:	8b 54 24 30          	mov    0x30(%esp),%edx
 158:	01 d9                	add    %ebx,%ecx
 15a:	01 e9                	add    %ebp,%ecx
 15c:	01 ca                	add    %ecx,%edx
	    buf += 16;
            k -= 16;
 15e:	8b 0c 24             	mov    (%esp),%ecx
 161:	83 e9 10             	sub    $0x10,%ecx

    while (len > 0) {
        k = len < NMAX ? len : NMAX;
        len -= k;
        while (k >= 16) {
            DO16(buf);
 164:	89 54 24 30          	mov    %edx,0x30(%esp)
	    buf += 16;
            k -= 16;
 168:	89 0c 24             	mov    %ecx,(%esp)
 16b:	8b 34 24             	mov    (%esp),%esi
    if (buf == Z_NULL) return 1L;

    while (len > 0) {
        k = len < NMAX ? len : NMAX;
        len -= k;
        while (k >= 16) {
 16e:	83 fe 0f             	cmp    $0xf,%esi
 171:	0f 8f ea fe ff ff    	jg     61 <_adler32+0x61>
 177:	8b 44 24 34          	mov    0x34(%esp),%eax
 17b:	8b 5c 24 50          	mov    0x50(%esp),%ebx
 17f:	83 e8 10             	sub    $0x10,%eax
 182:	89 c2                	mov    %eax,%edx
 184:	c1 ea 04             	shr    $0x4,%edx
 187:	8d 4a 01             	lea    0x1(%edx),%ecx
 18a:	c1 e1 04             	shl    $0x4,%ecx
 18d:	c1 e2 04             	shl    $0x4,%edx
 190:	01 cb                	add    %ecx,%ebx
            DO16(buf);
	    buf += 16;
            k -= 16;
        }
        if (k != 0) do {
 192:	29 d0                	sub    %edx,%eax
 194:	89 5c 24 50          	mov    %ebx,0x50(%esp)
 198:	75 38                	jne    1d2 <_adler32+0x1d2>
            s1 += *buf++;
	    s2 += s1;
        } while (--k);
        s1 %= BASE;
 19a:	89 e8                	mov    %ebp,%eax
 19c:	b9 f1 ff 00 00       	mov    $0xfff1,%ecx
 1a1:	31 d2                	xor    %edx,%edx
 1a3:	f7 f1                	div    %ecx
 1a5:	89 d5                	mov    %edx,%ebp
        s2 %= BASE;
 1a7:	8b 44 24 30          	mov    0x30(%esp),%eax
 1ab:	31 d2                	xor    %edx,%edx
 1ad:	f7 f1                	div    %ecx
    unsigned long s2 = (adler >> 16) & 0xffff;
    int k;

    if (buf == Z_NULL) return 1L;

    while (len > 0) {
 1af:	8b 44 24 54          	mov    0x54(%esp),%eax
        if (k != 0) do {
            s1 += *buf++;
	    s2 += s1;
        } while (--k);
        s1 %= BASE;
        s2 %= BASE;
 1b3:	89 54 24 30          	mov    %edx,0x30(%esp)
    unsigned long s2 = (adler >> 16) & 0xffff;
    int k;

    if (buf == Z_NULL) return 1L;

    while (len > 0) {
 1b7:	85 c0                	test   %eax,%eax
 1b9:	0f 85 72 fe ff ff    	jne    31 <_adler32+0x31>
 1bf:	89 eb                	mov    %ebp,%ebx
	    s2 += s1;
        } while (--k);
        s1 %= BASE;
        s2 %= BASE;
    }
    return (s2 << 16) | s1;
 1c1:	8b 44 24 30          	mov    0x30(%esp),%eax
}
 1c5:	83 c4 38             	add    $0x38,%esp
	    s2 += s1;
        } while (--k);
        s1 %= BASE;
        s2 %= BASE;
    }
    return (s2 << 16) | s1;
 1c8:	c1 e0 10             	shl    $0x10,%eax
 1cb:	09 d8                	or     %ebx,%eax
}
 1cd:	5b                   	pop    %ebx
 1ce:	5e                   	pop    %esi
 1cf:	5f                   	pop    %edi
 1d0:	5d                   	pop    %ebp
 1d1:	c3                   	ret    
 1d2:	8b 54 24 50          	mov    0x50(%esp),%edx
 1d6:	8b 4c 24 30          	mov    0x30(%esp),%ecx
 1da:	01 d0                	add    %edx,%eax
 1dc:	8b 54 24 50          	mov    0x50(%esp),%edx
            DO16(buf);
	    buf += 16;
            k -= 16;
        }
        if (k != 0) do {
            s1 += *buf++;
 1e0:	42                   	inc    %edx
 1e1:	31 db                	xor    %ebx,%ebx
 1e3:	8a 5a ff             	mov    -0x1(%edx),%bl
 1e6:	01 dd                	add    %ebx,%ebp
	    s2 += s1;
 1e8:	01 e9                	add    %ebp,%ecx
        } while (--k);
 1ea:	39 c2                	cmp    %eax,%edx
 1ec:	75 f2                	jne    1e0 <_adler32+0x1e0>
 1ee:	89 4c 24 30          	mov    %ecx,0x30(%esp)
 1f2:	89 54 24 50          	mov    %edx,0x50(%esp)
 1f6:	eb a2                	jmp    19a <_adler32+0x19a>
        s1 %= BASE;
        s2 %= BASE;
    }
    return (s2 << 16) | s1;
}
 1f8:	83 c4 38             	add    $0x38,%esp
{
    unsigned long s1 = adler & 0xffff;
    unsigned long s2 = (adler >> 16) & 0xffff;
    int k;

    if (buf == Z_NULL) return 1L;
 1fb:	b8 01 00 00 00       	mov    $0x1,%eax
        } while (--k);
        s1 %= BASE;
        s2 %= BASE;
    }
    return (s2 << 16) | s1;
}
 200:	5b                   	pop    %ebx
 201:	5e                   	pop    %esi
 202:	5f                   	pop    %edi
 203:	5d                   	pop    %ebp
 204:	c3                   	ret    
 205:	90                   	nop
 206:	90                   	nop
 207:	90                   	nop
 208:	90                   	nop
 209:	90                   	nop
 20a:	90                   	nop
 20b:	90                   	nop
 20c:	90                   	nop
 20d:	90                   	nop
 20e:	90                   	nop
 20f:	90                   	nop

compress.o:     file format pe-i386


Disassembly of section .text:

00000000 <_compress2>:
    Bytef *dest;
    uLongf *destLen;
    const Bytef *source;
    uLong sourceLen;
    int level;
{
   0:	57                   	push   %edi
   1:	56                   	push   %esi
   2:	53                   	push   %ebx
   3:	83 ec 50             	sub    $0x50,%esp
    z_stream stream;
    int err;

    stream.next_in = (Bytef*)source;
   6:	8b 44 24 68          	mov    0x68(%esp),%eax
    Bytef *dest;
    uLongf *destLen;
    const Bytef *source;
    uLong sourceLen;
    int level;
{
   a:	8b 7c 24 64          	mov    0x64(%esp),%edi
    z_stream stream;
    int err;

    stream.next_in = (Bytef*)source;
   e:	89 44 24 18          	mov    %eax,0x18(%esp)
    stream.avail_in = (uInt)sourceLen;
  12:	8b 44 24 6c          	mov    0x6c(%esp),%eax
  16:	89 44 24 1c          	mov    %eax,0x1c(%esp)
#ifdef MAXSEG_64K
    /* Check for source > 64K on 16-bit machine: */
    if ((uLong)stream.avail_in != sourceLen) return Z_BUF_ERROR;
#endif
    stream.next_out = dest;
  1a:	8b 44 24 60          	mov    0x60(%esp),%eax
  1e:	89 44 24 24          	mov    %eax,0x24(%esp)
    stream.avail_out = (uInt)*destLen;
  22:	8b 07                	mov    (%edi),%eax
  24:	89 44 24 28          	mov    %eax,0x28(%esp)

    stream.zalloc = (alloc_func)0;
    stream.zfree = (free_func)0;
    stream.opaque = (voidpf)0;

    err = deflateInit(&stream, level);
  28:	8d 74 24 18          	lea    0x18(%esp),%esi
  2c:	8b 44 24 70          	mov    0x70(%esp),%eax
  30:	c7 44 24 0c 38 00 00 	movl   $0x38,0xc(%esp)
  37:	00 
  38:	c7 44 24 08 00 00 00 	movl   $0x0,0x8(%esp)
  3f:	00 
  40:	89 44 24 04          	mov    %eax,0x4(%esp)
  44:	89 34 24             	mov    %esi,(%esp)
#endif
    stream.next_out = dest;
    stream.avail_out = (uInt)*destLen;
    if ((uLong)stream.avail_out != *destLen) return Z_BUF_ERROR;

    stream.zalloc = (alloc_func)0;
  47:	c7 44 24 38 00 00 00 	movl   $0x0,0x38(%esp)
  4e:	00 
    stream.zfree = (free_func)0;
  4f:	c7 44 24 3c 00 00 00 	movl   $0x0,0x3c(%esp)
  56:	00 
    stream.opaque = (voidpf)0;
  57:	c7 44 24 40 00 00 00 	movl   $0x0,0x40(%esp)
  5e:	00 

    err = deflateInit(&stream, level);
  5f:	e8 00 00 00 00       	call   64 <_compress2+0x64>
    if (err != Z_OK) return err;
  64:	85 c0                	test   %eax,%eax
  66:	74 08                	je     70 <_compress2+0x70>
    }
    *destLen = stream.total_out;

    err = deflateEnd(&stream);
    return err;
}
  68:	83 c4 50             	add    $0x50,%esp
  6b:	5b                   	pop    %ebx
  6c:	5e                   	pop    %esi
  6d:	5f                   	pop    %edi
  6e:	c3                   	ret    
  6f:	90                   	nop
    stream.opaque = (voidpf)0;

    err = deflateInit(&stream, level);
    if (err != Z_OK) return err;

    err = deflate(&stream, Z_FINISH);
  70:	c7 44 24 04 04 00 00 	movl   $0x4,0x4(%esp)
  77:	00 
  78:	89 34 24             	mov    %esi,(%esp)
  7b:	e8 00 00 00 00       	call   80 <_compress2+0x80>
  80:	89 c3                	mov    %eax,%ebx
    if (err != Z_STREAM_END) {
  82:	83 f8 01             	cmp    $0x1,%eax
  85:	74 19                	je     a0 <_compress2+0xa0>
        deflateEnd(&stream);
  87:	89 34 24             	mov    %esi,(%esp)
  8a:	e8 00 00 00 00       	call   8f <_compress2+0x8f>
        return err == Z_OK ? Z_BUF_ERROR : err;
  8f:	b8 fb ff ff ff       	mov    $0xfffffffb,%eax
  94:	85 db                	test   %ebx,%ebx
  96:	0f 45 c3             	cmovne %ebx,%eax
    }
    *destLen = stream.total_out;

    err = deflateEnd(&stream);
    return err;
}
  99:	83 c4 50             	add    $0x50,%esp
  9c:	5b                   	pop    %ebx
  9d:	5e                   	pop    %esi
  9e:	5f                   	pop    %edi
  9f:	c3                   	ret    
    err = deflate(&stream, Z_FINISH);
    if (err != Z_STREAM_END) {
        deflateEnd(&stream);
        return err == Z_OK ? Z_BUF_ERROR : err;
    }
    *destLen = stream.total_out;
  a0:	8b 44 24 2c          	mov    0x2c(%esp),%eax
  a4:	89 07                	mov    %eax,(%edi)

    err = deflateEnd(&stream);
  a6:	89 34 24             	mov    %esi,(%esp)
  a9:	e8 00 00 00 00       	call   ae <_compress2+0xae>
    return err;
}
  ae:	83 c4 50             	add    $0x50,%esp
  b1:	5b                   	pop    %ebx
  b2:	5e                   	pop    %esi
  b3:	5f                   	pop    %edi
  b4:	c3                   	ret    
  b5:	8d 74 26 00          	lea    0x0(%esi,%eiz,1),%esi
  b9:	8d bc 27 00 00 00 00 	lea    0x0(%edi,%eiz,1),%edi

000000c0 <_compress>:
int ZEXPORT compress (dest, destLen, source, sourceLen)
    Bytef *dest;
    uLongf *destLen;
    const Bytef *source;
    uLong sourceLen;
{
  c0:	83 ec 2c             	sub    $0x2c,%esp
    return compress2(dest, destLen, source, sourceLen, Z_DEFAULT_COMPRESSION);
  c3:	8b 44 24 3c          	mov    0x3c(%esp),%eax
  c7:	c7 44 24 10 ff ff ff 	movl   $0xffffffff,0x10(%esp)
  ce:	ff 
  cf:	89 44 24 0c          	mov    %eax,0xc(%esp)
  d3:	8b 44 24 38          	mov    0x38(%esp),%eax
  d7:	89 44 24 08          	mov    %eax,0x8(%esp)
  db:	8b 44 24 34          	mov    0x34(%esp),%eax
  df:	89 44 24 04          	mov    %eax,0x4(%esp)
  e3:	8b 44 24 30          	mov    0x30(%esp),%eax
  e7:	89 04 24             	mov    %eax,(%esp)
  ea:	e8 11 ff ff ff       	call   0 <_compress2>
}
  ef:	83 c4 2c             	add    $0x2c,%esp
  f2:	c3                   	ret    
  f3:	90                   	nop
  f4:	90                   	nop
  f5:	90                   	nop
  f6:	90                   	nop
  f7:	90                   	nop
  f8:	90                   	nop
  f9:	90                   	nop
  fa:	90                   	nop
  fb:	90                   	nop
  fc:	90                   	nop
  fd:	90                   	nop
  fe:	90                   	nop
  ff:	90                   	nop

crc32.o:     file format pe-i386


Disassembly of section .text:

00000000 <_get_crc_table>:
{
#ifdef DYNAMIC_CRC_TABLE
  if (crc_table_empty) make_crc_table();
#endif
  return (const uLongf *)crc_table;
}
   0:	b8 00 00 00 00       	mov    $0x0,%eax
   5:	c3                   	ret    
   6:	8d 76 00             	lea    0x0(%esi),%esi
   9:	8d bc 27 00 00 00 00 	lea    0x0(%edi,%eiz,1),%edi

00000010 <_crc32>:
/* ========================================================================= */
uLong ZEXPORT crc32(crc, buf, len)
    uLong crc;
    const Bytef *buf;
    uInt len;
{
  10:	56                   	push   %esi
  11:	53                   	push   %ebx
  12:	8b 54 24 10          	mov    0x10(%esp),%edx
  16:	8b 5c 24 14          	mov    0x14(%esp),%ebx
    if (buf == Z_NULL) return 0L;
  1a:	85 d2                	test   %edx,%edx
  1c:	0f 84 03 01 00 00    	je     125 <_crc32+0x115>
#ifdef DYNAMIC_CRC_TABLE
    if (crc_table_empty)
      make_crc_table();
#endif
    crc = crc ^ 0xffffffffL;
  22:	8b 44 24 0c          	mov    0xc(%esp),%eax
  26:	83 f0 ff             	xor    $0xffffffff,%eax
    while (len >= 8)
  29:	83 fb 07             	cmp    $0x7,%ebx
  2c:	0f 86 f8 00 00 00    	jbe    12a <_crc32+0x11a>
  32:	8d 4b f8             	lea    -0x8(%ebx),%ecx
  35:	c1 e9 03             	shr    $0x3,%ecx
  38:	8d 4c ca 08          	lea    0x8(%edx,%ecx,8),%ecx
  3c:	8d 74 26 00          	lea    0x0(%esi,%eiz,1),%esi
    {
      DO8(buf);
  40:	0f b6 32             	movzbl (%edx),%esi
  43:	31 c6                	xor    %eax,%esi
  45:	83 c2 08             	add    $0x8,%edx
  48:	c1 e8 08             	shr    $0x8,%eax
  4b:	81 e6 ff 00 00 00    	and    $0xff,%esi
  51:	33 04 b5 00 00 00 00 	xor    0x0(,%esi,4),%eax
  58:	0f b6 72 f9          	movzbl -0x7(%edx),%esi
  5c:	31 c6                	xor    %eax,%esi
  5e:	c1 e8 08             	shr    $0x8,%eax
  61:	81 e6 ff 00 00 00    	and    $0xff,%esi
  67:	33 04 b5 00 00 00 00 	xor    0x0(,%esi,4),%eax
  6e:	0f b6 72 fa          	movzbl -0x6(%edx),%esi
  72:	31 c6                	xor    %eax,%esi
  74:	c1 e8 08             	shr    $0x8,%eax
  77:	81 e6 ff 00 00 00    	and    $0xff,%esi
  7d:	33 04 b5 00 00 00 00 	xor    0x0(,%esi,4),%eax
  84:	0f b6 72 fb          	movzbl -0x5(%edx),%esi
  88:	31 c6                	xor    %eax,%esi
  8a:	c1 e8 08             	shr    $0x8,%eax
  8d:	81 e6 ff 00 00 00    	and    $0xff,%esi
  93:	33 04 b5 00 00 00 00 	xor    0x0(,%esi,4),%eax
  9a:	0f b6 72 fc          	movzbl -0x4(%edx),%esi
  9e:	31 c6                	xor    %eax,%esi
  a0:	c1 e8 08             	shr    $0x8,%eax
  a3:	81 e6 ff 00 00 00    	and    $0xff,%esi
  a9:	33 04 b5 00 00 00 00 	xor    0x0(,%esi,4),%eax
  b0:	0f b6 72 fd          	movzbl -0x3(%edx),%esi
  b4:	31 c6                	xor    %eax,%esi
  b6:	c1 e8 08             	shr    $0x8,%eax
  b9:	81 e6 ff 00 00 00    	and    $0xff,%esi
  bf:	33 04 b5 00 00 00 00 	xor    0x0(,%esi,4),%eax
  c6:	0f b6 72 fe          	movzbl -0x2(%edx),%esi
  ca:	31 c6                	xor    %eax,%esi
  cc:	c1 e8 08             	shr    $0x8,%eax
  cf:	81 e6 ff 00 00 00    	and    $0xff,%esi
  d5:	33 04 b5 00 00 00 00 	xor    0x0(,%esi,4),%eax
  dc:	0f b6 72 ff          	movzbl -0x1(%edx),%esi
  e0:	31 c6                	xor    %eax,%esi
  e2:	c1 e8 08             	shr    $0x8,%eax
  e5:	81 e6 ff 00 00 00    	and    $0xff,%esi
  eb:	33 04 b5 00 00 00 00 	xor    0x0(,%esi,4),%eax
#ifdef DYNAMIC_CRC_TABLE
    if (crc_table_empty)
      make_crc_table();
#endif
    crc = crc ^ 0xffffffffL;
    while (len >= 8)
  f2:	39 ca                	cmp    %ecx,%edx
  f4:	0f 85 46 ff ff ff    	jne    40 <_crc32+0x30>
  fa:	83 e3 07             	and    $0x7,%ebx
    {
      DO8(buf);
      len -= 8;
    }
    if (len) do {
  fd:	85 db                	test   %ebx,%ebx
  ff:	74 1e                	je     11f <_crc32+0x10f>
 101:	01 cb                	add    %ecx,%ebx
      DO1(buf);
 103:	41                   	inc    %ecx
 104:	88 c2                	mov    %al,%dl
 106:	c1 e8 08             	shr    $0x8,%eax
 109:	32 51 ff             	xor    -0x1(%ecx),%dl
 10c:	81 e2 ff 00 00 00    	and    $0xff,%edx
 112:	8b 34 95 00 00 00 00 	mov    0x0(,%edx,4),%esi
 119:	31 f0                	xor    %esi,%eax
    } while (--len);
 11b:	39 d9                	cmp    %ebx,%ecx
 11d:	75 e4                	jne    103 <_crc32+0xf3>
    return crc ^ 0xffffffffL;
 11f:	83 f0 ff             	xor    $0xffffffff,%eax
}
 122:	5b                   	pop    %ebx
 123:	5e                   	pop    %esi
 124:	c3                   	ret    
uLong ZEXPORT crc32(crc, buf, len)
    uLong crc;
    const Bytef *buf;
    uInt len;
{
    if (buf == Z_NULL) return 0L;
 125:	31 c0                	xor    %eax,%eax
    }
    if (len) do {
      DO1(buf);
    } while (--len);
    return crc ^ 0xffffffffL;
}
 127:	5b                   	pop    %ebx
 128:	5e                   	pop    %esi
 129:	c3                   	ret    
#ifdef DYNAMIC_CRC_TABLE
    if (crc_table_empty)
      make_crc_table();
#endif
    crc = crc ^ 0xffffffffL;
    while (len >= 8)
 12a:	89 d1                	mov    %edx,%ecx
 12c:	eb cf                	jmp    fd <_crc32+0xed>
 12e:	90                   	nop
 12f:	90                   	nop

deflate.o:     file format pe-i386


Disassembly of section .text:

00000000 <_longest_match>:
 */
#ifndef FASTEST
local uInt longest_match(s, cur_match)
    deflate_state *s;
    IPos cur_match;                             /* current match */
{
       0:	55                   	push   %ebp
       1:	57                   	push   %edi
       2:	56                   	push   %esi
       3:	53                   	push   %ebx
       4:	83 ec 30             	sub    $0x30,%esp
       7:	89 c7                	mov    %eax,%edi
       9:	89 54 24 18          	mov    %edx,0x18(%esp)
    unsigned chain_length = s->max_chain_length;/* max hash chain length */
    register Bytef *scan = s->window + s->strstart; /* current string */
       d:	8b 4f 64             	mov    0x64(%edi),%ecx
    register Bytef *match;                       /* matched string */
    register int len;                           /* length of current match */
    int best_len = s->prev_length;              /* best match length so far */
    int nice_match = s->nice_match;             /* stop if match long enough */
      10:	8b 97 88 00 00 00    	mov    0x88(%edi),%edx
local uInt longest_match(s, cur_match)
    deflate_state *s;
    IPos cur_match;                             /* current match */
{
    unsigned chain_length = s->max_chain_length;/* max hash chain length */
    register Bytef *scan = s->window + s->strstart; /* current string */
      16:	8b 5f 30             	mov    0x30(%edi),%ebx
    register Bytef *match;                       /* matched string */
    register int len;                           /* length of current match */
    int best_len = s->prev_length;              /* best match length so far */
      19:	8b 6f 70             	mov    0x70(%edi),%ebp
    int nice_match = s->nice_match;             /* stop if match long enough */
    IPos limit = s->strstart > (IPos)MAX_DIST(s) ?
      1c:	8b 7f 24             	mov    0x24(%edi),%edi
local uInt longest_match(s, cur_match)
    deflate_state *s;
    IPos cur_match;                             /* current match */
{
    unsigned chain_length = s->max_chain_length;/* max hash chain length */
    register Bytef *scan = s->window + s->strstart; /* current string */
      1f:	8d 34 0b             	lea    (%ebx,%ecx,1),%esi
    register Bytef *match;                       /* matched string */
    register int len;                           /* length of current match */
    int best_len = s->prev_length;              /* best match length so far */
    int nice_match = s->nice_match;             /* stop if match long enough */
      22:	89 54 24 20          	mov    %edx,0x20(%esp)
    IPos limit = s->strstart > (IPos)MAX_DIST(s) ?
      26:	8d 97 fa fe ff ff    	lea    -0x106(%edi),%edx
 */
#ifndef FASTEST
local uInt longest_match(s, cur_match)
    deflate_state *s;
    IPos cur_match;                             /* current match */
{
      2c:	89 44 24 24          	mov    %eax,0x24(%esp)
    unsigned chain_length = s->max_chain_length;/* max hash chain length */
    register Bytef *scan = s->window + s->strstart; /* current string */
      30:	89 74 24 1c          	mov    %esi,0x1c(%esp)
#ifndef FASTEST
local uInt longest_match(s, cur_match)
    deflate_state *s;
    IPos cur_match;                             /* current match */
{
    unsigned chain_length = s->max_chain_length;/* max hash chain length */
      34:	8b 40 74             	mov    0x74(%eax),%eax
    register Bytef *scan = s->window + s->strstart; /* current string */
    register Bytef *match;                       /* matched string */
    register int len;                           /* length of current match */
    int best_len = s->prev_length;              /* best match length so far */
      37:	89 ee                	mov    %ebp,%esi
    int nice_match = s->nice_match;             /* stop if match long enough */
    IPos limit = s->strstart > (IPos)MAX_DIST(s) ?
        s->strstart - (IPos)MAX_DIST(s) : NIL;
      39:	c7 04 24 00 00 00 00 	movl   $0x0,(%esp)
      40:	39 d1                	cmp    %edx,%ecx
      42:	76 0b                	jbe    4f <_longest_match+0x4f>
      44:	8d 91 06 01 00 00    	lea    0x106(%ecx),%edx
      4a:	29 fa                	sub    %edi,%edx
      4c:	89 14 24             	mov    %edx,(%esp)
    /* Stop when cur_match becomes <= limit. To simplify the code,
     * we prevent matches with the string of window index 0.
     */
    Posf *prev = s->prev;
      4f:	8b 7c 24 24          	mov    0x24(%esp),%edi
     */
    register Bytef *strend = s->window + s->strstart + MAX_MATCH - 1;
    register ush scan_start = *(ushf*)scan;
    register ush scan_end   = *(ushf*)(scan+best_len-1);
#else
    register Bytef *strend = s->window + s->strstart + MAX_MATCH;
      53:	8d 8c 0b 02 01 00 00 	lea    0x102(%ebx,%ecx,1),%ecx
      5a:	89 4c 24 2c          	mov    %ecx,0x2c(%esp)
    IPos limit = s->strstart > (IPos)MAX_DIST(s) ?
        s->strstart - (IPos)MAX_DIST(s) : NIL;
    /* Stop when cur_match becomes <= limit. To simplify the code,
     * we prevent matches with the string of window index 0.
     */
    Posf *prev = s->prev;
      5e:	8b 57 38             	mov    0x38(%edi),%edx
      61:	89 54 24 08          	mov    %edx,0x8(%esp)
    uInt wmask = s->w_mask;
      65:	8b 57 2c             	mov    0x2c(%edi),%edx
      68:	89 54 24 0c          	mov    %edx,0xc(%esp)
    register Bytef *strend = s->window + s->strstart + MAX_MATCH - 1;
    register ush scan_start = *(ushf*)scan;
    register ush scan_end   = *(ushf*)(scan+best_len-1);
#else
    register Bytef *strend = s->window + s->strstart + MAX_MATCH;
    register Byte scan_end1  = scan[best_len-1];
      6c:	8b 54 24 1c          	mov    0x1c(%esp),%edx
      70:	8a 4c 2a ff          	mov    -0x1(%edx,%ebp,1),%cl
      74:	88 4c 24 17          	mov    %cl,0x17(%esp)
    register Byte scan_end   = scan[best_len];
      78:	8a 0c 2a             	mov    (%edx,%ebp,1),%cl
      7b:	88 4c 24 04          	mov    %cl,0x4(%esp)
     */
    Assert(s->hash_bits >= 8 && MAX_MATCH == 258, "Code too clever");

    /* Do not waste too much time if we already have a good match: */
    if (s->prev_length >= s->good_match) {
        chain_length >>= 2;
      7f:	89 c1                	mov    %eax,%ecx
      81:	c1 e9 02             	shr    $0x2,%ecx
      84:	3b af 84 00 00 00    	cmp    0x84(%edi),%ebp
      8a:	0f 43 c1             	cmovae %ecx,%eax
    }
    /* Do not look for matches beyond the end of the input. This is necessary
     * to make deflate deterministic.
     */
    if ((uInt)nice_match > s->lookahead) nice_match = s->lookahead;
      8d:	8b 4f 6c             	mov    0x6c(%edi),%ecx
      90:	8b 7c 24 20          	mov    0x20(%esp),%edi
      94:	39 cf                	cmp    %ecx,%edi
      96:	89 4c 24 28          	mov    %ecx,0x28(%esp)
      9a:	0f 47 f9             	cmova  %ecx,%edi
      9d:	89 7c 24 20          	mov    %edi,0x20(%esp)
      a1:	89 44 24 10          	mov    %eax,0x10(%esp)
      a5:	89 df                	mov    %ebx,%edi
      a7:	8b 54 24 18          	mov    0x18(%esp),%edx
      ab:	eb 2b                	jmp    d8 <_longest_match+0xd8>
      ad:	8d 76 00             	lea    0x0(%esi),%esi
#else
            scan_end1  = scan[best_len-1];
            scan_end   = scan[best_len];
#endif
        }
    } while ((cur_match = prev[cur_match & wmask]) > limit
      b0:	8b 44 24 0c          	mov    0xc(%esp),%eax
      b4:	8b 5c 24 08          	mov    0x8(%esp),%ebx
      b8:	21 c2                	and    %eax,%edx
      ba:	66 8b 04 53          	mov    (%ebx,%edx,2),%ax
      be:	25 ff ff 00 00       	and    $0xffff,%eax
      c3:	89 c2                	mov    %eax,%edx
             && --chain_length != 0);
      c5:	39 04 24             	cmp    %eax,(%esp)
      c8:	0f 83 06 01 00 00    	jae    1d4 <_longest_match+0x1d4>
      ce:	ff 4c 24 10          	decl   0x10(%esp)
      d2:	0f 84 fc 00 00 00    	je     1d4 <_longest_match+0x1d4>

    Assert((ulg)s->strstart <= s->window_size-MIN_LOOKAHEAD, "need lookahead");

    do {
        Assert(cur_match < s->strstart, "no future");
        match = s->window + cur_match;
      d8:	8d 04 17             	lea    (%edi,%edx,1),%eax
      db:	89 f5                	mov    %esi,%ebp
        len = (MAX_MATCH - 1) - (int)(strend-scan);
        scan = strend - (MAX_MATCH-1);

#else /* UNALIGNED_OK */

        if (match[best_len]   != scan_end  ||
      dd:	8a 0c 30             	mov    (%eax,%esi,1),%cl
      e0:	3a 4c 24 04          	cmp    0x4(%esp),%cl
      e4:	75 ca                	jne    b0 <_longest_match+0xb0>
            match[best_len-1] != scan_end1 ||
      e6:	8a 5c 30 ff          	mov    -0x1(%eax,%esi,1),%bl
      ea:	88 5c 24 18          	mov    %bl,0x18(%esp)
        len = (MAX_MATCH - 1) - (int)(strend-scan);
        scan = strend - (MAX_MATCH-1);

#else /* UNALIGNED_OK */

        if (match[best_len]   != scan_end  ||
      ee:	3a 5c 24 17          	cmp    0x17(%esp),%bl
      f2:	75 bc                	jne    b0 <_longest_match+0xb0>
            match[best_len-1] != scan_end1 ||
      f4:	8b 5c 24 1c          	mov    0x1c(%esp),%ebx
      f8:	8a 1b                	mov    (%ebx),%bl
      fa:	38 18                	cmp    %bl,(%eax)
      fc:	75 b2                	jne    b0 <_longest_match+0xb0>
            *match            != *scan     ||
      fe:	8b 5c 24 1c          	mov    0x1c(%esp),%ebx
     102:	8a 5b 01             	mov    0x1(%ebx),%bl
     105:	38 58 01             	cmp    %bl,0x1(%eax)
     108:	75 a6                	jne    b0 <_longest_match+0xb0>
         * again later. (This heuristic is not always a win.)
         * It is not necessary to compare scan[2] and match[2] since they
         * are always equal when the other bytes match, given that
         * the hash keys are equal and that HASH_BITS >= 8.
         */
        scan += 2, match++;
     10a:	8b 6c 24 1c          	mov    0x1c(%esp),%ebp
     10e:	83 c0 02             	add    $0x2,%eax
     111:	83 c5 02             	add    $0x2,%ebp
     114:	8b 5c 24 10          	mov    0x10(%esp),%ebx
     118:	89 54 24 04          	mov    %edx,0x4(%esp)
     11c:	eb 65                	jmp    183 <_longest_match+0x183>
     11e:	66 90                	xchg   %ax,%ax

        /* We check for insufficient lookahead only every 8th comparison;
         * the 256th check will be made at strstart+258.
         */
        do {
        } while (*++scan == *++match && *++scan == *++match &&
     120:	8a 50 02             	mov    0x2(%eax),%dl
     123:	38 55 02             	cmp    %dl,0x2(%ebp)
     126:	0f 85 19 01 00 00    	jne    245 <_longest_match+0x245>
     12c:	8a 50 03             	mov    0x3(%eax),%dl
     12f:	38 55 03             	cmp    %dl,0x3(%ebp)
     132:	0f 85 fd 00 00 00    	jne    235 <_longest_match+0x235>
                 *++scan == *++match && *++scan == *++match &&
     138:	8a 50 04             	mov    0x4(%eax),%dl
     13b:	38 55 04             	cmp    %dl,0x4(%ebp)
     13e:	0f 85 e1 00 00 00    	jne    225 <_longest_match+0x225>
     144:	8a 50 05             	mov    0x5(%eax),%dl
     147:	38 55 05             	cmp    %dl,0x5(%ebp)
     14a:	0f 85 c5 00 00 00    	jne    215 <_longest_match+0x215>
                 *++scan == *++match && *++scan == *++match &&
     150:	8a 50 06             	mov    0x6(%eax),%dl
     153:	38 55 06             	cmp    %dl,0x6(%ebp)
     156:	0f 85 a9 00 00 00    	jne    205 <_longest_match+0x205>
     15c:	8a 50 07             	mov    0x7(%eax),%dl
     15f:	38 55 07             	cmp    %dl,0x7(%ebp)
     162:	0f 85 90 00 00 00    	jne    1f8 <_longest_match+0x1f8>
     168:	83 c0 08             	add    $0x8,%eax
     16b:	83 c5 08             	add    $0x8,%ebp
                 *++scan == *++match && *++scan == *++match &&
     16e:	8a 10                	mov    (%eax),%dl
     170:	38 55 00             	cmp    %dl,0x0(%ebp)
     173:	0f 85 dc 00 00 00    	jne    255 <_longest_match+0x255>
     179:	3b 6c 24 2c          	cmp    0x2c(%esp),%ebp
     17d:	0f 83 d2 00 00 00    	jae    255 <_longest_match+0x255>
                 scan < strend);
     183:	8a 50 01             	mov    0x1(%eax),%dl
     186:	38 55 01             	cmp    %dl,0x1(%ebp)
     189:	74 95                	je     120 <_longest_match+0x120>
     18b:	89 5c 24 10          	mov    %ebx,0x10(%esp)
     18f:	8b 54 24 04          	mov    0x4(%esp),%edx
     193:	45                   	inc    %ebp

        Assert(scan <= s->window+(unsigned)(s->window_size-1), "wild scan");

        len = MAX_MATCH - (int)(strend - scan);
     194:	8b 44 24 2c          	mov    0x2c(%esp),%eax
     198:	29 c5                	sub    %eax,%ebp
        scan = strend - MAX_MATCH;
     19a:	2d 02 01 00 00       	sub    $0x102,%eax
                 *++scan == *++match && *++scan == *++match &&
                 scan < strend);

        Assert(scan <= s->window+(unsigned)(s->window_size-1), "wild scan");

        len = MAX_MATCH - (int)(strend - scan);
     19f:	81 c5 02 01 00 00    	add    $0x102,%ebp
        scan = strend - MAX_MATCH;
     1a5:	89 44 24 1c          	mov    %eax,0x1c(%esp)

#endif /* UNALIGNED_OK */

        if (len > best_len) {
     1a9:	39 ee                	cmp    %ebp,%esi
     1ab:	7d 38                	jge    1e5 <_longest_match+0x1e5>
            s->match_start = cur_match;
     1ad:	8b 44 24 24          	mov    0x24(%esp),%eax
            best_len = len;
            if (len >= nice_match) break;
     1b1:	39 6c 24 20          	cmp    %ebp,0x20(%esp)
        scan = strend - MAX_MATCH;

#endif /* UNALIGNED_OK */

        if (len > best_len) {
            s->match_start = cur_match;
     1b5:	89 50 68             	mov    %edx,0x68(%eax)
            best_len = len;
            if (len >= nice_match) break;
     1b8:	7e 1a                	jle    1d4 <_longest_match+0x1d4>
#ifdef UNALIGNED_OK
            scan_end = *(ushf*)(scan+best_len-1);
#else
            scan_end1  = scan[best_len-1];
     1ba:	8b 74 24 1c          	mov    0x1c(%esp),%esi
     1be:	8a 44 2e ff          	mov    -0x1(%esi,%ebp,1),%al
     1c2:	88 44 24 17          	mov    %al,0x17(%esp)
            scan_end   = scan[best_len];
     1c6:	8a 04 2e             	mov    (%esi,%ebp,1),%al
     1c9:	88 44 24 04          	mov    %al,0x4(%esp)
     1cd:	89 ee                	mov    %ebp,%esi
     1cf:	e9 dc fe ff ff       	jmp    b0 <_longest_match+0xb0>
     1d4:	8b 44 24 28          	mov    0x28(%esp),%eax
     1d8:	39 c5                	cmp    %eax,%ebp
     1da:	0f 46 c5             	cmovbe %ebp,%eax
    } while ((cur_match = prev[cur_match & wmask]) > limit
             && --chain_length != 0);

    if ((uInt)best_len <= s->lookahead) return (uInt)best_len;
    return s->lookahead;
}
     1dd:	83 c4 30             	add    $0x30,%esp
     1e0:	5b                   	pop    %ebx
     1e1:	5e                   	pop    %esi
     1e2:	5f                   	pop    %edi
     1e3:	5d                   	pop    %ebp
     1e4:	c3                   	ret    
     1e5:	8a 44 24 18          	mov    0x18(%esp),%al
     1e9:	89 f5                	mov    %esi,%ebp
     1eb:	88 4c 24 04          	mov    %cl,0x4(%esp)
     1ef:	88 44 24 17          	mov    %al,0x17(%esp)
     1f3:	e9 b8 fe ff ff       	jmp    b0 <_longest_match+0xb0>
     1f8:	89 5c 24 10          	mov    %ebx,0x10(%esp)
     1fc:	8b 54 24 04          	mov    0x4(%esp),%edx
         * the 256th check will be made at strstart+258.
         */
        do {
        } while (*++scan == *++match && *++scan == *++match &&
                 *++scan == *++match && *++scan == *++match &&
                 *++scan == *++match && *++scan == *++match &&
     200:	83 c5 07             	add    $0x7,%ebp
     203:	eb 8f                	jmp    194 <_longest_match+0x194>
     205:	89 5c 24 10          	mov    %ebx,0x10(%esp)
     209:	8b 54 24 04          	mov    0x4(%esp),%edx
     20d:	83 c5 06             	add    $0x6,%ebp
     210:	e9 7f ff ff ff       	jmp    194 <_longest_match+0x194>
     215:	89 5c 24 10          	mov    %ebx,0x10(%esp)
     219:	8b 54 24 04          	mov    0x4(%esp),%edx
        /* We check for insufficient lookahead only every 8th comparison;
         * the 256th check will be made at strstart+258.
         */
        do {
        } while (*++scan == *++match && *++scan == *++match &&
                 *++scan == *++match && *++scan == *++match &&
     21d:	83 c5 05             	add    $0x5,%ebp
     220:	e9 6f ff ff ff       	jmp    194 <_longest_match+0x194>
     225:	89 5c 24 10          	mov    %ebx,0x10(%esp)
     229:	8b 54 24 04          	mov    0x4(%esp),%edx
     22d:	83 c5 04             	add    $0x4,%ebp
     230:	e9 5f ff ff ff       	jmp    194 <_longest_match+0x194>
     235:	89 5c 24 10          	mov    %ebx,0x10(%esp)
     239:	8b 54 24 04          	mov    0x4(%esp),%edx

        /* We check for insufficient lookahead only every 8th comparison;
         * the 256th check will be made at strstart+258.
         */
        do {
        } while (*++scan == *++match && *++scan == *++match &&
     23d:	83 c5 03             	add    $0x3,%ebp
     240:	e9 4f ff ff ff       	jmp    194 <_longest_match+0x194>
     245:	89 5c 24 10          	mov    %ebx,0x10(%esp)
     249:	8b 54 24 04          	mov    0x4(%esp),%edx
     24d:	83 c5 02             	add    $0x2,%ebp
     250:	e9 3f ff ff ff       	jmp    194 <_longest_match+0x194>
     255:	89 5c 24 10          	mov    %ebx,0x10(%esp)
     259:	8b 54 24 04          	mov    0x4(%esp),%edx
     25d:	e9 32 ff ff ff       	jmp    194 <_longest_match+0x194>
     262:	8d b4 26 00 00 00 00 	lea    0x0(%esi,%eiz,1),%esi
     269:	8d bc 27 00 00 00 00 	lea    0x0(%edi,%eiz,1),%edi

00000270 <_fill_window>:
 *    performed for at least two bytes (required for the zip translate_eol
 *    option -- not supported here).
 */
local void fill_window(s)
    deflate_state *s;
{
     270:	55                   	push   %ebp
     271:	57                   	push   %edi
     272:	56                   	push   %esi
     273:	53                   	push   %ebx
     274:	83 ec 3c             	sub    $0x3c,%esp
     277:	89 c6                	mov    %eax,%esi
    register unsigned n, m;
    register Posf *p;
    unsigned more;    /* Amount of free space at the end of the window. */
    uInt wsize = s->w_size;
     279:	8b 78 24             	mov    0x24(%eax),%edi
     27c:	8b 58 6c             	mov    0x6c(%eax),%ebx
		*p = (Pos)(m >= wsize ? m-wsize : NIL);
	    } while (--n);

	    n = wsize;
#ifndef FASTEST
	    p = &s->prev[n];
     27f:	8d 04 3f             	lea    (%edi,%edi,1),%eax
     282:	89 44 24 2c          	mov    %eax,0x2c(%esp)
     286:	eb 7e                	jmp    306 <_fill_window+0x96>

    do {
        more = (unsigned)(s->window_size -(ulg)s->lookahead -(ulg)s->strstart);

        /* Deal with !@#$% 64K limit: */
        if (more == 0 && s->strstart == 0 && s->lookahead == 0) {
     288:	09 c3                	or     %eax,%ebx
     28a:	0f 85 a8 00 00 00    	jne    338 <_fill_window+0xc8>
    deflate_state *s;
{
    register unsigned n, m;
    register Posf *p;
    unsigned more;    /* Amount of free space at the end of the window. */
    uInt wsize = s->w_size;
     290:	89 fd                	mov    %edi,%ebp
		 */
	    } while (--n);
#endif
            more += wsize;
        }
        if (s->strm->avail_in == 0) return;
     292:	8b 1e                	mov    (%esi),%ebx
     294:	8b 53 04             	mov    0x4(%ebx),%edx
     297:	85 d2                	test   %edx,%edx
     299:	0f 84 91 00 00 00    	je     330 <_fill_window+0xc0>
         * Otherwise, window_size == 2*WSIZE so more >= 2.
         * If there was sliding, more >= WSIZE. So in all cases, more >= 2.
         */
        Assert(more >= 2, "more < 2");

        n = read_buf(s->strm, s->window + s->strstart + s->lookahead, more);
     29f:	8b 46 30             	mov    0x30(%esi),%eax
     2a2:	8b 4e 6c             	mov    0x6c(%esi),%ecx
     2a5:	89 44 24 1c          	mov    %eax,0x1c(%esp)
     2a9:	8b 46 64             	mov    0x64(%esi),%eax
     2ac:	89 44 24 20          	mov    %eax,0x20(%esp)
    unsigned size;
{
    unsigned len = strm->avail_in;

    if (len > size) len = size;
    if (len == 0) return 0;
     2b0:	31 c0                	xor    %eax,%eax
    Bytef *buf;
    unsigned size;
{
    unsigned len = strm->avail_in;

    if (len > size) len = size;
     2b2:	39 d5                	cmp    %edx,%ebp
     2b4:	0f 83 26 01 00 00    	jae    3e0 <_fill_window+0x170>
    if (len == 0) return 0;
     2ba:	85 ed                	test   %ebp,%ebp
     2bc:	0f 85 11 01 00 00    	jne    3d3 <_fill_window+0x163>
         * If there was sliding, more >= WSIZE. So in all cases, more >= 2.
         */
        Assert(more >= 2, "more < 2");

        n = read_buf(s->strm, s->window + s->strstart + s->lookahead, more);
        s->lookahead += n;
     2c2:	8d 1c 08             	lea    (%eax,%ecx,1),%ebx
     2c5:	89 5e 6c             	mov    %ebx,0x6c(%esi)

        /* Initialize the hash value now that we have some input: */
        if (s->lookahead >= MIN_MATCH) {
     2c8:	83 fb 02             	cmp    $0x2,%ebx
     2cb:	76 30                	jbe    2fd <_fill_window+0x8d>
            s->ins_h = s->window[s->strstart];
     2cd:	8b 4e 30             	mov    0x30(%esi),%ecx
     2d0:	8b 56 64             	mov    0x64(%esi),%edx
     2d3:	31 c0                	xor    %eax,%eax
     2d5:	8a 04 11             	mov    (%ecx,%edx,1),%al
     2d8:	89 46 40             	mov    %eax,0x40(%esi)
            UPDATE_HASH(s, s->ins_h, s->window[s->strstart+1]);
     2db:	0f b6 6c 11 01       	movzbl 0x1(%ecx,%edx,1),%ebp
     2e0:	8b 4e 50             	mov    0x50(%esi),%ecx
     2e3:	81 e5 ff 00 00 00    	and    $0xff,%ebp
     2e9:	d3 e0                	shl    %cl,%eax
     2eb:	31 e8                	xor    %ebp,%eax
     2ed:	8b 56 4c             	mov    0x4c(%esi),%edx
     2f0:	21 d0                	and    %edx,%eax
        }
        /* If the whole input has less than MIN_MATCH bytes, ins_h is garbage,
         * but this is not important since only literal bytes will be emitted.
         */

    } while (s->lookahead < MIN_LOOKAHEAD && s->strm->avail_in != 0);
     2f2:	81 fb 05 01 00 00    	cmp    $0x105,%ebx
        s->lookahead += n;

        /* Initialize the hash value now that we have some input: */
        if (s->lookahead >= MIN_MATCH) {
            s->ins_h = s->window[s->strstart];
            UPDATE_HASH(s, s->ins_h, s->window[s->strstart+1]);
     2f8:	89 46 40             	mov    %eax,0x40(%esi)
        }
        /* If the whole input has less than MIN_MATCH bytes, ins_h is garbage,
         * but this is not important since only literal bytes will be emitted.
         */

    } while (s->lookahead < MIN_LOOKAHEAD && s->strm->avail_in != 0);
     2fb:	77 33                	ja     330 <_fill_window+0xc0>
     2fd:	8b 06                	mov    (%esi),%eax
     2ff:	8b 48 04             	mov    0x4(%eax),%ecx
     302:	85 c9                	test   %ecx,%ecx
     304:	74 2a                	je     330 <_fill_window+0xc0>
    register Posf *p;
    unsigned more;    /* Amount of free space at the end of the window. */
    uInt wsize = s->w_size;

    do {
        more = (unsigned)(s->window_size -(ulg)s->lookahead -(ulg)s->strstart);
     306:	8b 6e 34             	mov    0x34(%esi),%ebp
     309:	8b 46 64             	mov    0x64(%esi),%eax
     30c:	29 dd                	sub    %ebx,%ebp

        /* Deal with !@#$% 64K limit: */
        if (more == 0 && s->strstart == 0 && s->lookahead == 0) {
     30e:	29 c5                	sub    %eax,%ebp
     310:	0f 84 72 ff ff ff    	je     288 <_fill_window+0x18>
            more = wsize;

        } else if (more == (unsigned)(-1)) {
     316:	83 fd ff             	cmp    $0xffffffff,%ebp
     319:	75 1d                	jne    338 <_fill_window+0xc8>
		 */
	    } while (--n);
#endif
            more += wsize;
        }
        if (s->strm->avail_in == 0) return;
     31b:	8b 1e                	mov    (%esi),%ebx

        } else if (more == (unsigned)(-1)) {
            /* Very unlikely, but possible on 16 bit machine if strstart == 0
             * and lookahead == 1 (input done one byte at time)
             */
            more--;
     31d:	bd fe ff ff ff       	mov    $0xfffffffe,%ebp
		 */
	    } while (--n);
#endif
            more += wsize;
        }
        if (s->strm->avail_in == 0) return;
     322:	8b 53 04             	mov    0x4(%ebx),%edx
     325:	85 d2                	test   %edx,%edx
     327:	0f 85 72 ff ff ff    	jne    29f <_fill_window+0x2f>
     32d:	8d 76 00             	lea    0x0(%esi),%esi
        /* If the whole input has less than MIN_MATCH bytes, ins_h is garbage,
         * but this is not important since only literal bytes will be emitted.
         */

    } while (s->lookahead < MIN_LOOKAHEAD && s->strm->avail_in != 0);
}
     330:	83 c4 3c             	add    $0x3c,%esp
     333:	5b                   	pop    %ebx
     334:	5e                   	pop    %esi
     335:	5f                   	pop    %edi
     336:	5d                   	pop    %ebp
     337:	c3                   	ret    
            more--;

        /* If the window is almost full and there is insufficient lookahead,
         * move the upper half to the lower one to make room in the upper half.
         */
        } else if (s->strstart >= wsize+MAX_DIST(s)) {
     338:	8b 56 24             	mov    0x24(%esi),%edx
     33b:	01 fa                	add    %edi,%edx
     33d:	81 ea 06 01 00 00    	sub    $0x106,%edx
     343:	39 d0                	cmp    %edx,%eax
     345:	0f 82 47 ff ff ff    	jb     292 <_fill_window+0x22>

            zmemcpy(s->window, s->window+wsize, (unsigned)wsize);
     34b:	8b 46 30             	mov    0x30(%esi),%eax
     34e:	89 7c 24 08          	mov    %edi,0x8(%esp)
     352:	89 04 24             	mov    %eax,(%esp)
     355:	8d 14 38             	lea    (%eax,%edi,1),%edx
     358:	89 54 24 04          	mov    %edx,0x4(%esp)
     35c:	e8 00 00 00 00       	call   361 <_fill_window+0xf1>
            s->match_start -= wsize;
     361:	8b 46 68             	mov    0x68(%esi),%eax
     364:	29 f8                	sub    %edi,%eax
            s->strstart    -= wsize; /* we now have strstart >= MAX_DIST */
     366:	8b 56 64             	mov    0x64(%esi),%edx
            s->block_start -= (long) wsize;
     369:	8b 4e 54             	mov    0x54(%esi),%ecx
         * move the upper half to the lower one to make room in the upper half.
         */
        } else if (s->strstart >= wsize+MAX_DIST(s)) {

            zmemcpy(s->window, s->window+wsize, (unsigned)wsize);
            s->match_start -= wsize;
     36c:	89 46 68             	mov    %eax,0x68(%esi)
               at the expense of memory usage). We slide even when level == 0
               to keep the hash table consistent if we switch back to level > 0
               later. (Using level 0 permanently is not an optimal usage of
               zlib, so we don't care about this pathological case.)
             */
	    n = s->hash_size;
     36f:	8b 5e 44             	mov    0x44(%esi),%ebx
	    p = &s->head[n];
     372:	8b 46 3c             	mov    0x3c(%esi),%eax
         */
        } else if (s->strstart >= wsize+MAX_DIST(s)) {

            zmemcpy(s->window, s->window+wsize, (unsigned)wsize);
            s->match_start -= wsize;
            s->strstart    -= wsize; /* we now have strstart >= MAX_DIST */
     375:	29 fa                	sub    %edi,%edx
            s->block_start -= (long) wsize;
     377:	29 f9                	sub    %edi,%ecx
         */
        } else if (s->strstart >= wsize+MAX_DIST(s)) {

            zmemcpy(s->window, s->window+wsize, (unsigned)wsize);
            s->match_start -= wsize;
            s->strstart    -= wsize; /* we now have strstart >= MAX_DIST */
     379:	89 56 64             	mov    %edx,0x64(%esi)
            s->block_start -= (long) wsize;
     37c:	89 4e 54             	mov    %ecx,0x54(%esi)
               to keep the hash table consistent if we switch back to level > 0
               later. (Using level 0 permanently is not an optimal usage of
               zlib, so we don't care about this pathological case.)
             */
	    n = s->hash_size;
	    p = &s->head[n];
     37f:	8d 14 58             	lea    (%eax,%ebx,2),%edx
	    do {
		m = *--p;
     382:	83 ea 02             	sub    $0x2,%edx
     385:	31 c9                	xor    %ecx,%ecx
     387:	66 8b 0a             	mov    (%edx),%cx
		*p = (Pos)(m >= wsize ? m-wsize : NIL);
     38a:	89 c8                	mov    %ecx,%eax
     38c:	29 f8                	sub    %edi,%eax
     38e:	39 cf                	cmp    %ecx,%edi
     390:	b9 00 00 00 00       	mov    $0x0,%ecx
     395:	0f 47 c1             	cmova  %ecx,%eax
	    } while (--n);
     398:	4b                   	dec    %ebx
             */
	    n = s->hash_size;
	    p = &s->head[n];
	    do {
		m = *--p;
		*p = (Pos)(m >= wsize ? m-wsize : NIL);
     399:	66 89 02             	mov    %ax,(%edx)
	    } while (--n);
     39c:	75 e4                	jne    382 <_fill_window+0x112>

	    n = wsize;
#ifndef FASTEST
	    p = &s->prev[n];
     39e:	8b 54 24 2c          	mov    0x2c(%esp),%edx
     3a2:	8b 46 38             	mov    0x38(%esi),%eax
     3a5:	01 c2                	add    %eax,%edx
    deflate_state *s;
{
    register unsigned n, m;
    register Posf *p;
    unsigned more;    /* Amount of free space at the end of the window. */
    uInt wsize = s->w_size;
     3a7:	89 fb                	mov    %edi,%ebx
     3a9:	8d b4 26 00 00 00 00 	lea    0x0(%esi,%eiz,1),%esi

	    n = wsize;
#ifndef FASTEST
	    p = &s->prev[n];
	    do {
		m = *--p;
     3b0:	83 ea 02             	sub    $0x2,%edx
     3b3:	31 c9                	xor    %ecx,%ecx
     3b5:	66 8b 0a             	mov    (%edx),%cx
		*p = (Pos)(m >= wsize ? m-wsize : NIL);
     3b8:	89 c8                	mov    %ecx,%eax
     3ba:	29 f8                	sub    %edi,%eax
     3bc:	39 cf                	cmp    %ecx,%edi
     3be:	b9 00 00 00 00       	mov    $0x0,%ecx
     3c3:	0f 47 c1             	cmova  %ecx,%eax
		/* If n is not on any hash chain, prev[n] is garbage but
		 * its value will never be used.
		 */
	    } while (--n);
     3c6:	4b                   	dec    %ebx
	    n = wsize;
#ifndef FASTEST
	    p = &s->prev[n];
	    do {
		m = *--p;
		*p = (Pos)(m >= wsize ? m-wsize : NIL);
     3c7:	66 89 02             	mov    %ax,(%edx)
		/* If n is not on any hash chain, prev[n] is garbage but
		 * its value will never be used.
		 */
	    } while (--n);
     3ca:	75 e4                	jne    3b0 <_fill_window+0x140>
#endif
            more += wsize;
     3cc:	01 fd                	add    %edi,%ebp
     3ce:	e9 bf fe ff ff       	jmp    292 <_fill_window+0x22>
     3d3:	89 d0                	mov    %edx,%eax
    unsigned size;
{
    unsigned len = strm->avail_in;

    if (len > size) len = size;
    if (len == 0) return 0;
     3d5:	89 ea                	mov    %ebp,%edx
     3d7:	29 e8                	sub    %ebp,%eax
     3d9:	8d b4 26 00 00 00 00 	lea    0x0(%esi,%eiz,1),%esi

    strm->avail_in  -= len;
     3e0:	89 43 04             	mov    %eax,0x4(%ebx)

    if (!strm->state->noheader) {
     3e3:	8b 43 1c             	mov    0x1c(%ebx),%eax
     3e6:	8b 40 18             	mov    0x18(%eax),%eax
     3e9:	85 c0                	test   %eax,%eax
     3eb:	74 43                	je     430 <_fill_window+0x1c0>
         * Otherwise, window_size == 2*WSIZE so more >= 2.
         * If there was sliding, more >= WSIZE. So in all cases, more >= 2.
         */
        Assert(more >= 2, "more < 2");

        n = read_buf(s->strm, s->window + s->strstart + s->lookahead, more);
     3ed:	8b 6c 24 20          	mov    0x20(%esp),%ebp
     3f1:	8b 44 24 1c          	mov    0x1c(%esp),%eax
     3f5:	01 e9                	add    %ebp,%ecx
    strm->avail_in  -= len;

    if (!strm->state->noheader) {
        strm->adler = adler32(strm->adler, strm->next_in, len);
    }
    zmemcpy(buf, strm->next_in, len);
     3f7:	89 54 24 1c          	mov    %edx,0x1c(%esp)
         * Otherwise, window_size == 2*WSIZE so more >= 2.
         * If there was sliding, more >= WSIZE. So in all cases, more >= 2.
         */
        Assert(more >= 2, "more < 2");

        n = read_buf(s->strm, s->window + s->strstart + s->lookahead, more);
     3fb:	01 c1                	add    %eax,%ecx
    strm->avail_in  -= len;

    if (!strm->state->noheader) {
        strm->adler = adler32(strm->adler, strm->next_in, len);
    }
    zmemcpy(buf, strm->next_in, len);
     3fd:	8b 03                	mov    (%ebx),%eax
     3ff:	89 44 24 04          	mov    %eax,0x4(%esp)
     403:	89 54 24 08          	mov    %edx,0x8(%esp)
     407:	89 0c 24             	mov    %ecx,(%esp)
     40a:	e8 00 00 00 00       	call   40f <_fill_window+0x19f>
    strm->next_in  += len;
     40f:	8b 54 24 1c          	mov    0x1c(%esp),%edx
     413:	8b 03                	mov    (%ebx),%eax
     415:	8b 4e 6c             	mov    0x6c(%esi),%ecx
     418:	01 d0                	add    %edx,%eax
     41a:	89 03                	mov    %eax,(%ebx)
    strm->total_in += len;
     41c:	8b 43 08             	mov    0x8(%ebx),%eax
     41f:	01 d0                	add    %edx,%eax
     421:	89 43 08             	mov    %eax,0x8(%ebx)
     424:	89 d0                	mov    %edx,%eax
     426:	e9 97 fe ff ff       	jmp    2c2 <_fill_window+0x52>
     42b:	90                   	nop
     42c:	8d 74 26 00          	lea    0x0(%esi,%eiz,1),%esi
    if (len == 0) return 0;

    strm->avail_in  -= len;

    if (!strm->state->noheader) {
        strm->adler = adler32(strm->adler, strm->next_in, len);
     430:	89 54 24 08          	mov    %edx,0x8(%esp)
     434:	89 4c 24 28          	mov    %ecx,0x28(%esp)
     438:	8b 03                	mov    (%ebx),%eax
     43a:	89 54 24 24          	mov    %edx,0x24(%esp)
     43e:	89 44 24 04          	mov    %eax,0x4(%esp)
     442:	8b 43 30             	mov    0x30(%ebx),%eax
     445:	89 04 24             	mov    %eax,(%esp)
     448:	e8 00 00 00 00       	call   44d <_fill_window+0x1dd>
     44d:	8b 4c 24 28          	mov    0x28(%esp),%ecx
     451:	89 43 30             	mov    %eax,0x30(%ebx)
     454:	8b 54 24 24          	mov    0x24(%esp),%edx
     458:	eb 93                	jmp    3ed <_fill_window+0x17d>
     45a:	8d b6 00 00 00 00    	lea    0x0(%esi),%esi

00000460 <_flush_pending>:
 * to avoid allocating a large strm->next_out buffer and copying into it.
 * (See also read_buf()).
 */
local void flush_pending(strm)
    z_streamp strm;
{
     460:	56                   	push   %esi
     461:	53                   	push   %ebx
     462:	83 ec 14             	sub    $0x14,%esp
    unsigned len = strm->state->pending;
     465:	8b 48 1c             	mov    0x1c(%eax),%ecx

    if (len > strm->avail_out) len = strm->avail_out;
     468:	8b 50 10             	mov    0x10(%eax),%edx
 * (See also read_buf()).
 */
local void flush_pending(strm)
    z_streamp strm;
{
    unsigned len = strm->state->pending;
     46b:	8b 59 14             	mov    0x14(%ecx),%ebx
     46e:	39 d3                	cmp    %edx,%ebx
     470:	0f 47 da             	cmova  %edx,%ebx

    if (len > strm->avail_out) len = strm->avail_out;
    if (len == 0) return;
     473:	85 db                	test   %ebx,%ebx
     475:	75 09                	jne    480 <_flush_pending+0x20>
    strm->avail_out  -= len;
    strm->state->pending -= len;
    if (strm->state->pending == 0) {
        strm->state->pending_out = strm->state->pending_buf;
    }
}
     477:	83 c4 14             	add    $0x14,%esp
     47a:	5b                   	pop    %ebx
     47b:	5e                   	pop    %esi
     47c:	c3                   	ret    
     47d:	8d 76 00             	lea    0x0(%esi),%esi
     480:	89 c6                	mov    %eax,%esi
    unsigned len = strm->state->pending;

    if (len > strm->avail_out) len = strm->avail_out;
    if (len == 0) return;

    zmemcpy(strm->next_out, strm->state->pending_out, len);
     482:	8b 51 10             	mov    0x10(%ecx),%edx
     485:	8b 40 0c             	mov    0xc(%eax),%eax
     488:	89 54 24 04          	mov    %edx,0x4(%esp)
     48c:	89 5c 24 08          	mov    %ebx,0x8(%esp)
     490:	89 04 24             	mov    %eax,(%esp)
     493:	e8 00 00 00 00       	call   498 <_flush_pending+0x38>
    strm->next_out  += len;
     498:	8b 46 0c             	mov    0xc(%esi),%eax
     49b:	01 d8                	add    %ebx,%eax
    strm->state->pending_out  += len;
    strm->total_out += len;
     49d:	8b 4e 14             	mov    0x14(%esi),%ecx

    if (len > strm->avail_out) len = strm->avail_out;
    if (len == 0) return;

    zmemcpy(strm->next_out, strm->state->pending_out, len);
    strm->next_out  += len;
     4a0:	89 46 0c             	mov    %eax,0xc(%esi)
    strm->state->pending_out  += len;
     4a3:	8b 46 1c             	mov    0x1c(%esi),%eax
    strm->total_out += len;
     4a6:	01 d9                	add    %ebx,%ecx
    if (len > strm->avail_out) len = strm->avail_out;
    if (len == 0) return;

    zmemcpy(strm->next_out, strm->state->pending_out, len);
    strm->next_out  += len;
    strm->state->pending_out  += len;
     4a8:	8b 50 10             	mov    0x10(%eax),%edx
     4ab:	01 da                	add    %ebx,%edx
     4ad:	89 50 10             	mov    %edx,0x10(%eax)
    strm->total_out += len;
    strm->avail_out  -= len;
     4b0:	8b 56 10             	mov    0x10(%esi),%edx
     4b3:	29 da                	sub    %ebx,%edx
    if (len == 0) return;

    zmemcpy(strm->next_out, strm->state->pending_out, len);
    strm->next_out  += len;
    strm->state->pending_out  += len;
    strm->total_out += len;
     4b5:	89 4e 14             	mov    %ecx,0x14(%esi)
    strm->avail_out  -= len;
     4b8:	89 56 10             	mov    %edx,0x10(%esi)
    strm->state->pending -= len;
     4bb:	8b 50 14             	mov    0x14(%eax),%edx
     4be:	29 da                	sub    %ebx,%edx
     4c0:	89 50 14             	mov    %edx,0x14(%eax)
    if (strm->state->pending == 0) {
     4c3:	85 d2                	test   %edx,%edx
     4c5:	75 b0                	jne    477 <_flush_pending+0x17>
        strm->state->pending_out = strm->state->pending_buf;
     4c7:	8b 50 08             	mov    0x8(%eax),%edx
     4ca:	89 50 10             	mov    %edx,0x10(%eax)
    }
}
     4cd:	83 c4 14             	add    $0x14,%esp
     4d0:	5b                   	pop    %ebx
     4d1:	5e                   	pop    %esi
     4d2:	c3                   	ret    
     4d3:	8d b6 00 00 00 00    	lea    0x0(%esi),%esi
     4d9:	8d bc 27 00 00 00 00 	lea    0x0(%edi,%eiz,1),%edi

000004e0 <_deflate_slow>:
 * no better match at the next window position.
 */
local block_state deflate_slow(s, flush)
    deflate_state *s;
    int flush;
{
     4e0:	55                   	push   %ebp
     4e1:	57                   	push   %edi
     4e2:	56                   	push   %esi
     4e3:	53                   	push   %ebx
     4e4:	83 ec 3c             	sub    $0x3c,%esp
    IPos hash_head = NIL;    /* head of hash chain */
     4e7:	31 f6                	xor    %esi,%esi
 * no better match at the next window position.
 */
local block_state deflate_slow(s, flush)
    deflate_state *s;
    int flush;
{
     4e9:	8b 6c 24 50          	mov    0x50(%esp),%ebp
     4ed:	8b 7d 6c             	mov    0x6c(%ebp),%edi
    IPos hash_head = NIL;    /* head of hash chain */
     4f0:	89 f8                	mov    %edi,%eax
     4f2:	89 f7                	mov    %esi,%edi
     4f4:	89 c6                	mov    %eax,%esi
        /* Make sure that we always have enough lookahead, except
         * at the end of the input file. We need MAX_MATCH bytes
         * for the next match, plus MIN_MATCH bytes to insert the
         * string following the next match.
         */
        if (s->lookahead < MIN_LOOKAHEAD) {
     4f6:	81 fe 05 01 00 00    	cmp    $0x105,%esi
     4fc:	0f 86 3f 02 00 00    	jbe    741 <_deflate_slow+0x261>

        /* Insert the string window[strstart .. strstart+2] in the
         * dictionary, and set hash_head to the head of the hash chain:
         */
        if (s->lookahead >= MIN_MATCH) {
            INSERT_STRING(s, s->strstart, hash_head);
     502:	8b 45 64             	mov    0x64(%ebp),%eax
     505:	8b 55 30             	mov    0x30(%ebp),%edx
     508:	31 db                	xor    %ebx,%ebx
     50a:	8b 4d 50             	mov    0x50(%ebp),%ecx
     50d:	8a 5c 02 02          	mov    0x2(%edx,%eax,1),%bl
     511:	8b 55 40             	mov    0x40(%ebp),%edx
     514:	d3 e2                	shl    %cl,%edx
     516:	8b 75 4c             	mov    0x4c(%ebp),%esi
     519:	31 da                	xor    %ebx,%edx
     51b:	8b 4d 3c             	mov    0x3c(%ebp),%ecx
     51e:	21 f2                	and    %esi,%edx
     520:	89 55 40             	mov    %edx,0x40(%ebp)
     523:	8b 75 2c             	mov    0x2c(%ebp),%esi
     526:	8d 14 51             	lea    (%ecx,%edx,2),%edx
     529:	8b 5d 38             	mov    0x38(%ebp),%ebx
     52c:	21 c6                	and    %eax,%esi
     52e:	31 ff                	xor    %edi,%edi
     530:	66 8b 0a             	mov    (%edx),%cx
     533:	66 89 0c 73          	mov    %cx,(%ebx,%esi,2)
     537:	66 89 cf             	mov    %cx,%di
     53a:	66 89 02             	mov    %ax,(%edx)
        }

        /* Find the longest match, discarding those <= prev_length.
         */
        s->prev_length = s->match_length, s->prev_match = s->match_start;
     53d:	8b 55 58             	mov    0x58(%ebp),%edx
     540:	8b 4d 68             	mov    0x68(%ebp),%ecx
     543:	89 55 70             	mov    %edx,0x70(%ebp)
     546:	89 4d 5c             	mov    %ecx,0x5c(%ebp)
        s->match_length = MIN_MATCH-1;
     549:	c7 45 58 02 00 00 00 	movl   $0x2,0x58(%ebp)

        if (hash_head != NIL && s->prev_length < s->max_lazy_match &&
     550:	85 ff                	test   %edi,%edi
     552:	74 40                	je     594 <_deflate_slow+0xb4>
     554:	3b 55 78             	cmp    0x78(%ebp),%edx
     557:	73 3b                	jae    594 <_deflate_slow+0xb4>
            s->strstart - hash_head <= MAX_DIST(s)) {
     559:	8b 75 24             	mov    0x24(%ebp),%esi
     55c:	89 c3                	mov    %eax,%ebx
     55e:	29 fb                	sub    %edi,%ebx
     560:	8d 8e fa fe ff ff    	lea    -0x106(%esi),%ecx
        /* Find the longest match, discarding those <= prev_length.
         */
        s->prev_length = s->match_length, s->prev_match = s->match_start;
        s->match_length = MIN_MATCH-1;

        if (hash_head != NIL && s->prev_length < s->max_lazy_match &&
     566:	39 cb                	cmp    %ecx,%ebx
     568:	77 2a                	ja     594 <_deflate_slow+0xb4>
            s->strstart - hash_head <= MAX_DIST(s)) {
            /* To simplify the code, we prevent matches with the string
             * of window index 0 (in particular we have to avoid a match
             * of the string with itself at the start of the input file).
             */
            if (s->strategy != Z_HUFFMAN_ONLY) {
     56a:	83 bd 80 00 00 00 02 	cmpl   $0x2,0x80(%ebp)
     571:	0f 84 2c 03 00 00    	je     8a3 <_deflate_slow+0x3c3>
                s->match_length = longest_match (s, hash_head);
     577:	89 fa                	mov    %edi,%edx
     579:	89 e8                	mov    %ebp,%eax
     57b:	e8 80 fa ff ff       	call   0 <_longest_match>
     580:	89 c2                	mov    %eax,%edx
     582:	89 45 58             	mov    %eax,0x58(%ebp)
            }
            /* longest_match() sets match_start */

            if (s->match_length <= 5 && (s->strategy == Z_FILTERED ||
     585:	83 f8 05             	cmp    $0x5,%eax
     588:	0f 86 ee 02 00 00    	jbe    87c <_deflate_slow+0x39c>
     58e:	8b 55 70             	mov    0x70(%ebp),%edx
     591:	8b 45 64             	mov    0x64(%ebp),%eax
            }
        }
        /* If there was a match at the previous step and the current
         * match is not better, output the previous match:
         */
        if (s->prev_length >= MIN_MATCH && s->match_length <= s->prev_length) {
     594:	83 fa 02             	cmp    $0x2,%edx
     597:	0f 86 e3 01 00 00    	jbe    780 <_deflate_slow+0x2a0>
     59d:	39 55 58             	cmp    %edx,0x58(%ebp)
     5a0:	0f 87 da 01 00 00    	ja     780 <_deflate_slow+0x2a0>
     5a6:	8b 4d 6c             	mov    0x6c(%ebp),%ecx
            uInt max_insert = s->strstart + s->lookahead - MIN_MATCH;
            /* Do not insert strings in hash table beyond this. */

            check_match(s, s->strstart-1, s->prev_match, s->prev_length);

            _tr_tally_dist(s, s->strstart -1 - s->prev_match,
     5a9:	83 ea 03             	sub    $0x3,%edx
        }
        /* If there was a match at the previous step and the current
         * match is not better, output the previous match:
         */
        if (s->prev_length >= MIN_MATCH && s->match_length <= s->prev_length) {
            uInt max_insert = s->strstart + s->lookahead - MIN_MATCH;
     5ac:	8d 5c 08 fd          	lea    -0x3(%eax,%ecx,1),%ebx
            /* Do not insert strings in hash table beyond this. */

            check_match(s, s->strstart-1, s->prev_match, s->prev_length);

            _tr_tally_dist(s, s->strstart -1 - s->prev_match,
     5b0:	8b 4d 5c             	mov    0x5c(%ebp),%ecx
     5b3:	29 c8                	sub    %ecx,%eax
        }
        /* If there was a match at the previous step and the current
         * match is not better, output the previous match:
         */
        if (s->prev_length >= MIN_MATCH && s->match_length <= s->prev_length) {
            uInt max_insert = s->strstart + s->lookahead - MIN_MATCH;
     5b5:	89 5c 24 14          	mov    %ebx,0x14(%esp)
            /* Do not insert strings in hash table beyond this. */

            check_match(s, s->strstart-1, s->prev_match, s->prev_length);

            _tr_tally_dist(s, s->strstart -1 - s->prev_match,
     5b9:	8b 8d 98 16 00 00    	mov    0x1698(%ebp),%ecx
     5bf:	8b 9d 9c 16 00 00    	mov    0x169c(%ebp),%ebx
     5c5:	8d 70 ff             	lea    -0x1(%eax),%esi
     5c8:	66 89 34 4b          	mov    %si,(%ebx,%ecx,2)
     5cc:	8b 9d 90 16 00 00    	mov    0x1690(%ebp),%ebx
     5d2:	8d 71 01             	lea    0x1(%ecx),%esi
     5d5:	89 b5 98 16 00 00    	mov    %esi,0x1698(%ebp)
     5db:	88 14 0b             	mov    %dl,(%ebx,%ecx,1)
     5de:	8d 58 fe             	lea    -0x2(%eax),%ebx
     5e1:	88 d0                	mov    %dl,%al
     5e3:	31 d2                	xor    %edx,%edx
     5e5:	88 c2                	mov    %al,%dl
     5e7:	8a 82 00 00 00 00    	mov    0x0(%edx),%al
     5ed:	25 ff 00 00 00       	and    $0xff,%eax
     5f2:	66 ff 84 85 90 04 00 	incw   0x490(%ebp,%eax,4)
     5f9:	00 
     5fa:	66 81 fb ff 00       	cmp    $0xff,%bx
     5ff:	0f 87 1b 02 00 00    	ja     820 <_deflate_slow+0x340>
     605:	31 c0                	xor    %eax,%eax
     607:	66 89 d8             	mov    %bx,%ax
     60a:	8a 98 00 00 00 00    	mov    0x0(%eax),%bl
     610:	81 e3 ff 00 00 00    	and    $0xff,%ebx
     616:	89 d8                	mov    %ebx,%eax
     618:	66 ff 84 85 80 09 00 	incw   0x980(%ebp,%eax,4)
     61f:	00 
     620:	89 7c 24 18          	mov    %edi,0x18(%esp)
     624:	8b 85 98 16 00 00    	mov    0x1698(%ebp),%eax
     62a:	89 44 24 1c          	mov    %eax,0x1c(%esp)
     62e:	8b 85 94 16 00 00    	mov    0x1694(%ebp),%eax
     634:	48                   	dec    %eax
     635:	89 44 24 20          	mov    %eax,0x20(%esp)
            /* Insert in hash table all strings up to the end of the match.
             * strstart-1 and strstart are already inserted. If there is not
             * enough lookahead, the last two strings are not inserted in
             * the hash table.
             */
            s->lookahead -= s->prev_length-1;
     639:	8b 45 70             	mov    0x70(%ebp),%eax
     63c:	89 c3                	mov    %eax,%ebx
     63e:	89 44 24 24          	mov    %eax,0x24(%esp)
     642:	8b 45 6c             	mov    0x6c(%ebp),%eax
     645:	40                   	inc    %eax
            s->prev_length -= 2;
     646:	8d 53 fe             	lea    -0x2(%ebx),%edx
            /* Insert in hash table all strings up to the end of the match.
             * strstart-1 and strstart are already inserted. If there is not
             * enough lookahead, the last two strings are not inserted in
             * the hash table.
             */
            s->lookahead -= s->prev_length-1;
     649:	29 d8                	sub    %ebx,%eax
            s->prev_length -= 2;
     64b:	89 55 70             	mov    %edx,0x70(%ebp)
            /* Insert in hash table all strings up to the end of the match.
             * strstart-1 and strstart are already inserted. If there is not
             * enough lookahead, the last two strings are not inserted in
             * the hash table.
             */
            s->lookahead -= s->prev_length-1;
     64e:	89 c6                	mov    %eax,%esi
     650:	89 45 6c             	mov    %eax,0x6c(%ebp)
     653:	8b 45 64             	mov    0x64(%ebp),%eax
     656:	89 d3                	mov    %edx,%ebx
     658:	89 44 24 28          	mov    %eax,0x28(%esp)
     65c:	89 74 24 2c          	mov    %esi,0x2c(%esp)
     660:	40                   	inc    %eax
            s->prev_length -= 2;
            do {
                if (++s->strstart <= max_insert) {
     661:	89 45 64             	mov    %eax,0x64(%ebp)
     664:	3b 44 24 14          	cmp    0x14(%esp),%eax
     668:	77 46                	ja     6b0 <_deflate_slow+0x1d0>
                    INSERT_STRING(s, s->strstart, hash_head);
     66a:	8b 55 30             	mov    0x30(%ebp),%edx
     66d:	8b 4d 50             	mov    0x50(%ebp),%ecx
     670:	8b 75 4c             	mov    0x4c(%ebp),%esi
     673:	0f b6 7c 02 02       	movzbl 0x2(%edx,%eax,1),%edi
     678:	81 e7 ff 00 00 00    	and    $0xff,%edi
     67e:	89 fa                	mov    %edi,%edx
     680:	8b 7d 40             	mov    0x40(%ebp),%edi
     683:	d3 e7                	shl    %cl,%edi
     685:	31 fa                	xor    %edi,%edx
     687:	8b 4d 3c             	mov    0x3c(%ebp),%ecx
     68a:	21 f2                	and    %esi,%edx
     68c:	8b 75 2c             	mov    0x2c(%ebp),%esi
     68f:	89 55 40             	mov    %edx,0x40(%ebp)
     692:	21 c6                	and    %eax,%esi
     694:	8d 14 51             	lea    (%ecx,%edx,2),%edx
     697:	66 8b 0a             	mov    (%edx),%cx
     69a:	89 cf                	mov    %ecx,%edi
     69c:	81 e7 ff ff 00 00    	and    $0xffff,%edi
     6a2:	89 7c 24 18          	mov    %edi,0x18(%esp)
     6a6:	8b 7d 38             	mov    0x38(%ebp),%edi
     6a9:	66 89 0c 77          	mov    %cx,(%edi,%esi,2)
     6ad:	66 89 02             	mov    %ax,(%edx)
                }
            } while (--s->prev_length != 0);
     6b0:	4b                   	dec    %ebx
     6b1:	40                   	inc    %eax
     6b2:	89 5d 70             	mov    %ebx,0x70(%ebp)
     6b5:	85 db                	test   %ebx,%ebx
     6b7:	75 a8                	jne    661 <_deflate_slow+0x181>
            s->match_available = 0;
            s->match_length = MIN_MATCH-1;
            s->strstart++;
     6b9:	8b 44 24 24          	mov    0x24(%esp),%eax
     6bd:	8b 5c 24 28          	mov    0x28(%esp),%ebx

            if (bflush) FLUSH_BLOCK(s, 0);
     6c1:	8b 4c 24 20          	mov    0x20(%esp),%ecx
     6c5:	8b 7c 24 18          	mov    0x18(%esp),%edi
                    INSERT_STRING(s, s->strstart, hash_head);
                }
            } while (--s->prev_length != 0);
            s->match_available = 0;
            s->match_length = MIN_MATCH-1;
            s->strstart++;
     6c9:	8d 44 18 ff          	lea    -0x1(%eax,%ebx,1),%eax
     6cd:	8b 74 24 2c          	mov    0x2c(%esp),%esi
            do {
                if (++s->strstart <= max_insert) {
                    INSERT_STRING(s, s->strstart, hash_head);
                }
            } while (--s->prev_length != 0);
            s->match_available = 0;
     6d1:	c7 45 60 00 00 00 00 	movl   $0x0,0x60(%ebp)
            s->match_length = MIN_MATCH-1;
     6d8:	c7 45 58 02 00 00 00 	movl   $0x2,0x58(%ebp)
            s->strstart++;
     6df:	89 45 64             	mov    %eax,0x64(%ebp)

            if (bflush) FLUSH_BLOCK(s, 0);
     6e2:	39 4c 24 1c          	cmp    %ecx,0x1c(%esp)
     6e6:	0f 85 0a fe ff ff    	jne    4f6 <_deflate_slow+0x16>
     6ec:	8b 55 54             	mov    0x54(%ebp),%edx
     6ef:	29 d0                	sub    %edx,%eax
     6f1:	85 d2                	test   %edx,%edx
     6f3:	0f 88 bb 01 00 00    	js     8b4 <_deflate_slow+0x3d4>
     6f9:	8b 4d 30             	mov    0x30(%ebp),%ecx
     6fc:	01 ca                	add    %ecx,%edx
     6fe:	89 44 24 08          	mov    %eax,0x8(%esp)
     702:	89 54 24 04          	mov    %edx,0x4(%esp)
     706:	c7 44 24 0c 00 00 00 	movl   $0x0,0xc(%esp)
     70d:	00 
     70e:	89 2c 24             	mov    %ebp,(%esp)
     711:	e8 00 00 00 00       	call   716 <_deflate_slow+0x236>
     716:	8b 45 64             	mov    0x64(%ebp),%eax
     719:	89 45 54             	mov    %eax,0x54(%ebp)
     71c:	8b 45 00             	mov    0x0(%ebp),%eax
     71f:	e8 3c fd ff ff       	call   460 <_flush_pending>
     724:	8b 45 00             	mov    0x0(%ebp),%eax
     727:	8b 70 10             	mov    0x10(%eax),%esi
     72a:	85 f6                	test   %esi,%esi
     72c:	0f 84 bd 00 00 00    	je     7ef <_deflate_slow+0x30f>
     732:	8b 75 6c             	mov    0x6c(%ebp),%esi
        /* Make sure that we always have enough lookahead, except
         * at the end of the input file. We need MAX_MATCH bytes
         * for the next match, plus MIN_MATCH bytes to insert the
         * string following the next match.
         */
        if (s->lookahead < MIN_LOOKAHEAD) {
     735:	81 fe 05 01 00 00    	cmp    $0x105,%esi
     73b:	0f 87 c1 fd ff ff    	ja     502 <_deflate_slow+0x22>
            fill_window(s);
     741:	89 e8                	mov    %ebp,%eax
     743:	e8 28 fb ff ff       	call   270 <_fill_window>
            if (s->lookahead < MIN_LOOKAHEAD && flush == Z_NO_FLUSH) {
     748:	8b 45 6c             	mov    0x6c(%ebp),%eax
     74b:	3d 05 01 00 00       	cmp    $0x105,%eax
     750:	0f 87 ac fd ff ff    	ja     502 <_deflate_slow+0x22>
     756:	8b 54 24 54          	mov    0x54(%esp),%edx
     75a:	85 d2                	test   %edx,%edx
     75c:	0f 84 8d 00 00 00    	je     7ef <_deflate_slow+0x30f>
	        return need_more;
	    }
            if (s->lookahead == 0) break; /* flush the current block */
     762:	85 c0                	test   %eax,%eax
     764:	0f 84 51 01 00 00    	je     8bb <_deflate_slow+0x3db>
        }

        /* Insert the string window[strstart .. strstart+2] in the
         * dictionary, and set hash_head to the head of the hash chain:
         */
        if (s->lookahead >= MIN_MATCH) {
     76a:	83 f8 02             	cmp    $0x2,%eax
     76d:	0f 87 8f fd ff ff    	ja     502 <_deflate_slow+0x22>
     773:	8b 45 64             	mov    0x64(%ebp),%eax
     776:	e9 c2 fd ff ff       	jmp    53d <_deflate_slow+0x5d>
     77b:	90                   	nop
     77c:	8d 74 26 00          	lea    0x0(%esi,%eiz,1),%esi
            s->match_length = MIN_MATCH-1;
            s->strstart++;

            if (bflush) FLUSH_BLOCK(s, 0);

        } else if (s->match_available) {
     780:	8b 5d 60             	mov    0x60(%ebp),%ebx
     783:	85 db                	test   %ebx,%ebx
     785:	74 79                	je     800 <_deflate_slow+0x320>
            /* If there was no match at the previous position, output a
             * single literal. If there was a match but the current match
             * is longer, truncate the previous match to a single literal.
             */
            Tracevv((stderr,"%c", s->window[s->strstart-1]));
	    _tr_tally_lit(s, s->window[s->strstart-1], bflush);
     787:	8b 55 30             	mov    0x30(%ebp),%edx
     78a:	8b 8d 9c 16 00 00    	mov    0x169c(%ebp),%ecx
     790:	0f b6 74 02 ff       	movzbl -0x1(%edx,%eax,1),%esi
     795:	8b 95 98 16 00 00    	mov    0x1698(%ebp),%edx
     79b:	89 f0                	mov    %esi,%eax
     79d:	66 c7 04 51 00 00    	movw   $0x0,(%ecx,%edx,2)
     7a3:	8b 8d 90 16 00 00    	mov    0x1690(%ebp),%ecx
     7a9:	8d 5a 01             	lea    0x1(%edx),%ebx
     7ac:	89 9d 98 16 00 00    	mov    %ebx,0x1698(%ebp)
     7b2:	88 04 11             	mov    %al,(%ecx,%edx,1)
     7b5:	25 ff 00 00 00       	and    $0xff,%eax
     7ba:	66 ff 84 85 8c 00 00 	incw   0x8c(%ebp,%eax,4)
     7c1:	00 
     7c2:	8b 85 94 16 00 00    	mov    0x1694(%ebp),%eax
     7c8:	48                   	dec    %eax
	    if (bflush) {
     7c9:	39 85 98 16 00 00    	cmp    %eax,0x1698(%ebp)
     7cf:	74 6f                	je     840 <_deflate_slow+0x360>
                FLUSH_BLOCK_ONLY(s, 0);
            }
            s->strstart++;
     7d1:	8b 45 64             	mov    0x64(%ebp),%eax
     7d4:	40                   	inc    %eax
     7d5:	89 45 64             	mov    %eax,0x64(%ebp)
            s->lookahead--;
     7d8:	8b 45 6c             	mov    0x6c(%ebp),%eax
     7db:	8d 70 ff             	lea    -0x1(%eax),%esi
            if (s->strm->avail_out == 0) return need_more;
     7de:	8b 45 00             	mov    0x0(%ebp),%eax
	    _tr_tally_lit(s, s->window[s->strstart-1], bflush);
	    if (bflush) {
                FLUSH_BLOCK_ONLY(s, 0);
            }
            s->strstart++;
            s->lookahead--;
     7e1:	89 75 6c             	mov    %esi,0x6c(%ebp)
            if (s->strm->avail_out == 0) return need_more;
     7e4:	8b 40 10             	mov    0x10(%eax),%eax
     7e7:	85 c0                	test   %eax,%eax
     7e9:	0f 85 07 fd ff ff    	jne    4f6 <_deflate_slow+0x16>
        _tr_tally_lit(s, s->window[s->strstart-1], bflush);
        s->match_available = 0;
    }
    FLUSH_BLOCK(s, flush == Z_FINISH);
    return flush == Z_FINISH ? finish_done : block_done;
}
     7ef:	83 c4 3c             	add    $0x3c,%esp
         * string following the next match.
         */
        if (s->lookahead < MIN_LOOKAHEAD) {
            fill_window(s);
            if (s->lookahead < MIN_LOOKAHEAD && flush == Z_NO_FLUSH) {
	        return need_more;
     7f2:	31 c0                	xor    %eax,%eax
        _tr_tally_lit(s, s->window[s->strstart-1], bflush);
        s->match_available = 0;
    }
    FLUSH_BLOCK(s, flush == Z_FINISH);
    return flush == Z_FINISH ? finish_done : block_done;
}
     7f4:	5b                   	pop    %ebx
     7f5:	5e                   	pop    %esi
     7f6:	5f                   	pop    %edi
     7f7:	5d                   	pop    %ebp
     7f8:	c3                   	ret    
     7f9:	8d b4 26 00 00 00 00 	lea    0x0(%esi,%eiz,1),%esi
        } else {
            /* There is no previous match to compare with, wait for
             * the next step to decide.
             */
            s->match_available = 1;
            s->strstart++;
     800:	40                   	inc    %eax
            if (s->strm->avail_out == 0) return need_more;
        } else {
            /* There is no previous match to compare with, wait for
             * the next step to decide.
             */
            s->match_available = 1;
     801:	c7 45 60 01 00 00 00 	movl   $0x1,0x60(%ebp)
            s->strstart++;
     808:	89 45 64             	mov    %eax,0x64(%ebp)
            s->lookahead--;
     80b:	8b 45 6c             	mov    0x6c(%ebp),%eax
     80e:	8d 70 ff             	lea    -0x1(%eax),%esi
     811:	89 75 6c             	mov    %esi,0x6c(%ebp)
     814:	e9 dd fc ff ff       	jmp    4f6 <_deflate_slow+0x16>
     819:	8d b4 26 00 00 00 00 	lea    0x0(%esi,%eiz,1),%esi
            uInt max_insert = s->strstart + s->lookahead - MIN_MATCH;
            /* Do not insert strings in hash table beyond this. */

            check_match(s, s->strstart-1, s->prev_match, s->prev_length);

            _tr_tally_dist(s, s->strstart -1 - s->prev_match,
     820:	66 c1 eb 07          	shr    $0x7,%bx
     824:	31 c0                	xor    %eax,%eax
     826:	66 89 d8             	mov    %bx,%ax
     829:	8a 98 00 01 00 00    	mov    0x100(%eax),%bl
     82f:	81 e3 ff 00 00 00    	and    $0xff,%ebx
     835:	89 d8                	mov    %ebx,%eax
     837:	e9 dc fd ff ff       	jmp    618 <_deflate_slow+0x138>
     83c:	8d 74 26 00          	lea    0x0(%esi,%eiz,1),%esi
             * is longer, truncate the previous match to a single literal.
             */
            Tracevv((stderr,"%c", s->window[s->strstart-1]));
	    _tr_tally_lit(s, s->window[s->strstart-1], bflush);
	    if (bflush) {
                FLUSH_BLOCK_ONLY(s, 0);
     840:	8b 45 54             	mov    0x54(%ebp),%eax
     843:	8b 55 64             	mov    0x64(%ebp),%edx
     846:	29 c2                	sub    %eax,%edx
     848:	85 c0                	test   %eax,%eax
     84a:	78 64                	js     8b0 <_deflate_slow+0x3d0>
     84c:	8b 4d 30             	mov    0x30(%ebp),%ecx
     84f:	01 c8                	add    %ecx,%eax
     851:	89 44 24 04          	mov    %eax,0x4(%esp)
     855:	c7 44 24 0c 00 00 00 	movl   $0x0,0xc(%esp)
     85c:	00 
     85d:	89 54 24 08          	mov    %edx,0x8(%esp)
     861:	89 2c 24             	mov    %ebp,(%esp)
     864:	e8 00 00 00 00       	call   869 <_deflate_slow+0x389>
     869:	8b 45 64             	mov    0x64(%ebp),%eax
     86c:	89 45 54             	mov    %eax,0x54(%ebp)
     86f:	8b 45 00             	mov    0x0(%ebp),%eax
     872:	e8 e9 fb ff ff       	call   460 <_flush_pending>
     877:	e9 55 ff ff ff       	jmp    7d1 <_deflate_slow+0x2f1>
     87c:	8b 45 64             	mov    0x64(%ebp),%eax
            if (s->strategy != Z_HUFFMAN_ONLY) {
                s->match_length = longest_match (s, hash_head);
            }
            /* longest_match() sets match_start */

            if (s->match_length <= 5 && (s->strategy == Z_FILTERED ||
     87f:	83 bd 80 00 00 00 01 	cmpl   $0x1,0x80(%ebp)
     886:	74 14                	je     89c <_deflate_slow+0x3bc>
     888:	83 fa 03             	cmp    $0x3,%edx
     88b:	75 16                	jne    8a3 <_deflate_slow+0x3c3>
                 (s->match_length == MIN_MATCH &&
                  s->strstart - s->match_start > TOO_FAR))) {
     88d:	89 c2                	mov    %eax,%edx
     88f:	8b 5d 68             	mov    0x68(%ebp),%ebx
     892:	29 da                	sub    %ebx,%edx
                s->match_length = longest_match (s, hash_head);
            }
            /* longest_match() sets match_start */

            if (s->match_length <= 5 && (s->strategy == Z_FILTERED ||
                 (s->match_length == MIN_MATCH &&
     894:	81 fa 00 10 00 00    	cmp    $0x1000,%edx
     89a:	76 07                	jbe    8a3 <_deflate_slow+0x3c3>
                  s->strstart - s->match_start > TOO_FAR))) {

                /* If prev_match is also MIN_MATCH, match_start is garbage
                 * but we will ignore the current match anyway.
                 */
                s->match_length = MIN_MATCH-1;
     89c:	c7 45 58 02 00 00 00 	movl   $0x2,0x58(%ebp)
     8a3:	8b 55 70             	mov    0x70(%ebp),%edx
     8a6:	e9 e9 fc ff ff       	jmp    594 <_deflate_slow+0xb4>
     8ab:	90                   	nop
     8ac:	8d 74 26 00          	lea    0x0(%esi,%eiz,1),%esi
             * is longer, truncate the previous match to a single literal.
             */
            Tracevv((stderr,"%c", s->window[s->strstart-1]));
	    _tr_tally_lit(s, s->window[s->strstart-1], bflush);
	    if (bflush) {
                FLUSH_BLOCK_ONLY(s, 0);
     8b0:	31 c0                	xor    %eax,%eax
     8b2:	eb 9d                	jmp    851 <_deflate_slow+0x371>
            } while (--s->prev_length != 0);
            s->match_available = 0;
            s->match_length = MIN_MATCH-1;
            s->strstart++;

            if (bflush) FLUSH_BLOCK(s, 0);
     8b4:	31 d2                	xor    %edx,%edx
     8b6:	e9 43 fe ff ff       	jmp    6fe <_deflate_slow+0x21e>
            s->strstart++;
            s->lookahead--;
        }
    }
    Assert (flush != Z_NO_FLUSH, "no flush?");
    if (s->match_available) {
     8bb:	8b 7d 60             	mov    0x60(%ebp),%edi
     8be:	85 ff                	test   %edi,%edi
     8c0:	75 73                	jne    935 <_deflate_slow+0x455>
        Tracevv((stderr,"%c", s->window[s->strstart-1]));
        _tr_tally_lit(s, s->window[s->strstart-1], bflush);
        s->match_available = 0;
    }
    FLUSH_BLOCK(s, flush == Z_FINISH);
     8c2:	83 7c 24 54 04       	cmpl   $0x4,0x54(%esp)
     8c7:	8b 45 54             	mov    0x54(%ebp),%eax
     8ca:	8b 55 64             	mov    0x64(%ebp),%edx
     8cd:	0f 94 c3             	sete   %bl
     8d0:	31 c9                	xor    %ecx,%ecx
     8d2:	29 c2                	sub    %eax,%edx
     8d4:	88 d9                	mov    %bl,%cl
     8d6:	85 c0                	test   %eax,%eax
     8d8:	0f 88 a1 00 00 00    	js     97f <_deflate_slow+0x49f>
     8de:	8b 75 30             	mov    0x30(%ebp),%esi
     8e1:	01 f0                	add    %esi,%eax
     8e3:	89 4c 24 0c          	mov    %ecx,0xc(%esp)
     8e7:	89 54 24 08          	mov    %edx,0x8(%esp)
     8eb:	89 44 24 04          	mov    %eax,0x4(%esp)
     8ef:	89 2c 24             	mov    %ebp,(%esp)
     8f2:	e8 00 00 00 00       	call   8f7 <_deflate_slow+0x417>
     8f7:	8b 45 64             	mov    0x64(%ebp),%eax
     8fa:	89 45 54             	mov    %eax,0x54(%ebp)
     8fd:	8b 45 00             	mov    0x0(%ebp),%eax
     900:	e8 5b fb ff ff       	call   460 <_flush_pending>
     905:	8b 45 00             	mov    0x0(%ebp),%eax
     908:	8b 40 10             	mov    0x10(%eax),%eax
     90b:	85 c0                	test   %eax,%eax
     90d:	75 13                	jne    922 <_deflate_slow+0x442>
     90f:	89 d8                	mov    %ebx,%eax
    return flush == Z_FINISH ? finish_done : block_done;
}
     911:	83 c4 3c             	add    $0x3c,%esp
    if (s->match_available) {
        Tracevv((stderr,"%c", s->window[s->strstart-1]));
        _tr_tally_lit(s, s->window[s->strstart-1], bflush);
        s->match_available = 0;
    }
    FLUSH_BLOCK(s, flush == Z_FINISH);
     914:	c1 e0 1f             	shl    $0x1f,%eax
     917:	c1 f8 1f             	sar    $0x1f,%eax
    return flush == Z_FINISH ? finish_done : block_done;
}
     91a:	5b                   	pop    %ebx
    if (s->match_available) {
        Tracevv((stderr,"%c", s->window[s->strstart-1]));
        _tr_tally_lit(s, s->window[s->strstart-1], bflush);
        s->match_available = 0;
    }
    FLUSH_BLOCK(s, flush == Z_FINISH);
     91b:	83 e0 02             	and    $0x2,%eax
    return flush == Z_FINISH ? finish_done : block_done;
}
     91e:	5e                   	pop    %esi
     91f:	5f                   	pop    %edi
     920:	5d                   	pop    %ebp
     921:	c3                   	ret    
        Tracevv((stderr,"%c", s->window[s->strstart-1]));
        _tr_tally_lit(s, s->window[s->strstart-1], bflush);
        s->match_available = 0;
    }
    FLUSH_BLOCK(s, flush == Z_FINISH);
    return flush == Z_FINISH ? finish_done : block_done;
     922:	80 fb 01             	cmp    $0x1,%bl
     925:	19 c0                	sbb    %eax,%eax
}
     927:	83 c4 3c             	add    $0x3c,%esp
        Tracevv((stderr,"%c", s->window[s->strstart-1]));
        _tr_tally_lit(s, s->window[s->strstart-1], bflush);
        s->match_available = 0;
    }
    FLUSH_BLOCK(s, flush == Z_FINISH);
    return flush == Z_FINISH ? finish_done : block_done;
     92a:	83 e0 fe             	and    $0xfffffffe,%eax
}
     92d:	5b                   	pop    %ebx
        Tracevv((stderr,"%c", s->window[s->strstart-1]));
        _tr_tally_lit(s, s->window[s->strstart-1], bflush);
        s->match_available = 0;
    }
    FLUSH_BLOCK(s, flush == Z_FINISH);
    return flush == Z_FINISH ? finish_done : block_done;
     92e:	83 c0 03             	add    $0x3,%eax
}
     931:	5e                   	pop    %esi
     932:	5f                   	pop    %edi
     933:	5d                   	pop    %ebp
     934:	c3                   	ret    
        }
    }
    Assert (flush != Z_NO_FLUSH, "no flush?");
    if (s->match_available) {
        Tracevv((stderr,"%c", s->window[s->strstart-1]));
        _tr_tally_lit(s, s->window[s->strstart-1], bflush);
     935:	8b 55 30             	mov    0x30(%ebp),%edx
     938:	8b 45 64             	mov    0x64(%ebp),%eax
     93b:	8b 8d 9c 16 00 00    	mov    0x169c(%ebp),%ecx
     941:	0f b6 7c 02 ff       	movzbl -0x1(%edx,%eax,1),%edi
     946:	8b 95 98 16 00 00    	mov    0x1698(%ebp),%edx
     94c:	89 f8                	mov    %edi,%eax
     94e:	66 c7 04 51 00 00    	movw   $0x0,(%ecx,%edx,2)
     954:	8b 8d 90 16 00 00    	mov    0x1690(%ebp),%ecx
     95a:	8d 5a 01             	lea    0x1(%edx),%ebx
     95d:	89 9d 98 16 00 00    	mov    %ebx,0x1698(%ebp)
     963:	88 04 11             	mov    %al,(%ecx,%edx,1)
     966:	25 ff 00 00 00       	and    $0xff,%eax
     96b:	66 ff 84 85 8c 00 00 	incw   0x8c(%ebp,%eax,4)
     972:	00 
        s->match_available = 0;
     973:	c7 45 60 00 00 00 00 	movl   $0x0,0x60(%ebp)
     97a:	e9 43 ff ff ff       	jmp    8c2 <_deflate_slow+0x3e2>
    }
    FLUSH_BLOCK(s, flush == Z_FINISH);
     97f:	31 c0                	xor    %eax,%eax
     981:	e9 5d ff ff ff       	jmp    8e3 <_deflate_slow+0x403>
     986:	8d 76 00             	lea    0x0(%esi),%esi
     989:	8d bc 27 00 00 00 00 	lea    0x0(%edi,%eiz,1),%edi

00000990 <_deflate_fast>:
 * matches. It is used only for the fast compression options.
 */
local block_state deflate_fast(s, flush)
    deflate_state *s;
    int flush;
{
     990:	55                   	push   %ebp
     991:	57                   	push   %edi
     992:	56                   	push   %esi
     993:	53                   	push   %ebx
     994:	83 ec 4c             	sub    $0x4c,%esp
    IPos hash_head = NIL; /* head of the hash chain */
     997:	31 db                	xor    %ebx,%ebx
 * matches. It is used only for the fast compression options.
 */
local block_state deflate_fast(s, flush)
    deflate_state *s;
    int flush;
{
     999:	8b 6c 24 60          	mov    0x60(%esp),%ebp
    IPos hash_head = NIL; /* head of the hash chain */
     99d:	89 5c 24 18          	mov    %ebx,0x18(%esp)
        /* Make sure that we always have enough lookahead, except
         * at the end of the input file. We need MAX_MATCH bytes
         * for the next match, plus MIN_MATCH bytes to insert the
         * string following the next match.
         */
        if (s->lookahead < MIN_LOOKAHEAD) {
     9a1:	81 7d 6c 05 01 00 00 	cmpl   $0x105,0x6c(%ebp)
     9a8:	0f 86 e2 02 00 00    	jbe    c90 <_deflate_fast+0x300>

        /* Insert the string window[strstart .. strstart+2] in the
         * dictionary, and set hash_head to the head of the hash chain:
         */
        if (s->lookahead >= MIN_MATCH) {
            INSERT_STRING(s, s->strstart, hash_head);
     9ae:	8b 55 64             	mov    0x64(%ebp),%edx
     9b1:	8b 45 30             	mov    0x30(%ebp),%eax
     9b4:	31 db                	xor    %ebx,%ebx
     9b6:	8b 4d 50             	mov    0x50(%ebp),%ecx
     9b9:	8a 5c 10 02          	mov    0x2(%eax,%edx,1),%bl
     9bd:	8b 45 40             	mov    0x40(%ebp),%eax
     9c0:	d3 e0                	shl    %cl,%eax
     9c2:	31 d8                	xor    %ebx,%eax
     9c4:	8b 4d 4c             	mov    0x4c(%ebp),%ecx
     9c7:	21 c8                	and    %ecx,%eax
     9c9:	8b 4d 3c             	mov    0x3c(%ebp),%ecx
     9cc:	89 45 40             	mov    %eax,0x40(%ebp)
     9cf:	8b 7d 2c             	mov    0x2c(%ebp),%edi
     9d2:	8d 04 41             	lea    (%ecx,%eax,2),%eax
     9d5:	21 d7                	and    %edx,%edi
     9d7:	66 8b 08             	mov    (%eax),%cx
     9da:	89 ce                	mov    %ecx,%esi
     9dc:	81 e6 ff ff 00 00    	and    $0xffff,%esi
     9e2:	89 74 24 18          	mov    %esi,0x18(%esp)
     9e6:	8b 75 38             	mov    0x38(%ebp),%esi
     9e9:	66 89 0c 7e          	mov    %cx,(%esi,%edi,2)
     9ed:	66 89 10             	mov    %dx,(%eax)
        }

        /* Find the longest match, discarding those <= prev_length.
         * At this point we have always match_length < MIN_MATCH
         */
        if (hash_head != NIL && s->strstart - hash_head <= MAX_DIST(s)) {
     9f0:	8b 44 24 18          	mov    0x18(%esp),%eax
     9f4:	85 c0                	test   %eax,%eax
     9f6:	0f 84 e5 01 00 00    	je     be1 <_deflate_fast+0x251>
     9fc:	8b 44 24 18          	mov    0x18(%esp),%eax
     a00:	89 d1                	mov    %edx,%ecx
     a02:	29 c1                	sub    %eax,%ecx
     a04:	8b 45 24             	mov    0x24(%ebp),%eax
     a07:	2d 06 01 00 00       	sub    $0x106,%eax
     a0c:	39 c1                	cmp    %eax,%ecx
     a0e:	0f 87 cd 01 00 00    	ja     be1 <_deflate_fast+0x251>
            /* To simplify the code, we prevent matches with the string
             * of window index 0 (in particular we have to avoid a match
             * of the string with itself at the start of the input file).
             */
            if (s->strategy != Z_HUFFMAN_ONLY) {
     a14:	83 bd 80 00 00 00 02 	cmpl   $0x2,0x80(%ebp)
     a1b:	0f 84 c0 01 00 00    	je     be1 <_deflate_fast+0x251>
                s->match_length = longest_match (s, hash_head);
     a21:	8b 54 24 18          	mov    0x18(%esp),%edx
     a25:	89 e8                	mov    %ebp,%eax
     a27:	e8 d4 f5 ff ff       	call   0 <_longest_match>
     a2c:	8b 55 64             	mov    0x64(%ebp),%edx
     a2f:	89 45 58             	mov    %eax,0x58(%ebp)
            }
            /* longest_match() sets match_start */
        }
        if (s->match_length >= MIN_MATCH) {
     a32:	83 f8 02             	cmp    $0x2,%eax
     a35:	0f 86 b2 01 00 00    	jbe    bed <_deflate_fast+0x25d>
     a3b:	90                   	nop
     a3c:	8d 74 26 00          	lea    0x0(%esi,%eiz,1),%esi
            check_match(s, s->strstart, s->match_start, s->match_length);

            _tr_tally_dist(s, s->strstart - s->match_start,
     a40:	8b 8d 98 16 00 00    	mov    0x1698(%ebp),%ecx
     a46:	8b b5 9c 16 00 00    	mov    0x169c(%ebp),%esi
     a4c:	8d 58 fd             	lea    -0x3(%eax),%ebx
     a4f:	8b 45 68             	mov    0x68(%ebp),%eax
     a52:	29 c2                	sub    %eax,%edx
     a54:	31 c0                	xor    %eax,%eax
     a56:	66 89 14 4e          	mov    %dx,(%esi,%ecx,2)
     a5a:	88 d8                	mov    %bl,%al
     a5c:	8b b5 90 16 00 00    	mov    0x1690(%ebp),%esi
     a62:	8d 79 01             	lea    0x1(%ecx),%edi
     a65:	89 bd 98 16 00 00    	mov    %edi,0x1698(%ebp)
     a6b:	8d 7a ff             	lea    -0x1(%edx),%edi
     a6e:	88 1c 0e             	mov    %bl,(%esi,%ecx,1)
     a71:	0f b6 b0 00 00 00 00 	movzbl 0x0(%eax),%esi
     a78:	81 e6 ff 00 00 00    	and    $0xff,%esi
     a7e:	66 ff 84 b5 90 04 00 	incw   0x490(%ebp,%esi,4)
     a85:	00 
     a86:	66 81 ff ff 00       	cmp    $0xff,%di
     a8b:	0f 87 35 02 00 00    	ja     cc6 <_deflate_fast+0x336>
     a91:	31 d2                	xor    %edx,%edx
     a93:	31 c0                	xor    %eax,%eax
     a95:	66 89 fa             	mov    %di,%dx
     a98:	8a 82 00 00 00 00    	mov    0x0(%edx),%al
     a9e:	66 ff 84 85 80 09 00 	incw   0x980(%ebp,%eax,4)
     aa5:	00 
     aa6:	8b 85 94 16 00 00    	mov    0x1694(%ebp),%eax
     aac:	48                   	dec    %eax
     aad:	39 85 98 16 00 00    	cmp    %eax,0x1698(%ebp)
     ab3:	0f 94 c0             	sete   %al
     ab6:	25 ff 00 00 00       	and    $0xff,%eax
     abb:	89 44 24 1c          	mov    %eax,0x1c(%esp)
                           s->match_length - MIN_MATCH, bflush);

            s->lookahead -= s->match_length;
     abf:	8b 45 58             	mov    0x58(%ebp),%eax
     ac2:	89 c6                	mov    %eax,%esi
     ac4:	89 44 24 38          	mov    %eax,0x38(%esp)
     ac8:	8b 45 6c             	mov    0x6c(%ebp),%eax
     acb:	29 f0                	sub    %esi,%eax
     acd:	89 45 6c             	mov    %eax,0x6c(%ebp)

            /* Insert new strings in the hash table only if the match length
             * is not too large. This saves time but degrades compression.
             */
#ifndef FASTEST
            if (s->match_length <= s->max_insert_length &&
     ad0:	83 f8 02             	cmp    $0x2,%eax
     ad3:	0f 86 7a 01 00 00    	jbe    c53 <_deflate_fast+0x2c3>
     ad9:	3b 75 78             	cmp    0x78(%ebp),%esi
     adc:	0f 87 71 01 00 00    	ja     c53 <_deflate_fast+0x2c3>
     ae2:	8b 5d 38             	mov    0x38(%ebp),%ebx
     ae5:	8b 45 64             	mov    0x64(%ebp),%eax
     ae8:	89 5c 24 20          	mov    %ebx,0x20(%esp)
     aec:	8b 5d 2c             	mov    0x2c(%ebp),%ebx
     aef:	89 5c 24 24          	mov    %ebx,0x24(%esp)
     af3:	8b 5d 3c             	mov    0x3c(%ebp),%ebx
     af6:	89 5c 24 28          	mov    %ebx,0x28(%esp)
     afa:	8b 5d 30             	mov    0x30(%ebp),%ebx
     afd:	89 c7                	mov    %eax,%edi
     aff:	89 5c 24 2c          	mov    %ebx,0x2c(%esp)
     b03:	8b 5d 50             	mov    0x50(%ebp),%ebx
                s->lookahead >= MIN_MATCH) {
                s->match_length--; /* string at strstart already in hash table */
     b06:	4e                   	dec    %esi
     b07:	89 5c 24 30          	mov    %ebx,0x30(%esp)
     b0b:	8b 5d 4c             	mov    0x4c(%ebp),%ebx
     b0e:	89 44 24 3c          	mov    %eax,0x3c(%esp)
     b12:	89 75 58             	mov    %esi,0x58(%ebp)
     b15:	8b 45 40             	mov    0x40(%ebp),%eax
     b18:	89 5c 24 34          	mov    %ebx,0x34(%esp)
     b1c:	8d 57 01             	lea    0x1(%edi),%edx
     b1f:	90                   	nop
                do {
                    s->strstart++;
                    INSERT_STRING(s, s->strstart, hash_head);
     b20:	8b 7c 24 2c          	mov    0x2c(%esp),%edi
#ifndef FASTEST
            if (s->match_length <= s->max_insert_length &&
                s->lookahead >= MIN_MATCH) {
                s->match_length--; /* string at strstart already in hash table */
                do {
                    s->strstart++;
     b24:	89 55 64             	mov    %edx,0x64(%ebp)
                    INSERT_STRING(s, s->strstart, hash_head);
     b27:	31 db                	xor    %ebx,%ebx
     b29:	8a 4c 24 30          	mov    0x30(%esp),%cl
     b2d:	8a 5c 17 02          	mov    0x2(%edi,%edx,1),%bl
     b31:	8b 7c 24 34          	mov    0x34(%esp),%edi
     b35:	d3 e0                	shl    %cl,%eax
     b37:	31 d8                	xor    %ebx,%eax
     b39:	8b 5c 24 28          	mov    0x28(%esp),%ebx
     b3d:	21 f8                	and    %edi,%eax
     b3f:	8b 4c 24 20          	mov    0x20(%esp),%ecx
     b43:	89 45 40             	mov    %eax,0x40(%ebp)
                    /* strstart never exceeds WSIZE-MAX_MATCH, so there are
                     * always MIN_MATCH bytes ahead.
                     */
                } while (--s->match_length != 0);
     b46:	4e                   	dec    %esi
            if (s->match_length <= s->max_insert_length &&
                s->lookahead >= MIN_MATCH) {
                s->match_length--; /* string at strstart already in hash table */
                do {
                    s->strstart++;
                    INSERT_STRING(s, s->strstart, hash_head);
     b47:	8d 3c 43             	lea    (%ebx,%eax,2),%edi
     b4a:	89 7c 24 18          	mov    %edi,0x18(%esp)
     b4e:	66 8b 1f             	mov    (%edi),%bx
     b51:	8b 7c 24 24          	mov    0x24(%esp),%edi
     b55:	21 d7                	and    %edx,%edi
     b57:	66 89 1c 79          	mov    %bx,(%ecx,%edi,2)
     b5b:	8b 7c 24 18          	mov    0x18(%esp),%edi
     b5f:	66 89 17             	mov    %dx,(%edi)
     b62:	42                   	inc    %edx
                    /* strstart never exceeds WSIZE-MAX_MATCH, so there are
                     * always MIN_MATCH bytes ahead.
                     */
                } while (--s->match_length != 0);
     b63:	89 75 58             	mov    %esi,0x58(%ebp)
     b66:	85 f6                	test   %esi,%esi
     b68:	75 b6                	jne    b20 <_deflate_fast+0x190>
            if (s->match_length <= s->max_insert_length &&
                s->lookahead >= MIN_MATCH) {
                s->match_length--; /* string at strstart already in hash table */
                do {
                    s->strstart++;
                    INSERT_STRING(s, s->strstart, hash_head);
     b6a:	89 d8                	mov    %ebx,%eax
                    /* strstart never exceeds WSIZE-MAX_MATCH, so there are
                     * always MIN_MATCH bytes ahead.
                     */
                } while (--s->match_length != 0);
                s->strstart++; 
     b6c:	8b 5c 24 38          	mov    0x38(%esp),%ebx
            if (s->match_length <= s->max_insert_length &&
                s->lookahead >= MIN_MATCH) {
                s->match_length--; /* string at strstart already in hash table */
                do {
                    s->strstart++;
                    INSERT_STRING(s, s->strstart, hash_head);
     b70:	25 ff ff 00 00       	and    $0xffff,%eax
     b75:	89 44 24 18          	mov    %eax,0x18(%esp)
                    /* strstart never exceeds WSIZE-MAX_MATCH, so there are
                     * always MIN_MATCH bytes ahead.
                     */
                } while (--s->match_length != 0);
                s->strstart++; 
     b79:	8b 44 24 3c          	mov    0x3c(%esp),%eax
     b7d:	01 d8                	add    %ebx,%eax
     b7f:	89 45 64             	mov    %eax,0x64(%ebp)
            Tracevv((stderr,"%c", s->window[s->strstart]));
            _tr_tally_lit (s, s->window[s->strstart], bflush);
            s->lookahead--;
            s->strstart++; 
        }
        if (bflush) FLUSH_BLOCK(s, 0);
     b82:	8b 5c 24 1c          	mov    0x1c(%esp),%ebx
     b86:	85 db                	test   %ebx,%ebx
     b88:	0f 84 13 fe ff ff    	je     9a1 <_deflate_fast+0x11>
     b8e:	8b 45 54             	mov    0x54(%ebp),%eax
     b91:	8b 55 64             	mov    0x64(%ebp),%edx
     b94:	29 c2                	sub    %eax,%edx
     b96:	85 c0                	test   %eax,%eax
     b98:	0f 88 42 01 00 00    	js     ce0 <_deflate_fast+0x350>
     b9e:	8b 4d 30             	mov    0x30(%ebp),%ecx
     ba1:	01 c8                	add    %ecx,%eax
     ba3:	89 54 24 08          	mov    %edx,0x8(%esp)
     ba7:	89 44 24 04          	mov    %eax,0x4(%esp)
     bab:	c7 44 24 0c 00 00 00 	movl   $0x0,0xc(%esp)
     bb2:	00 
     bb3:	89 2c 24             	mov    %ebp,(%esp)
     bb6:	e8 00 00 00 00       	call   bbb <_deflate_fast+0x22b>
     bbb:	8b 45 64             	mov    0x64(%ebp),%eax
     bbe:	89 45 54             	mov    %eax,0x54(%ebp)
     bc1:	8b 45 00             	mov    0x0(%ebp),%eax
     bc4:	e8 97 f8 ff ff       	call   460 <_flush_pending>
     bc9:	8b 45 00             	mov    0x0(%ebp),%eax
     bcc:	8b 78 10             	mov    0x10(%eax),%edi
     bcf:	85 ff                	test   %edi,%edi
     bd1:	0f 85 ca fd ff ff    	jne    9a1 <_deflate_fast+0x11>
    }
    FLUSH_BLOCK(s, flush == Z_FINISH);
    return flush == Z_FINISH ? finish_done : block_done;
}
     bd7:	83 c4 4c             	add    $0x4c,%esp
         * string following the next match.
         */
        if (s->lookahead < MIN_LOOKAHEAD) {
            fill_window(s);
            if (s->lookahead < MIN_LOOKAHEAD && flush == Z_NO_FLUSH) {
	        return need_more;
     bda:	31 c0                	xor    %eax,%eax
        }
        if (bflush) FLUSH_BLOCK(s, 0);
    }
    FLUSH_BLOCK(s, flush == Z_FINISH);
    return flush == Z_FINISH ? finish_done : block_done;
}
     bdc:	5b                   	pop    %ebx
     bdd:	5e                   	pop    %esi
     bde:	5f                   	pop    %edi
     bdf:	5d                   	pop    %ebp
     be0:	c3                   	ret    
     be1:	8b 45 58             	mov    0x58(%ebp),%eax
            if (s->strategy != Z_HUFFMAN_ONLY) {
                s->match_length = longest_match (s, hash_head);
            }
            /* longest_match() sets match_start */
        }
        if (s->match_length >= MIN_MATCH) {
     be4:	83 f8 02             	cmp    $0x2,%eax
     be7:	0f 87 53 fe ff ff    	ja     a40 <_deflate_fast+0xb0>
                 */
            }
        } else {
            /* No match, output a literal byte */
            Tracevv((stderr,"%c", s->window[s->strstart]));
            _tr_tally_lit (s, s->window[s->strstart], bflush);
     bed:	8b 45 30             	mov    0x30(%ebp),%eax
     bf0:	8b 8d 9c 16 00 00    	mov    0x169c(%ebp),%ecx
     bf6:	0f b6 3c 10          	movzbl (%eax,%edx,1),%edi
     bfa:	8b 95 98 16 00 00    	mov    0x1698(%ebp),%edx
     c00:	89 f8                	mov    %edi,%eax
     c02:	66 c7 04 51 00 00    	movw   $0x0,(%ecx,%edx,2)
     c08:	8b 8d 90 16 00 00    	mov    0x1690(%ebp),%ecx
     c0e:	8d 72 01             	lea    0x1(%edx),%esi
     c11:	89 b5 98 16 00 00    	mov    %esi,0x1698(%ebp)
     c17:	88 04 11             	mov    %al,(%ecx,%edx,1)
     c1a:	25 ff 00 00 00       	and    $0xff,%eax
     c1f:	66 ff 84 85 8c 00 00 	incw   0x8c(%ebp,%eax,4)
     c26:	00 
     c27:	8b 85 94 16 00 00    	mov    0x1694(%ebp),%eax
            s->lookahead--;
     c2d:	8b 75 6c             	mov    0x6c(%ebp),%esi
                 */
            }
        } else {
            /* No match, output a literal byte */
            Tracevv((stderr,"%c", s->window[s->strstart]));
            _tr_tally_lit (s, s->window[s->strstart], bflush);
     c30:	48                   	dec    %eax
            s->lookahead--;
            s->strstart++; 
     c31:	8b 7d 64             	mov    0x64(%ebp),%edi
                 */
            }
        } else {
            /* No match, output a literal byte */
            Tracevv((stderr,"%c", s->window[s->strstart]));
            _tr_tally_lit (s, s->window[s->strstart], bflush);
     c34:	39 85 98 16 00 00    	cmp    %eax,0x1698(%ebp)
     c3a:	0f 94 c0             	sete   %al
     c3d:	25 ff 00 00 00       	and    $0xff,%eax
            s->lookahead--;
     c42:	4e                   	dec    %esi
            s->strstart++; 
     c43:	47                   	inc    %edi
                 */
            }
        } else {
            /* No match, output a literal byte */
            Tracevv((stderr,"%c", s->window[s->strstart]));
            _tr_tally_lit (s, s->window[s->strstart], bflush);
     c44:	89 44 24 1c          	mov    %eax,0x1c(%esp)
            s->lookahead--;
     c48:	89 75 6c             	mov    %esi,0x6c(%ebp)
            s->strstart++; 
     c4b:	89 7d 64             	mov    %edi,0x64(%ebp)
     c4e:	e9 2f ff ff ff       	jmp    b82 <_deflate_fast+0x1f2>
                } while (--s->match_length != 0);
                s->strstart++; 
            } else
#endif
	    {
                s->strstart += s->match_length;
     c53:	8b 55 64             	mov    0x64(%ebp),%edx
     c56:	8b 44 24 38          	mov    0x38(%esp),%eax
     c5a:	01 d0                	add    %edx,%eax
                s->match_length = 0;
                s->ins_h = s->window[s->strstart];
     c5c:	8b 4d 30             	mov    0x30(%ebp),%ecx
                } while (--s->match_length != 0);
                s->strstart++; 
            } else
#endif
	    {
                s->strstart += s->match_length;
     c5f:	89 45 64             	mov    %eax,0x64(%ebp)
                s->match_length = 0;
     c62:	c7 45 58 00 00 00 00 	movl   $0x0,0x58(%ebp)
                s->ins_h = s->window[s->strstart];
     c69:	31 d2                	xor    %edx,%edx
     c6b:	8a 14 01             	mov    (%ecx,%eax,1),%dl
     c6e:	89 55 40             	mov    %edx,0x40(%ebp)
                UPDATE_HASH(s, s->ins_h, s->window[s->strstart+1]);
     c71:	8a 5c 01 01          	mov    0x1(%ecx,%eax,1),%bl
     c75:	8b 4d 50             	mov    0x50(%ebp),%ecx
     c78:	d3 e2                	shl    %cl,%edx
     c7a:	81 e3 ff 00 00 00    	and    $0xff,%ebx
     c80:	8b 4d 4c             	mov    0x4c(%ebp),%ecx
     c83:	31 da                	xor    %ebx,%edx
     c85:	21 ca                	and    %ecx,%edx
     c87:	89 55 40             	mov    %edx,0x40(%ebp)
     c8a:	e9 f3 fe ff ff       	jmp    b82 <_deflate_fast+0x1f2>
     c8f:	90                   	nop
         * at the end of the input file. We need MAX_MATCH bytes
         * for the next match, plus MIN_MATCH bytes to insert the
         * string following the next match.
         */
        if (s->lookahead < MIN_LOOKAHEAD) {
            fill_window(s);
     c90:	89 e8                	mov    %ebp,%eax
     c92:	e8 d9 f5 ff ff       	call   270 <_fill_window>
            if (s->lookahead < MIN_LOOKAHEAD && flush == Z_NO_FLUSH) {
     c97:	8b 45 6c             	mov    0x6c(%ebp),%eax
     c9a:	3d 05 01 00 00       	cmp    $0x105,%eax
     c9f:	0f 87 09 fd ff ff    	ja     9ae <_deflate_fast+0x1e>
     ca5:	8b 5c 24 64          	mov    0x64(%esp),%ebx
     ca9:	85 db                	test   %ebx,%ebx
     cab:	0f 84 26 ff ff ff    	je     bd7 <_deflate_fast+0x247>
	        return need_more;
	    }
            if (s->lookahead == 0) break; /* flush the current block */
     cb1:	85 c0                	test   %eax,%eax
     cb3:	74 32                	je     ce7 <_deflate_fast+0x357>
        }

        /* Insert the string window[strstart .. strstart+2] in the
         * dictionary, and set hash_head to the head of the hash chain:
         */
        if (s->lookahead >= MIN_MATCH) {
     cb5:	83 f8 02             	cmp    $0x2,%eax
     cb8:	0f 87 f0 fc ff ff    	ja     9ae <_deflate_fast+0x1e>
     cbe:	8b 55 64             	mov    0x64(%ebp),%edx
     cc1:	e9 2a fd ff ff       	jmp    9f0 <_deflate_fast+0x60>
            /* longest_match() sets match_start */
        }
        if (s->match_length >= MIN_MATCH) {
            check_match(s, s->strstart, s->match_start, s->match_length);

            _tr_tally_dist(s, s->strstart - s->match_start,
     cc6:	89 f8                	mov    %edi,%eax
     cc8:	31 d2                	xor    %edx,%edx
     cca:	66 c1 e8 07          	shr    $0x7,%ax
     cce:	66 89 c2             	mov    %ax,%dx
     cd1:	31 c0                	xor    %eax,%eax
     cd3:	8a 82 00 01 00 00    	mov    0x100(%edx),%al
     cd9:	e9 c0 fd ff ff       	jmp    a9e <_deflate_fast+0x10e>
     cde:	66 90                	xchg   %ax,%ax
            Tracevv((stderr,"%c", s->window[s->strstart]));
            _tr_tally_lit (s, s->window[s->strstart], bflush);
            s->lookahead--;
            s->strstart++; 
        }
        if (bflush) FLUSH_BLOCK(s, 0);
     ce0:	31 c0                	xor    %eax,%eax
     ce2:	e9 bc fe ff ff       	jmp    ba3 <_deflate_fast+0x213>
    }
    FLUSH_BLOCK(s, flush == Z_FINISH);
     ce7:	83 7c 24 64 04       	cmpl   $0x4,0x64(%esp)
     cec:	8b 45 54             	mov    0x54(%ebp),%eax
     cef:	8b 55 64             	mov    0x64(%ebp),%edx
     cf2:	0f 94 c3             	sete   %bl
     cf5:	31 c9                	xor    %ecx,%ecx
     cf7:	29 c2                	sub    %eax,%edx
     cf9:	88 d9                	mov    %bl,%cl
     cfb:	85 c0                	test   %eax,%eax
     cfd:	78 57                	js     d56 <_deflate_fast+0x3c6>
     cff:	8b 75 30             	mov    0x30(%ebp),%esi
     d02:	01 f0                	add    %esi,%eax
     d04:	89 4c 24 0c          	mov    %ecx,0xc(%esp)
     d08:	89 54 24 08          	mov    %edx,0x8(%esp)
     d0c:	89 44 24 04          	mov    %eax,0x4(%esp)
     d10:	89 2c 24             	mov    %ebp,(%esp)
     d13:	e8 00 00 00 00       	call   d18 <_deflate_fast+0x388>
     d18:	8b 45 64             	mov    0x64(%ebp),%eax
     d1b:	89 45 54             	mov    %eax,0x54(%ebp)
     d1e:	8b 45 00             	mov    0x0(%ebp),%eax
     d21:	e8 3a f7 ff ff       	call   460 <_flush_pending>
     d26:	8b 45 00             	mov    0x0(%ebp),%eax
     d29:	8b 40 10             	mov    0x10(%eax),%eax
     d2c:	85 c0                	test   %eax,%eax
     d2e:	75 13                	jne    d43 <_deflate_fast+0x3b3>
     d30:	89 d8                	mov    %ebx,%eax
    return flush == Z_FINISH ? finish_done : block_done;
}
     d32:	83 c4 4c             	add    $0x4c,%esp
            s->lookahead--;
            s->strstart++; 
        }
        if (bflush) FLUSH_BLOCK(s, 0);
    }
    FLUSH_BLOCK(s, flush == Z_FINISH);
     d35:	c1 e0 1f             	shl    $0x1f,%eax
     d38:	c1 f8 1f             	sar    $0x1f,%eax
    return flush == Z_FINISH ? finish_done : block_done;
}
     d3b:	5b                   	pop    %ebx
            s->lookahead--;
            s->strstart++; 
        }
        if (bflush) FLUSH_BLOCK(s, 0);
    }
    FLUSH_BLOCK(s, flush == Z_FINISH);
     d3c:	83 e0 02             	and    $0x2,%eax
    return flush == Z_FINISH ? finish_done : block_done;
}
     d3f:	5e                   	pop    %esi
     d40:	5f                   	pop    %edi
     d41:	5d                   	pop    %ebp
     d42:	c3                   	ret    
            s->strstart++; 
        }
        if (bflush) FLUSH_BLOCK(s, 0);
    }
    FLUSH_BLOCK(s, flush == Z_FINISH);
    return flush == Z_FINISH ? finish_done : block_done;
     d43:	80 fb 01             	cmp    $0x1,%bl
     d46:	19 c0                	sbb    %eax,%eax
}
     d48:	83 c4 4c             	add    $0x4c,%esp
            s->strstart++; 
        }
        if (bflush) FLUSH_BLOCK(s, 0);
    }
    FLUSH_BLOCK(s, flush == Z_FINISH);
    return flush == Z_FINISH ? finish_done : block_done;
     d4b:	83 e0 fe             	and    $0xfffffffe,%eax
}
     d4e:	5b                   	pop    %ebx
            s->strstart++; 
        }
        if (bflush) FLUSH_BLOCK(s, 0);
    }
    FLUSH_BLOCK(s, flush == Z_FINISH);
    return flush == Z_FINISH ? finish_done : block_done;
     d4f:	83 c0 03             	add    $0x3,%eax
}
     d52:	5e                   	pop    %esi
     d53:	5f                   	pop    %edi
     d54:	5d                   	pop    %ebp
     d55:	c3                   	ret    
            s->lookahead--;
            s->strstart++; 
        }
        if (bflush) FLUSH_BLOCK(s, 0);
    }
    FLUSH_BLOCK(s, flush == Z_FINISH);
     d56:	31 c0                	xor    %eax,%eax
     d58:	eb aa                	jmp    d04 <_deflate_fast+0x374>
     d5a:	8d b6 00 00 00 00    	lea    0x0(%esi),%esi

00000d60 <_deflate_stored>:
 * window to pending_buf.
 */
local block_state deflate_stored(s, flush)
    deflate_state *s;
    int flush;
{
     d60:	57                   	push   %edi
     d61:	56                   	push   %esi
     d62:	53                   	push   %ebx
     d63:	83 ec 10             	sub    $0x10,%esp
     d66:	8b 5c 24 20          	mov    0x20(%esp),%ebx
     d6a:	8b 7c 24 24          	mov    0x24(%esp),%edi
     * to pending_buf_size, and each stored block has a 5 byte header:
     */
    ulg max_block_size = 0xffff;
    ulg max_start;

    if (max_block_size > s->pending_buf_size - 5) {
     d6e:	8b 43 0c             	mov    0xc(%ebx),%eax
     d71:	8d 70 fb             	lea    -0x5(%eax),%esi
    int flush;
{
    /* Stored blocks are limited to 0xffff bytes, pending_buf is limited
     * to pending_buf_size, and each stored block has a 5 byte header:
     */
    ulg max_block_size = 0xffff;
     d74:	b8 ff ff 00 00       	mov    $0xffff,%eax
     d79:	81 fe ff ff 00 00    	cmp    $0xffff,%esi
     d7f:	0f 43 f0             	cmovae %eax,%esi
     d82:	eb 13                	jmp    d97 <_deflate_stored+0x37>
	s->strstart += s->lookahead;
	s->lookahead = 0;

	/* Emit a stored block if pending_buf will be full: */
 	max_start = s->block_start + max_block_size;
        if (s->strstart == 0 || (ulg)s->strstart >= max_start) {
     d84:	39 c8                	cmp    %ecx,%eax
     d86:	73 34                	jae    dbc <_deflate_stored+0x5c>
            FLUSH_BLOCK(s, 0);
	}
	/* Flush if we may have to slide, otherwise block_start may become
         * negative and the data will be gone:
         */
        if (s->strstart - (uInt)s->block_start >= MAX_DIST(s)) {
     d88:	8b 4b 24             	mov    0x24(%ebx),%ecx
     d8b:	29 d0                	sub    %edx,%eax
     d8d:	81 e9 06 01 00 00    	sub    $0x106,%ecx
     d93:	39 c8                	cmp    %ecx,%eax
     d95:	73 7f                	jae    e16 <_deflate_stored+0xb6>
    }

    /* Copy as much as possible from input to output: */
    for (;;) {
        /* Fill the window as much as possible: */
        if (s->lookahead <= 1) {
     d97:	8b 43 6c             	mov    0x6c(%ebx),%eax
     d9a:	83 f8 01             	cmp    $0x1,%eax
     d9d:	0f 86 c4 00 00 00    	jbe    e67 <_deflate_stored+0x107>

            if (s->lookahead == 0) break; /* flush the current block */
        }
	Assert(s->block_start >= 0L, "block gone");

	s->strstart += s->lookahead;
     da3:	8b 53 64             	mov    0x64(%ebx),%edx
	s->lookahead = 0;
     da6:	c7 43 6c 00 00 00 00 	movl   $0x0,0x6c(%ebx)

            if (s->lookahead == 0) break; /* flush the current block */
        }
	Assert(s->block_start >= 0L, "block gone");

	s->strstart += s->lookahead;
     dad:	01 d0                	add    %edx,%eax
	s->lookahead = 0;

	/* Emit a stored block if pending_buf will be full: */
 	max_start = s->block_start + max_block_size;
     daf:	8b 53 54             	mov    0x54(%ebx),%edx

            if (s->lookahead == 0) break; /* flush the current block */
        }
	Assert(s->block_start >= 0L, "block gone");

	s->strstart += s->lookahead;
     db2:	89 43 64             	mov    %eax,0x64(%ebx)
	s->lookahead = 0;

	/* Emit a stored block if pending_buf will be full: */
 	max_start = s->block_start + max_block_size;
        if (s->strstart == 0 || (ulg)s->strstart >= max_start) {
     db5:	85 c0                	test   %eax,%eax

	s->strstart += s->lookahead;
	s->lookahead = 0;

	/* Emit a stored block if pending_buf will be full: */
 	max_start = s->block_start + max_block_size;
     db7:	8d 0c 16             	lea    (%esi,%edx,1),%ecx
        if (s->strstart == 0 || (ulg)s->strstart >= max_start) {
     dba:	75 c8                	jne    d84 <_deflate_stored+0x24>
	    /* strstart == 0 is possible when wraparound on 16-bit machine */
	    s->lookahead = (uInt)(s->strstart - max_start);
     dbc:	29 c8                	sub    %ecx,%eax
	    s->strstart = (uInt)max_start;
     dbe:	89 4b 64             	mov    %ecx,0x64(%ebx)

	/* Emit a stored block if pending_buf will be full: */
 	max_start = s->block_start + max_block_size;
        if (s->strstart == 0 || (ulg)s->strstart >= max_start) {
	    /* strstart == 0 is possible when wraparound on 16-bit machine */
	    s->lookahead = (uInt)(s->strstart - max_start);
     dc1:	89 43 6c             	mov    %eax,0x6c(%ebx)
	    s->strstart = (uInt)max_start;
            FLUSH_BLOCK(s, 0);
     dc4:	29 d1                	sub    %edx,%ecx
     dc6:	85 d2                	test   %edx,%edx
     dc8:	0f 88 92 00 00 00    	js     e60 <_deflate_stored+0x100>
     dce:	8b 43 30             	mov    0x30(%ebx),%eax
     dd1:	01 c2                	add    %eax,%edx
     dd3:	89 4c 24 08          	mov    %ecx,0x8(%esp)
     dd7:	89 54 24 04          	mov    %edx,0x4(%esp)
     ddb:	c7 44 24 0c 00 00 00 	movl   $0x0,0xc(%esp)
     de2:	00 
     de3:	89 1c 24             	mov    %ebx,(%esp)
     de6:	e8 00 00 00 00       	call   deb <_deflate_stored+0x8b>
     deb:	8b 43 64             	mov    0x64(%ebx),%eax
     dee:	89 43 54             	mov    %eax,0x54(%ebx)
     df1:	8b 03                	mov    (%ebx),%eax
     df3:	e8 68 f6 ff ff       	call   460 <_flush_pending>
     df8:	8b 03                	mov    (%ebx),%eax
     dfa:	8b 40 10             	mov    0x10(%eax),%eax
     dfd:	85 c0                	test   %eax,%eax
     dff:	74 54                	je     e55 <_deflate_stored+0xf5>
     e01:	8b 43 64             	mov    0x64(%ebx),%eax
     e04:	8b 53 54             	mov    0x54(%ebx),%edx
	}
	/* Flush if we may have to slide, otherwise block_start may become
         * negative and the data will be gone:
         */
        if (s->strstart - (uInt)s->block_start >= MAX_DIST(s)) {
     e07:	8b 4b 24             	mov    0x24(%ebx),%ecx
     e0a:	29 d0                	sub    %edx,%eax
     e0c:	81 e9 06 01 00 00    	sub    $0x106,%ecx
     e12:	39 c8                	cmp    %ecx,%eax
     e14:	72 81                	jb     d97 <_deflate_stored+0x37>
            FLUSH_BLOCK(s, 0);
     e16:	85 d2                	test   %edx,%edx
     e18:	0f 88 ba 00 00 00    	js     ed8 <_deflate_stored+0x178>
     e1e:	8b 4b 30             	mov    0x30(%ebx),%ecx
     e21:	01 ca                	add    %ecx,%edx
     e23:	89 44 24 08          	mov    %eax,0x8(%esp)
     e27:	89 54 24 04          	mov    %edx,0x4(%esp)
     e2b:	c7 44 24 0c 00 00 00 	movl   $0x0,0xc(%esp)
     e32:	00 
     e33:	89 1c 24             	mov    %ebx,(%esp)
     e36:	e8 00 00 00 00       	call   e3b <_deflate_stored+0xdb>
     e3b:	8b 43 64             	mov    0x64(%ebx),%eax
     e3e:	89 43 54             	mov    %eax,0x54(%ebx)
     e41:	8b 03                	mov    (%ebx),%eax
     e43:	e8 18 f6 ff ff       	call   460 <_flush_pending>
     e48:	8b 03                	mov    (%ebx),%eax
     e4a:	8b 40 10             	mov    0x10(%eax),%eax
     e4d:	85 c0                	test   %eax,%eax
     e4f:	0f 85 42 ff ff ff    	jne    d97 <_deflate_stored+0x37>

            Assert(s->strstart < s->w_size+MAX_DIST(s) ||
		   s->block_start >= (long)s->w_size, "slide too late");

            fill_window(s);
            if (s->lookahead == 0 && flush == Z_NO_FLUSH) return need_more;
     e55:	31 c0                	xor    %eax,%eax
            FLUSH_BLOCK(s, 0);
	}
    }
    FLUSH_BLOCK(s, flush == Z_FINISH);
    return flush == Z_FINISH ? finish_done : block_done;
}
     e57:	83 c4 10             	add    $0x10,%esp
     e5a:	5b                   	pop    %ebx
     e5b:	5e                   	pop    %esi
     e5c:	5f                   	pop    %edi
     e5d:	c3                   	ret    
     e5e:	66 90                	xchg   %ax,%ax
 	max_start = s->block_start + max_block_size;
        if (s->strstart == 0 || (ulg)s->strstart >= max_start) {
	    /* strstart == 0 is possible when wraparound on 16-bit machine */
	    s->lookahead = (uInt)(s->strstart - max_start);
	    s->strstart = (uInt)max_start;
            FLUSH_BLOCK(s, 0);
     e60:	31 d2                	xor    %edx,%edx
     e62:	e9 6c ff ff ff       	jmp    dd3 <_deflate_stored+0x73>
        if (s->lookahead <= 1) {

            Assert(s->strstart < s->w_size+MAX_DIST(s) ||
		   s->block_start >= (long)s->w_size, "slide too late");

            fill_window(s);
     e67:	89 d8                	mov    %ebx,%eax
     e69:	e8 02 f4 ff ff       	call   270 <_fill_window>
            if (s->lookahead == 0 && flush == Z_NO_FLUSH) return need_more;
     e6e:	8b 43 6c             	mov    0x6c(%ebx),%eax
     e71:	85 c0                	test   %eax,%eax
     e73:	0f 85 2a ff ff ff    	jne    da3 <_deflate_stored+0x43>
     e79:	85 ff                	test   %edi,%edi
     e7b:	74 d8                	je     e55 <_deflate_stored+0xf5>
         */
        if (s->strstart - (uInt)s->block_start >= MAX_DIST(s)) {
            FLUSH_BLOCK(s, 0);
	}
    }
    FLUSH_BLOCK(s, flush == Z_FINISH);
     e7d:	83 ff 04             	cmp    $0x4,%edi
     e80:	8b 53 64             	mov    0x64(%ebx),%edx
     e83:	0f 94 c0             	sete   %al
     e86:	88 c1                	mov    %al,%cl
     e88:	89 c6                	mov    %eax,%esi
     e8a:	8b 43 54             	mov    0x54(%ebx),%eax
     e8d:	81 e1 ff 00 00 00    	and    $0xff,%ecx
     e93:	29 c2                	sub    %eax,%edx
     e95:	85 c0                	test   %eax,%eax
     e97:	78 57                	js     ef0 <_deflate_stored+0x190>
     e99:	8b 7b 30             	mov    0x30(%ebx),%edi
     e9c:	01 f8                	add    %edi,%eax
     e9e:	89 4c 24 0c          	mov    %ecx,0xc(%esp)
     ea2:	89 54 24 08          	mov    %edx,0x8(%esp)
     ea6:	89 44 24 04          	mov    %eax,0x4(%esp)
     eaa:	89 1c 24             	mov    %ebx,(%esp)
     ead:	e8 00 00 00 00       	call   eb2 <_deflate_stored+0x152>
     eb2:	8b 43 64             	mov    0x64(%ebx),%eax
     eb5:	89 43 54             	mov    %eax,0x54(%ebx)
     eb8:	8b 03                	mov    (%ebx),%eax
     eba:	e8 a1 f5 ff ff       	call   460 <_flush_pending>
     ebf:	8b 03                	mov    (%ebx),%eax
     ec1:	8b 40 10             	mov    0x10(%eax),%eax
     ec4:	85 c0                	test   %eax,%eax
     ec6:	75 17                	jne    edf <_deflate_stored+0x17f>
     ec8:	89 f0                	mov    %esi,%eax
     eca:	c1 e0 1f             	shl    $0x1f,%eax
     ecd:	c1 f8 1f             	sar    $0x1f,%eax
     ed0:	83 e0 02             	and    $0x2,%eax
     ed3:	e9 7f ff ff ff       	jmp    e57 <_deflate_stored+0xf7>
	}
	/* Flush if we may have to slide, otherwise block_start may become
         * negative and the data will be gone:
         */
        if (s->strstart - (uInt)s->block_start >= MAX_DIST(s)) {
            FLUSH_BLOCK(s, 0);
     ed8:	31 d2                	xor    %edx,%edx
     eda:	e9 44 ff ff ff       	jmp    e23 <_deflate_stored+0xc3>
	}
    }
    FLUSH_BLOCK(s, flush == Z_FINISH);
    return flush == Z_FINISH ? finish_done : block_done;
     edf:	89 f0                	mov    %esi,%eax
     ee1:	3c 01                	cmp    $0x1,%al
     ee3:	19 c0                	sbb    %eax,%eax
     ee5:	83 e0 fe             	and    $0xfffffffe,%eax
     ee8:	83 c0 03             	add    $0x3,%eax
     eeb:	e9 67 ff ff ff       	jmp    e57 <_deflate_stored+0xf7>
         */
        if (s->strstart - (uInt)s->block_start >= MAX_DIST(s)) {
            FLUSH_BLOCK(s, 0);
	}
    }
    FLUSH_BLOCK(s, flush == Z_FINISH);
     ef0:	31 c0                	xor    %eax,%eax
     ef2:	eb aa                	jmp    e9e <_deflate_stored+0x13e>
     ef4:	8d b6 00 00 00 00    	lea    0x0(%esi),%esi
     efa:	8d bf 00 00 00 00    	lea    0x0(%edi),%edi

00000f00 <_deflateSetDictionary>:
/* ========================================================================= */
int ZEXPORT deflateSetDictionary (strm, dictionary, dictLength)
    z_streamp strm;
    const Bytef *dictionary;
    uInt  dictLength;
{
     f00:	55                   	push   %ebp
     f01:	57                   	push   %edi
     f02:	56                   	push   %esi
     f03:	53                   	push   %ebx
     f04:	83 ec 3c             	sub    $0x3c,%esp
     f07:	8b 7c 24 50          	mov    0x50(%esp),%edi
     f0b:	8b 6c 24 54          	mov    0x54(%esp),%ebp
     f0f:	8b 5c 24 58          	mov    0x58(%esp),%ebx
    deflate_state *s;
    uInt length = dictLength;
    uInt n;
    IPos hash_head = 0;

    if (strm == Z_NULL || strm->state == Z_NULL || dictionary == Z_NULL ||
     f13:	85 ff                	test   %edi,%edi
     f15:	0f 84 fc 00 00 00    	je     1017 <_deflateSetDictionary+0x117>
     f1b:	8b 77 1c             	mov    0x1c(%edi),%esi
     f1e:	85 ed                	test   %ebp,%ebp
     f20:	0f 84 f1 00 00 00    	je     1017 <_deflateSetDictionary+0x117>
     f26:	85 f6                	test   %esi,%esi
     f28:	0f 84 e9 00 00 00    	je     1017 <_deflateSetDictionary+0x117>
     f2e:	83 7e 04 2a          	cmpl   $0x2a,0x4(%esi)
     f32:	0f 85 df 00 00 00    	jne    1017 <_deflateSetDictionary+0x117>
        strm->state->status != INIT_STATE) return Z_STREAM_ERROR;

    s = strm->state;
    strm->adler = adler32(strm->adler, dictionary, dictLength);
     f38:	89 5c 24 08          	mov    %ebx,0x8(%esp)
     f3c:	89 6c 24 04          	mov    %ebp,0x4(%esp)
     f40:	8b 47 30             	mov    0x30(%edi),%eax
     f43:	89 04 24             	mov    %eax,(%esp)
     f46:	e8 00 00 00 00       	call   f4b <_deflateSetDictionary+0x4b>

    if (length < MIN_MATCH) return Z_OK;
     f4b:	83 fb 02             	cmp    $0x2,%ebx

    if (strm == Z_NULL || strm->state == Z_NULL || dictionary == Z_NULL ||
        strm->state->status != INIT_STATE) return Z_STREAM_ERROR;

    s = strm->state;
    strm->adler = adler32(strm->adler, dictionary, dictLength);
     f4e:	89 47 30             	mov    %eax,0x30(%edi)

    if (length < MIN_MATCH) return Z_OK;
     f51:	0f 86 b6 00 00 00    	jbe    100d <_deflateSetDictionary+0x10d>
    if (length > MAX_DIST(s)) {
     f57:	8b 46 24             	mov    0x24(%esi),%eax
     f5a:	2d 06 01 00 00       	sub    $0x106,%eax
     f5f:	39 c3                	cmp    %eax,%ebx
     f61:	76 06                	jbe    f69 <_deflateSetDictionary+0x69>
	length = MAX_DIST(s);
#ifndef USE_DICT_HEAD
	dictionary += dictLength - length; /* use the tail of the dictionary */
     f63:	29 c3                	sub    %eax,%ebx
     f65:	01 dd                	add    %ebx,%ebp
     f67:	89 c3                	mov    %eax,%ebx
#endif
    }
    zmemcpy(s->window, dictionary, length);
     f69:	8b 46 30             	mov    0x30(%esi),%eax
     f6c:	89 6c 24 04          	mov    %ebp,0x4(%esp)
     f70:	89 5c 24 08          	mov    %ebx,0x8(%esp)
     f74:	89 04 24             	mov    %eax,(%esp)
     f77:	e8 00 00 00 00       	call   f7c <_deflateSetDictionary+0x7c>

    /* Insert all strings in the hash table (except for the last two bytes).
     * s->lookahead stays null, so s->ins_h will be recomputed at the next
     * call of fill_window.
     */
    s->ins_h = s->window[0];
     f7c:	8b 7e 30             	mov    0x30(%esi),%edi
#ifndef USE_DICT_HEAD
	dictionary += dictLength - length; /* use the tail of the dictionary */
#endif
    }
    zmemcpy(s->window, dictionary, length);
    s->strstart = length;
     f7f:	89 5e 64             	mov    %ebx,0x64(%esi)
    s->block_start = (long)length;
     f82:	89 5e 54             	mov    %ebx,0x54(%esi)

    /* Insert all strings in the hash table (except for the last two bytes).
     * s->lookahead stays null, so s->ins_h will be recomputed at the next
     * call of fill_window.
     */
    s->ins_h = s->window[0];
     f85:	31 c0                	xor    %eax,%eax
    UPDATE_HASH(s, s->ins_h, s->window[1]);
     f87:	8b 56 4c             	mov    0x4c(%esi),%edx

    /* Insert all strings in the hash table (except for the last two bytes).
     * s->lookahead stays null, so s->ins_h will be recomputed at the next
     * call of fill_window.
     */
    s->ins_h = s->window[0];
     f8a:	8a 07                	mov    (%edi),%al
    UPDATE_HASH(s, s->ins_h, s->window[1]);
     f8c:	8b 4e 50             	mov    0x50(%esi),%ecx

    /* Insert all strings in the hash table (except for the last two bytes).
     * s->lookahead stays null, so s->ins_h will be recomputed at the next
     * call of fill_window.
     */
    s->ins_h = s->window[0];
     f8f:	89 46 40             	mov    %eax,0x40(%esi)
    UPDATE_HASH(s, s->ins_h, s->window[1]);
     f92:	89 d5                	mov    %edx,%ebp
     f94:	89 54 24 14          	mov    %edx,0x14(%esp)
     f98:	31 d2                	xor    %edx,%edx
     f9a:	8a 57 01             	mov    0x1(%edi),%dl
    for (n = 0; n <= length - MIN_MATCH; n++) {
     f9d:	89 74 24 28          	mov    %esi,0x28(%esp)
    /* Insert all strings in the hash table (except for the last two bytes).
     * s->lookahead stays null, so s->ins_h will be recomputed at the next
     * call of fill_window.
     */
    s->ins_h = s->window[0];
    UPDATE_HASH(s, s->ins_h, s->window[1]);
     fa1:	d3 e0                	shl    %cl,%eax
     fa3:	31 d0                	xor    %edx,%eax
    for (n = 0; n <= length - MIN_MATCH; n++) {
     fa5:	8d 53 fd             	lea    -0x3(%ebx),%edx
     fa8:	89 54 24 18          	mov    %edx,0x18(%esp)
     fac:	8b 56 38             	mov    0x38(%esi),%edx
     faf:	89 54 24 1c          	mov    %edx,0x1c(%esp)
     fb3:	8b 56 2c             	mov    0x2c(%esi),%edx
    /* Insert all strings in the hash table (except for the last two bytes).
     * s->lookahead stays null, so s->ins_h will be recomputed at the next
     * call of fill_window.
     */
    s->ins_h = s->window[0];
    UPDATE_HASH(s, s->ins_h, s->window[1]);
     fb6:	21 e8                	and    %ebp,%eax
     fb8:	89 54 24 20          	mov    %edx,0x20(%esp)
     fbc:	8b 56 3c             	mov    0x3c(%esi),%edx
     fbf:	89 46 40             	mov    %eax,0x40(%esi)
     fc2:	89 54 24 24          	mov    %edx,0x24(%esp)
    for (n = 0; n <= length - MIN_MATCH; n++) {
     fc6:	89 4c 24 2c          	mov    %ecx,0x2c(%esp)
     fca:	31 d2                	xor    %edx,%edx
     fcc:	8d 74 26 00          	lea    0x0(%esi,%eiz,1),%esi
	INSERT_STRING(s, n, hash_head);
     fd0:	31 db                	xor    %ebx,%ebx
     fd2:	8a 4c 24 2c          	mov    0x2c(%esp),%cl
     fd6:	8a 5c 17 02          	mov    0x2(%edi,%edx,1),%bl
     fda:	8b 6c 24 20          	mov    0x20(%esp),%ebp
     fde:	d3 e0                	shl    %cl,%eax
     fe0:	31 d8                	xor    %ebx,%eax
     fe2:	8b 4c 24 14          	mov    0x14(%esp),%ecx
     fe6:	21 c8                	and    %ecx,%eax
     fe8:	8b 5c 24 24          	mov    0x24(%esp),%ebx
     fec:	8b 4c 24 28          	mov    0x28(%esp),%ecx
     ff0:	21 d5                	and    %edx,%ebp
     ff2:	8d 1c 43             	lea    (%ebx,%eax,2),%ebx
     ff5:	89 41 40             	mov    %eax,0x40(%ecx)
     ff8:	8b 4c 24 1c          	mov    0x1c(%esp),%ecx
     ffc:	66 8b 33             	mov    (%ebx),%si
     fff:	66 89 34 69          	mov    %si,(%ecx,%ebp,2)
    1003:	66 89 13             	mov    %dx,(%ebx)
     * s->lookahead stays null, so s->ins_h will be recomputed at the next
     * call of fill_window.
     */
    s->ins_h = s->window[0];
    UPDATE_HASH(s, s->ins_h, s->window[1]);
    for (n = 0; n <= length - MIN_MATCH; n++) {
    1006:	42                   	inc    %edx
    1007:	3b 54 24 18          	cmp    0x18(%esp),%edx
    100b:	76 c3                	jbe    fd0 <_deflateSetDictionary+0xd0>
	INSERT_STRING(s, n, hash_head);
    }
    if (hash_head) hash_head = 0;  /* to make compiler happy */
    return Z_OK;
}
    100d:	83 c4 3c             	add    $0x3c,%esp
        strm->state->status != INIT_STATE) return Z_STREAM_ERROR;

    s = strm->state;
    strm->adler = adler32(strm->adler, dictionary, dictLength);

    if (length < MIN_MATCH) return Z_OK;
    1010:	31 c0                	xor    %eax,%eax
    for (n = 0; n <= length - MIN_MATCH; n++) {
	INSERT_STRING(s, n, hash_head);
    }
    if (hash_head) hash_head = 0;  /* to make compiler happy */
    return Z_OK;
}
    1012:	5b                   	pop    %ebx
    1013:	5e                   	pop    %esi
    1014:	5f                   	pop    %edi
    1015:	5d                   	pop    %ebp
    1016:	c3                   	ret    
    1017:	83 c4 3c             	add    $0x3c,%esp
    uInt length = dictLength;
    uInt n;
    IPos hash_head = 0;

    if (strm == Z_NULL || strm->state == Z_NULL || dictionary == Z_NULL ||
        strm->state->status != INIT_STATE) return Z_STREAM_ERROR;
    101a:	b8 fe ff ff ff       	mov    $0xfffffffe,%eax
    for (n = 0; n <= length - MIN_MATCH; n++) {
	INSERT_STRING(s, n, hash_head);
    }
    if (hash_head) hash_head = 0;  /* to make compiler happy */
    return Z_OK;
}
    101f:	5b                   	pop    %ebx
    1020:	5e                   	pop    %esi
    1021:	5f                   	pop    %edi
    1022:	5d                   	pop    %ebp
    1023:	c3                   	ret    
    1024:	8d b6 00 00 00 00    	lea    0x0(%esi),%esi
    102a:	8d bf 00 00 00 00    	lea    0x0(%edi),%edi

00001030 <_deflateReset>:

/* ========================================================================= */
int ZEXPORT deflateReset (strm)
    z_streamp strm;
{
    1030:	57                   	push   %edi
    1031:	53                   	push   %ebx
    1032:	83 ec 14             	sub    $0x14,%esp
    1035:	8b 44 24 20          	mov    0x20(%esp),%eax
    deflate_state *s;
    
    if (strm == Z_NULL || strm->state == Z_NULL ||
    1039:	85 c0                	test   %eax,%eax
    103b:	0f 84 8f 01 00 00    	je     11d0 <_deflateReset+0x1a0>
    1041:	8b 58 1c             	mov    0x1c(%eax),%ebx
    1044:	85 db                	test   %ebx,%ebx
    1046:	0f 84 84 01 00 00    	je     11d0 <_deflateReset+0x1a0>
    104c:	8b 48 20             	mov    0x20(%eax),%ecx
    104f:	85 c9                	test   %ecx,%ecx
    1051:	0f 84 79 01 00 00    	je     11d0 <_deflateReset+0x1a0>
        strm->zalloc == Z_NULL || strm->zfree == Z_NULL) return Z_STREAM_ERROR;
    1057:	8b 50 24             	mov    0x24(%eax),%edx
    105a:	85 d2                	test   %edx,%edx
    105c:	0f 84 6e 01 00 00    	je     11d0 <_deflateReset+0x1a0>
    strm->msg = Z_NULL; /* use zfree if we ever allocate msg dynamically */
    strm->data_type = Z_UNKNOWN;

    s = (deflate_state *)strm->state;
    s->pending = 0;
    s->pending_out = s->pending_buf;
    1062:	8b 53 08             	mov    0x8(%ebx),%edx
    deflate_state *s;
    
    if (strm == Z_NULL || strm->state == Z_NULL ||
        strm->zalloc == Z_NULL || strm->zfree == Z_NULL) return Z_STREAM_ERROR;

    strm->total_in = strm->total_out = 0;
    1065:	c7 40 14 00 00 00 00 	movl   $0x0,0x14(%eax)
    106c:	c7 40 08 00 00 00 00 	movl   $0x0,0x8(%eax)
    strm->msg = Z_NULL; /* use zfree if we ever allocate msg dynamically */
    1073:	c7 40 18 00 00 00 00 	movl   $0x0,0x18(%eax)
    strm->data_type = Z_UNKNOWN;
    107a:	c7 40 2c 02 00 00 00 	movl   $0x2,0x2c(%eax)

    s = (deflate_state *)strm->state;
    s->pending = 0;
    s->pending_out = s->pending_buf;
    1081:	89 53 10             	mov    %edx,0x10(%ebx)

    if (s->noheader < 0) {
    1084:	8b 53 18             	mov    0x18(%ebx),%edx
    strm->total_in = strm->total_out = 0;
    strm->msg = Z_NULL; /* use zfree if we ever allocate msg dynamically */
    strm->data_type = Z_UNKNOWN;

    s = (deflate_state *)strm->state;
    s->pending = 0;
    1087:	c7 43 14 00 00 00 00 	movl   $0x0,0x14(%ebx)
    s->pending_out = s->pending_buf;

    if (s->noheader < 0) {
    108e:	85 d2                	test   %edx,%edx
    1090:	0f 88 0b 01 00 00    	js     11a1 <_deflateReset+0x171>
        s->noheader = 0; /* was set to -1 by deflate(..., Z_FINISH); */
    }
    s->status = s->noheader ? BUSY_STATE : INIT_STATE;
    1096:	83 fa 01             	cmp    $0x1,%edx
    1099:	19 d2                	sbb    %edx,%edx
    109b:	83 e2 b9             	and    $0xffffffb9,%edx
    109e:	83 c2 71             	add    $0x71,%edx
    10a1:	89 53 04             	mov    %edx,0x4(%ebx)
    strm->adler = 1;
    10a4:	c7 40 30 01 00 00 00 	movl   $0x1,0x30(%eax)
    s->last_flush = Z_NO_FLUSH;
    10ab:	c7 43 20 00 00 00 00 	movl   $0x0,0x20(%ebx)

    _tr_init(s);
    10b2:	89 1c 24             	mov    %ebx,(%esp)
    10b5:	e8 00 00 00 00       	call   10ba <_deflateReset+0x8a>
 * Initialize the "longest match" routines for a new zlib stream
 */
local void lm_init (s)
    deflate_state *s;
{
    s->window_size = (ulg)2L*s->w_size;
    10ba:	8b 43 24             	mov    0x24(%ebx),%eax
    10bd:	01 c0                	add    %eax,%eax

    CLEAR_HASH(s);
    10bf:	8b 7b 3c             	mov    0x3c(%ebx),%edi
 * Initialize the "longest match" routines for a new zlib stream
 */
local void lm_init (s)
    deflate_state *s;
{
    s->window_size = (ulg)2L*s->w_size;
    10c2:	89 43 34             	mov    %eax,0x34(%ebx)

    CLEAR_HASH(s);
    10c5:	8b 43 44             	mov    0x44(%ebx),%eax
    10c8:	8d 54 00 fe          	lea    -0x2(%eax,%eax,1),%edx
    10cc:	83 fa 04             	cmp    $0x4,%edx
    10cf:	66 c7 04 17 00 00    	movw   $0x0,(%edi,%edx,1)
    10d5:	0f 83 a8 00 00 00    	jae    1183 <_deflateReset+0x153>
    10db:	f6 c2 02             	test   $0x2,%dl
    10de:	0f 85 8c 00 00 00    	jne    1170 <_deflateReset+0x140>
    10e4:	83 e2 01             	and    $0x1,%edx
    10e7:	75 7b                	jne    1164 <_deflateReset+0x134>

    /* Set the default configuration parameters:
     */
    s->max_lazy_match   = configuration_table[s->level].max_lazy;
    10e9:	8b 43 7c             	mov    0x7c(%ebx),%eax
    10ec:	31 c9                	xor    %ecx,%ecx
    s->good_match       = configuration_table[s->level].good_length;
    s->nice_match       = configuration_table[s->level].nice_length;
    s->max_chain_length = configuration_table[s->level].max_chain;

    s->strstart = 0;
    10ee:	c7 43 64 00 00 00 00 	movl   $0x0,0x64(%ebx)
    s->block_start = 0L;
    10f5:	c7 43 54 00 00 00 00 	movl   $0x0,0x54(%ebx)

    CLEAR_HASH(s);

    /* Set the default configuration parameters:
     */
    s->max_lazy_match   = configuration_table[s->level].max_lazy;
    10fc:	8d 04 40             	lea    (%eax,%eax,2),%eax
    s->nice_match       = configuration_table[s->level].nice_length;
    s->max_chain_length = configuration_table[s->level].max_chain;

    s->strstart = 0;
    s->block_start = 0L;
    s->lookahead = 0;
    10ff:	c7 43 6c 00 00 00 00 	movl   $0x0,0x6c(%ebx)

    CLEAR_HASH(s);

    /* Set the default configuration parameters:
     */
    s->max_lazy_match   = configuration_table[s->level].max_lazy;
    1106:	c1 e0 02             	shl    $0x2,%eax
    s->max_chain_length = configuration_table[s->level].max_chain;

    s->strstart = 0;
    s->block_start = 0L;
    s->lookahead = 0;
    s->match_length = s->prev_length = MIN_MATCH-1;
    1109:	c7 43 70 02 00 00 00 	movl   $0x2,0x70(%ebx)
    1110:	c7 43 58 02 00 00 00 	movl   $0x2,0x58(%ebx)
    s->match_available = 0;
    1117:	c7 43 60 00 00 00 00 	movl   $0x0,0x60(%ebx)

    CLEAR_HASH(s);

    /* Set the default configuration parameters:
     */
    s->max_lazy_match   = configuration_table[s->level].max_lazy;
    111e:	8d 90 00 00 00 00    	lea    0x0(%eax),%edx
    1124:	66 8b 88 02 00 00 00 	mov    0x2(%eax),%cx
    112b:	89 4b 78             	mov    %ecx,0x78(%ebx)
    s->good_match       = configuration_table[s->level].good_length;
    112e:	8b 88 00 00 00 00    	mov    0x0(%eax),%ecx
    s->nice_match       = configuration_table[s->level].nice_length;
    1134:	31 c0                	xor    %eax,%eax
    CLEAR_HASH(s);

    /* Set the default configuration parameters:
     */
    s->max_lazy_match   = configuration_table[s->level].max_lazy;
    s->good_match       = configuration_table[s->level].good_length;
    1136:	81 e1 ff ff 00 00    	and    $0xffff,%ecx
    s->nice_match       = configuration_table[s->level].nice_length;
    113c:	66 8b 42 04          	mov    0x4(%edx),%ax
    CLEAR_HASH(s);

    /* Set the default configuration parameters:
     */
    s->max_lazy_match   = configuration_table[s->level].max_lazy;
    s->good_match       = configuration_table[s->level].good_length;
    1140:	89 8b 84 00 00 00    	mov    %ecx,0x84(%ebx)
    s->nice_match       = configuration_table[s->level].nice_length;
    1146:	89 83 88 00 00 00    	mov    %eax,0x88(%ebx)
    s->max_chain_length = configuration_table[s->level].max_chain;
    114c:	31 c0                	xor    %eax,%eax
    114e:	66 8b 42 06          	mov    0x6(%edx),%ax
    s->strstart = 0;
    s->block_start = 0L;
    s->lookahead = 0;
    s->match_length = s->prev_length = MIN_MATCH-1;
    s->match_available = 0;
    s->ins_h = 0;
    1152:	c7 43 40 00 00 00 00 	movl   $0x0,0x40(%ebx)
    /* Set the default configuration parameters:
     */
    s->max_lazy_match   = configuration_table[s->level].max_lazy;
    s->good_match       = configuration_table[s->level].good_length;
    s->nice_match       = configuration_table[s->level].nice_length;
    s->max_chain_length = configuration_table[s->level].max_chain;
    1159:	89 43 74             	mov    %eax,0x74(%ebx)
    s->last_flush = Z_NO_FLUSH;

    _tr_init(s);
    lm_init(s);

    return Z_OK;
    115c:	31 c0                	xor    %eax,%eax
}
    115e:	83 c4 14             	add    $0x14,%esp
    1161:	5b                   	pop    %ebx
    1162:	5f                   	pop    %edi
    1163:	c3                   	ret    
local void lm_init (s)
    deflate_state *s;
{
    s->window_size = (ulg)2L*s->w_size;

    CLEAR_HASH(s);
    1164:	c6 07 00             	movb   $0x0,(%edi)
    1167:	e9 7d ff ff ff       	jmp    10e9 <_deflateReset+0xb9>
    116c:	8d 74 26 00          	lea    0x0(%esi,%eiz,1),%esi
    1170:	66 c7 07 00 00       	movw   $0x0,(%edi)
    1175:	83 c7 02             	add    $0x2,%edi
    1178:	83 e2 01             	and    $0x1,%edx
    117b:	0f 84 68 ff ff ff    	je     10e9 <_deflateReset+0xb9>
    1181:	eb e1                	jmp    1164 <_deflateReset+0x134>
    1183:	f7 c7 01 00 00 00    	test   $0x1,%edi
    1189:	75 27                	jne    11b2 <_deflateReset+0x182>
    118b:	f7 c7 02 00 00 00    	test   $0x2,%edi
    1191:	75 2d                	jne    11c0 <_deflateReset+0x190>
    1193:	89 d1                	mov    %edx,%ecx
    1195:	31 c0                	xor    %eax,%eax
    1197:	c1 e9 02             	shr    $0x2,%ecx
    119a:	f3 ab                	rep stos %eax,%es:(%edi)
    119c:	e9 3a ff ff ff       	jmp    10db <_deflateReset+0xab>
    s = (deflate_state *)strm->state;
    s->pending = 0;
    s->pending_out = s->pending_buf;

    if (s->noheader < 0) {
        s->noheader = 0; /* was set to -1 by deflate(..., Z_FINISH); */
    11a1:	c7 43 18 00 00 00 00 	movl   $0x0,0x18(%ebx)
    }
    s->status = s->noheader ? BUSY_STATE : INIT_STATE;
    11a8:	ba 2a 00 00 00       	mov    $0x2a,%edx
    11ad:	e9 ef fe ff ff       	jmp    10a1 <_deflateReset+0x71>
local void lm_init (s)
    deflate_state *s;
{
    s->window_size = (ulg)2L*s->w_size;

    CLEAR_HASH(s);
    11b2:	c6 07 00             	movb   $0x0,(%edi)
    11b5:	4a                   	dec    %edx
    11b6:	47                   	inc    %edi
    11b7:	eb d2                	jmp    118b <_deflateReset+0x15b>
    11b9:	8d b4 26 00 00 00 00 	lea    0x0(%esi,%eiz,1),%esi
    11c0:	66 c7 07 00 00       	movw   $0x0,(%edi)
    11c5:	83 ea 02             	sub    $0x2,%edx
    11c8:	83 c7 02             	add    $0x2,%edi
    11cb:	eb c6                	jmp    1193 <_deflateReset+0x163>
    11cd:	8d 76 00             	lea    0x0(%esi),%esi
    z_streamp strm;
{
    deflate_state *s;
    
    if (strm == Z_NULL || strm->state == Z_NULL ||
        strm->zalloc == Z_NULL || strm->zfree == Z_NULL) return Z_STREAM_ERROR;
    11d0:	b8 fe ff ff ff       	mov    $0xfffffffe,%eax
    11d5:	eb 87                	jmp    115e <_deflateReset+0x12e>
    11d7:	89 f6                	mov    %esi,%esi
    11d9:	8d bc 27 00 00 00 00 	lea    0x0(%edi,%eiz,1),%edi

000011e0 <_deflate>:

/* ========================================================================= */
int ZEXPORT deflate (strm, flush)
    z_streamp strm;
    int flush;
{
    11e0:	55                   	push   %ebp
    11e1:	57                   	push   %edi
    11e2:	56                   	push   %esi
    11e3:	53                   	push   %ebx
    11e4:	83 ec 2c             	sub    $0x2c,%esp
    11e7:	8b 74 24 40          	mov    0x40(%esp),%esi
    11eb:	8b 7c 24 44          	mov    0x44(%esp),%edi
    int old_flush; /* value of flush param for previous deflate call */
    deflate_state *s;

    if (strm == Z_NULL || strm->state == Z_NULL ||
    11ef:	85 f6                	test   %esi,%esi
    11f1:	0f 84 40 03 00 00    	je     1537 <_deflate+0x357>
    11f7:	8b 5e 1c             	mov    0x1c(%esi),%ebx
    11fa:	85 db                	test   %ebx,%ebx
    11fc:	0f 84 35 03 00 00    	je     1537 <_deflate+0x357>
	flush > Z_FINISH || flush < 0) {
    1202:	83 ff 04             	cmp    $0x4,%edi
    1205:	0f 87 2c 03 00 00    	ja     1537 <_deflate+0x357>
        return Z_STREAM_ERROR;
    }
    s = strm->state;

    if (strm->next_out == Z_NULL ||
    120b:	8b 46 0c             	mov    0xc(%esi),%eax
    120e:	85 c0                	test   %eax,%eax
    1210:	0f 84 ca 02 00 00    	je     14e0 <_deflate+0x300>
    1216:	8b 06                	mov    (%esi),%eax
    1218:	85 c0                	test   %eax,%eax
    121a:	0f 84 b1 02 00 00    	je     14d1 <_deflate+0x2f1>
        (strm->next_in == Z_NULL && strm->avail_in != 0) ||
	(s->status == FINISH_STATE && flush != Z_FINISH)) {
    1220:	83 ff 04             	cmp    $0x4,%edi
    1223:	8b 43 04             	mov    0x4(%ebx),%eax
    1226:	0f 95 44 24 1b       	setne  0x1b(%esp)
    122b:	74 0b                	je     1238 <_deflate+0x58>
    122d:	3d 9a 02 00 00       	cmp    $0x29a,%eax
    1232:	0f 84 a8 02 00 00    	je     14e0 <_deflate+0x300>
        ERR_RETURN(strm, Z_STREAM_ERROR);
    }
    if (strm->avail_out == 0) ERR_RETURN(strm, Z_BUF_ERROR);
    1238:	8b 6e 10             	mov    0x10(%esi),%ebp
    123b:	85 ed                	test   %ebp,%ebp
    123d:	0f 84 5d 02 00 00    	je     14a0 <_deflate+0x2c0>

    s->strm = strm; /* just in case */
    old_flush = s->last_flush;
    1243:	8b 53 20             	mov    0x20(%ebx),%edx
	(s->status == FINISH_STATE && flush != Z_FINISH)) {
        ERR_RETURN(strm, Z_STREAM_ERROR);
    }
    if (strm->avail_out == 0) ERR_RETURN(strm, Z_BUF_ERROR);

    s->strm = strm; /* just in case */
    1246:	89 33                	mov    %esi,(%ebx)
    old_flush = s->last_flush;
    1248:	89 54 24 1c          	mov    %edx,0x1c(%esp)
    s->last_flush = flush;
    124c:	89 7b 20             	mov    %edi,0x20(%ebx)

    /* Write the zlib header */
    if (s->status == INIT_STATE) {
    124f:	83 f8 2a             	cmp    $0x2a,%eax
    1252:	0f 84 60 01 00 00    	je     13b8 <_deflate+0x1d8>
	}
	strm->adler = 1L;
    }

    /* Flush as much pending output as possible */
    if (s->pending != 0) {
    1258:	8b 43 14             	mov    0x14(%ebx),%eax
    125b:	85 c0                	test   %eax,%eax
    125d:	0f 85 2d 01 00 00    	jne    1390 <_deflate+0x1b0>

    /* Make sure there is something to do and avoid duplicate consecutive
     * flushes. For repeated and useless calls with Z_FINISH, we keep
     * returning Z_STREAM_END instead of Z_BUFF_ERROR.
     */
    } else if (strm->avail_in == 0 && flush <= old_flush &&
    1263:	8b 6e 04             	mov    0x4(%esi),%ebp
    1266:	85 ed                	test   %ebp,%ebp
    1268:	0f 84 c7 00 00 00    	je     1335 <_deflate+0x155>
	       flush != Z_FINISH) {
        ERR_RETURN(strm, Z_BUF_ERROR);
    }

    /* User must not provide more input after the first FINISH: */
    if (s->status == FINISH_STATE && strm->avail_in != 0) {
    126e:	81 7b 04 9a 02 00 00 	cmpl   $0x29a,0x4(%ebx)
    1275:	0f 84 25 02 00 00    	je     14a0 <_deflate+0x2c0>
     */
    if (strm->avail_in != 0 || s->lookahead != 0 ||
        (flush != Z_NO_FLUSH && s->status != FINISH_STATE)) {
        block_state bstate;

	bstate = (*(configuration_table[s->level].func))(s, flush);
    127b:	8b 43 7c             	mov    0x7c(%ebx),%eax
    127e:	89 7c 24 04          	mov    %edi,0x4(%esp)
    1282:	89 1c 24             	mov    %ebx,(%esp)
    1285:	8d 04 40             	lea    (%eax,%eax,2),%eax
    1288:	ff 14 85 08 00 00 00 	call   *0x8(,%eax,4)

        if (bstate == finish_started || bstate == finish_done) {
    128f:	8d 50 fe             	lea    -0x2(%eax),%edx
    1292:	83 fa 01             	cmp    $0x1,%edx
    1295:	0f 86 2a 02 00 00    	jbe    14c5 <_deflate+0x2e5>
            s->status = FINISH_STATE;
        }
        if (bstate == need_more || bstate == finish_started) {
    129b:	a9 fd ff ff ff       	test   $0xfffffffd,%eax
    12a0:	0f 84 da 00 00 00    	je     1380 <_deflate+0x1a0>
	     * empty block here, this will be done at next call. This also
	     * ensures that for a very small output buffer, we emit at most
	     * one empty block.
	     */
	}
        if (bstate == block_done) {
    12a6:	48                   	dec    %eax
    12a7:	0f 84 45 02 00 00    	je     14f2 <_deflate+0x312>
	    }
        }
    }
    Assert(strm->avail_out > 0, "bug2");

    if (flush != Z_FINISH) return Z_OK;
    12ad:	80 7c 24 1b 00       	cmpb   $0x0,0x1b(%esp)
    12b2:	0f 85 a8 00 00 00    	jne    1360 <_deflate+0x180>
    if (s->noheader) return Z_STREAM_END;
    12b8:	8b 4b 18             	mov    0x18(%ebx),%ecx
    12bb:	b8 01 00 00 00       	mov    $0x1,%eax
    12c0:	85 c9                	test   %ecx,%ecx
    12c2:	0f 85 9a 00 00 00    	jne    1362 <_deflate+0x182>
 */
local void putShortMSB (s, b)
    deflate_state *s;
    uInt b;
{
    put_byte(s, (Byte)(b >> 8));
    12c8:	8b 53 14             	mov    0x14(%ebx),%edx

    if (flush != Z_FINISH) return Z_OK;
    if (s->noheader) return Z_STREAM_END;

    /* Write the zlib trailer (adler32) */
    putShortMSB(s, (uInt)(strm->adler >> 16));
    12cb:	8b 46 30             	mov    0x30(%esi),%eax
 */
local void putShortMSB (s, b)
    deflate_state *s;
    uInt b;
{
    put_byte(s, (Byte)(b >> 8));
    12ce:	8b 7b 08             	mov    0x8(%ebx),%edi

    if (flush != Z_FINISH) return Z_OK;
    if (s->noheader) return Z_STREAM_END;

    /* Write the zlib trailer (adler32) */
    putShortMSB(s, (uInt)(strm->adler >> 16));
    12d1:	89 c1                	mov    %eax,%ecx
 */
local void putShortMSB (s, b)
    deflate_state *s;
    uInt b;
{
    put_byte(s, (Byte)(b >> 8));
    12d3:	c1 e8 18             	shr    $0x18,%eax
    12d6:	8d 6a 01             	lea    0x1(%edx),%ebp

    if (flush != Z_FINISH) return Z_OK;
    if (s->noheader) return Z_STREAM_END;

    /* Write the zlib trailer (adler32) */
    putShortMSB(s, (uInt)(strm->adler >> 16));
    12d9:	c1 e9 10             	shr    $0x10,%ecx
 */
local void putShortMSB (s, b)
    deflate_state *s;
    uInt b;
{
    put_byte(s, (Byte)(b >> 8));
    12dc:	89 6b 14             	mov    %ebp,0x14(%ebx)
    12df:	88 04 17             	mov    %al,(%edi,%edx,1)
    put_byte(s, (Byte)(b & 0xff));
    12e2:	8b 43 14             	mov    0x14(%ebx),%eax
    12e5:	8b 53 08             	mov    0x8(%ebx),%edx
    12e8:	8d 78 01             	lea    0x1(%eax),%edi
    12eb:	89 7b 14             	mov    %edi,0x14(%ebx)
    12ee:	88 0c 02             	mov    %cl,(%edx,%eax,1)
    if (flush != Z_FINISH) return Z_OK;
    if (s->noheader) return Z_STREAM_END;

    /* Write the zlib trailer (adler32) */
    putShortMSB(s, (uInt)(strm->adler >> 16));
    putShortMSB(s, (uInt)(strm->adler & 0xffff));
    12f1:	31 d2                	xor    %edx,%edx
 */
local void putShortMSB (s, b)
    deflate_state *s;
    uInt b;
{
    put_byte(s, (Byte)(b >> 8));
    12f3:	8b 43 14             	mov    0x14(%ebx),%eax
    if (flush != Z_FINISH) return Z_OK;
    if (s->noheader) return Z_STREAM_END;

    /* Write the zlib trailer (adler32) */
    putShortMSB(s, (uInt)(strm->adler >> 16));
    putShortMSB(s, (uInt)(strm->adler & 0xffff));
    12f6:	66 8b 56 30          	mov    0x30(%esi),%dx
 */
local void putShortMSB (s, b)
    deflate_state *s;
    uInt b;
{
    put_byte(s, (Byte)(b >> 8));
    12fa:	8b 6b 08             	mov    0x8(%ebx),%ebp
    12fd:	89 d1                	mov    %edx,%ecx
    12ff:	8d 78 01             	lea    0x1(%eax),%edi
    1302:	c1 e9 08             	shr    $0x8,%ecx
    1305:	89 7b 14             	mov    %edi,0x14(%ebx)
    1308:	88 4c 05 00          	mov    %cl,0x0(%ebp,%eax,1)
    put_byte(s, (Byte)(b & 0xff));
    130c:	8b 43 14             	mov    0x14(%ebx),%eax
    130f:	8b 4b 08             	mov    0x8(%ebx),%ecx
    1312:	8d 78 01             	lea    0x1(%eax),%edi
    1315:	89 7b 14             	mov    %edi,0x14(%ebx)
    1318:	88 14 01             	mov    %dl,(%ecx,%eax,1)
    if (s->noheader) return Z_STREAM_END;

    /* Write the zlib trailer (adler32) */
    putShortMSB(s, (uInt)(strm->adler >> 16));
    putShortMSB(s, (uInt)(strm->adler & 0xffff));
    flush_pending(strm);
    131b:	89 f0                	mov    %esi,%eax
    131d:	e8 3e f1 ff ff       	call   460 <_flush_pending>
    /* If avail_out is zero, the application will call deflate again
     * to flush the rest.
     */
    s->noheader = -1; /* write the trailer only once! */
    return s->pending != 0 ? Z_OK : Z_STREAM_END;
    1322:	31 c0                	xor    %eax,%eax
    1324:	8b 53 14             	mov    0x14(%ebx),%edx
    putShortMSB(s, (uInt)(strm->adler & 0xffff));
    flush_pending(strm);
    /* If avail_out is zero, the application will call deflate again
     * to flush the rest.
     */
    s->noheader = -1; /* write the trailer only once! */
    1327:	c7 43 18 ff ff ff ff 	movl   $0xffffffff,0x18(%ebx)
    return s->pending != 0 ? Z_OK : Z_STREAM_END;
    132e:	85 d2                	test   %edx,%edx
    1330:	0f 94 c0             	sete   %al
    1333:	eb 2d                	jmp    1362 <_deflate+0x182>

    /* Make sure there is something to do and avoid duplicate consecutive
     * flushes. For repeated and useless calls with Z_FINISH, we keep
     * returning Z_STREAM_END instead of Z_BUFF_ERROR.
     */
    } else if (strm->avail_in == 0 && flush <= old_flush &&
    1335:	3b 7c 24 1c          	cmp    0x1c(%esp),%edi
    1339:	7f 0b                	jg     1346 <_deflate+0x166>
    133b:	80 7c 24 1b 00       	cmpb   $0x0,0x1b(%esp)
    1340:	0f 85 5a 01 00 00    	jne    14a0 <_deflate+0x2c0>
	       flush != Z_FINISH) {
        ERR_RETURN(strm, Z_BUF_ERROR);
    }

    /* User must not provide more input after the first FINISH: */
    if (s->status == FINISH_STATE && strm->avail_in != 0) {
    1346:	8b 43 04             	mov    0x4(%ebx),%eax
        ERR_RETURN(strm, Z_BUF_ERROR);
    }

    /* Start a new block or continue the current one.
     */
    if (strm->avail_in != 0 || s->lookahead != 0 ||
    1349:	8b 6b 6c             	mov    0x6c(%ebx),%ebp
    134c:	85 ed                	test   %ebp,%ebp
    134e:	0f 85 27 ff ff ff    	jne    127b <_deflate+0x9b>
    1354:	85 ff                	test   %edi,%edi
    1356:	0f 85 59 01 00 00    	jne    14b5 <_deflate+0x2d5>
    135c:	8d 74 26 00          	lea    0x0(%esi,%eiz,1),%esi
                }
            }
            flush_pending(strm);
	    if (strm->avail_out == 0) {
	      s->last_flush = -1; /* avoid BUF_ERROR at next call, see above */
	      return Z_OK;
    1360:	31 c0                	xor    %eax,%eax
    /* If avail_out is zero, the application will call deflate again
     * to flush the rest.
     */
    s->noheader = -1; /* write the trailer only once! */
    return s->pending != 0 ? Z_OK : Z_STREAM_END;
}
    1362:	83 c4 2c             	add    $0x2c,%esp
    1365:	5b                   	pop    %ebx
    1366:	5e                   	pop    %esi
    1367:	5f                   	pop    %edi
    1368:	5d                   	pop    %ebp
    1369:	c3                   	ret    
    136a:	8d b6 00 00 00 00    	lea    0x0(%esi),%esi
	     * one empty block.
	     */
	}
        if (bstate == block_done) {
            if (flush == Z_PARTIAL_FLUSH) {
                _tr_align(s);
    1370:	89 1c 24             	mov    %ebx,(%esp)
    1373:	e8 00 00 00 00       	call   1378 <_deflate+0x198>
                 */
                if (flush == Z_FULL_FLUSH) {
                    CLEAR_HASH(s);             /* forget history */
                }
            }
            flush_pending(strm);
    1378:	89 f0                	mov    %esi,%eax
    137a:	e8 e1 f0 ff ff       	call   460 <_flush_pending>
    137f:	90                   	nop
	    if (strm->avail_out == 0) {
    1380:	8b 46 10             	mov    0x10(%esi),%eax
    1383:	85 c0                	test   %eax,%eax
    1385:	75 d9                	jne    1360 <_deflate+0x180>
	      s->last_flush = -1; /* avoid BUF_ERROR at next call, see above */
    1387:	c7 43 20 ff ff ff ff 	movl   $0xffffffff,0x20(%ebx)
    138e:	eb d0                	jmp    1360 <_deflate+0x180>
	strm->adler = 1L;
    }

    /* Flush as much pending output as possible */
    if (s->pending != 0) {
        flush_pending(strm);
    1390:	89 f0                	mov    %esi,%eax
    1392:	e8 c9 f0 ff ff       	call   460 <_flush_pending>
        if (strm->avail_out == 0) {
    1397:	8b 46 10             	mov    0x10(%esi),%eax
    139a:	85 c0                	test   %eax,%eax
    139c:	74 e9                	je     1387 <_deflate+0x1a7>
	       flush != Z_FINISH) {
        ERR_RETURN(strm, Z_BUF_ERROR);
    }

    /* User must not provide more input after the first FINISH: */
    if (s->status == FINISH_STATE && strm->avail_in != 0) {
    139e:	8b 43 04             	mov    0x4(%ebx),%eax
    13a1:	3d 9a 02 00 00       	cmp    $0x29a,%eax
    13a6:	0f 84 e4 00 00 00    	je     1490 <_deflate+0x2b0>
        ERR_RETURN(strm, Z_BUF_ERROR);
    }

    /* Start a new block or continue the current one.
     */
    if (strm->avail_in != 0 || s->lookahead != 0 ||
    13ac:	8b 56 04             	mov    0x4(%esi),%edx
    13af:	85 d2                	test   %edx,%edx
    13b1:	74 96                	je     1349 <_deflate+0x169>
    13b3:	e9 c3 fe ff ff       	jmp    127b <_deflate+0x9b>
    s->last_flush = flush;

    /* Write the zlib header */
    if (s->status == INIT_STATE) {

        uInt header = (Z_DEFLATED + ((s->w_bits-8)<<4)) << 8;
    13b8:	8b 43 28             	mov    0x28(%ebx),%eax
    13bb:	b9 03 00 00 00       	mov    $0x3,%ecx
    13c0:	c1 e0 0c             	shl    $0xc,%eax
        uInt level_flags = (s->level-1) >> 1;

        if (level_flags > 3) level_flags = 3;
        header |= (level_flags << 6);
	if (s->strstart != 0) header |= PRESET_DICT;
        header += 31 - (header % 31);
    13c3:	bd 1f 00 00 00       	mov    $0x1f,%ebp

        s->status = BUSY_STATE;
    13c8:	c7 43 04 71 00 00 00 	movl   $0x71,0x4(%ebx)
    s->last_flush = flush;

    /* Write the zlib header */
    if (s->status == INIT_STATE) {

        uInt header = (Z_DEFLATED + ((s->w_bits-8)<<4)) << 8;
    13cf:	8d 90 00 88 ff ff    	lea    -0x7800(%eax),%edx
        uInt level_flags = (s->level-1) >> 1;
    13d5:	8b 43 7c             	mov    0x7c(%ebx),%eax
    13d8:	48                   	dec    %eax
    13d9:	d1 f8                	sar    %eax
    13db:	83 f8 03             	cmp    $0x3,%eax
    13de:	0f 46 c8             	cmovbe %eax,%ecx

        if (level_flags > 3) level_flags = 3;
        header |= (level_flags << 6);
    13e1:	c1 e1 06             	shl    $0x6,%ecx
    13e4:	09 d1                	or     %edx,%ecx
	if (s->strstart != 0) header |= PRESET_DICT;
    13e6:	8b 53 64             	mov    0x64(%ebx),%edx
    13e9:	89 c8                	mov    %ecx,%eax
    13eb:	83 c8 20             	or     $0x20,%eax
    13ee:	85 d2                	test   %edx,%edx
    13f0:	0f 45 c8             	cmovne %eax,%ecx
        header += 31 - (header % 31);
    13f3:	89 c8                	mov    %ecx,%eax
    13f5:	31 d2                	xor    %edx,%edx
    13f7:	f7 f5                	div    %ebp
 */
local void putShortMSB (s, b)
    deflate_state *s;
    uInt b;
{
    put_byte(s, (Byte)(b >> 8));
    13f9:	8b 43 14             	mov    0x14(%ebx),%eax
    13fc:	83 c1 1f             	add    $0x1f,%ecx
        uInt level_flags = (s->level-1) >> 1;

        if (level_flags > 3) level_flags = 3;
        header |= (level_flags << 6);
	if (s->strstart != 0) header |= PRESET_DICT;
        header += 31 - (header % 31);
    13ff:	29 d1                	sub    %edx,%ecx
 */
local void putShortMSB (s, b)
    deflate_state *s;
    uInt b;
{
    put_byte(s, (Byte)(b >> 8));
    1401:	8b 6b 08             	mov    0x8(%ebx),%ebp
    1404:	8d 50 01             	lea    0x1(%eax),%edx
    1407:	89 53 14             	mov    %edx,0x14(%ebx)
    140a:	89 ca                	mov    %ecx,%edx
    140c:	c1 ea 08             	shr    $0x8,%edx
    140f:	88 54 05 00          	mov    %dl,0x0(%ebp,%eax,1)
    put_byte(s, (Byte)(b & 0xff));
    1413:	8b 43 14             	mov    0x14(%ebx),%eax
    1416:	8b 53 08             	mov    0x8(%ebx),%edx
    1419:	8d 68 01             	lea    0x1(%eax),%ebp
    141c:	89 6b 14             	mov    %ebp,0x14(%ebx)
    141f:	88 0c 02             	mov    %cl,(%edx,%eax,1)

        s->status = BUSY_STATE;
        putShortMSB(s, header);

	/* Save the adler32 of the preset dictionary: */
	if (s->strstart != 0) {
    1422:	8b 4b 64             	mov    0x64(%ebx),%ecx
    1425:	85 c9                	test   %ecx,%ecx
    1427:	74 56                	je     147f <_deflate+0x29f>
 */
local void putShortMSB (s, b)
    deflate_state *s;
    uInt b;
{
    put_byte(s, (Byte)(b >> 8));
    1429:	8b 53 14             	mov    0x14(%ebx),%edx
        s->status = BUSY_STATE;
        putShortMSB(s, header);

	/* Save the adler32 of the preset dictionary: */
	if (s->strstart != 0) {
	    putShortMSB(s, (uInt)(strm->adler >> 16));
    142c:	8b 46 30             	mov    0x30(%esi),%eax
    142f:	89 c5                	mov    %eax,%ebp
 */
local void putShortMSB (s, b)
    deflate_state *s;
    uInt b;
{
    put_byte(s, (Byte)(b >> 8));
    1431:	c1 e8 18             	shr    $0x18,%eax
    1434:	8d 4a 01             	lea    0x1(%edx),%ecx
        s->status = BUSY_STATE;
        putShortMSB(s, header);

	/* Save the adler32 of the preset dictionary: */
	if (s->strstart != 0) {
	    putShortMSB(s, (uInt)(strm->adler >> 16));
    1437:	c1 ed 10             	shr    $0x10,%ebp
 */
local void putShortMSB (s, b)
    deflate_state *s;
    uInt b;
{
    put_byte(s, (Byte)(b >> 8));
    143a:	89 4b 14             	mov    %ecx,0x14(%ebx)
    143d:	8b 4b 08             	mov    0x8(%ebx),%ecx
    1440:	88 04 11             	mov    %al,(%ecx,%edx,1)
    put_byte(s, (Byte)(b & 0xff));
    1443:	8b 43 14             	mov    0x14(%ebx),%eax
    1446:	8b 53 08             	mov    0x8(%ebx),%edx
    1449:	8d 48 01             	lea    0x1(%eax),%ecx
    144c:	89 4b 14             	mov    %ecx,0x14(%ebx)
    144f:	89 e9                	mov    %ebp,%ecx
    1451:	88 0c 02             	mov    %cl,(%edx,%eax,1)
        putShortMSB(s, header);

	/* Save the adler32 of the preset dictionary: */
	if (s->strstart != 0) {
	    putShortMSB(s, (uInt)(strm->adler >> 16));
	    putShortMSB(s, (uInt)(strm->adler & 0xffff));
    1454:	31 ed                	xor    %ebp,%ebp
 */
local void putShortMSB (s, b)
    deflate_state *s;
    uInt b;
{
    put_byte(s, (Byte)(b >> 8));
    1456:	8b 43 14             	mov    0x14(%ebx),%eax
        putShortMSB(s, header);

	/* Save the adler32 of the preset dictionary: */
	if (s->strstart != 0) {
	    putShortMSB(s, (uInt)(strm->adler >> 16));
	    putShortMSB(s, (uInt)(strm->adler & 0xffff));
    1459:	66 8b 6e 30          	mov    0x30(%esi),%bp
 */
local void putShortMSB (s, b)
    deflate_state *s;
    uInt b;
{
    put_byte(s, (Byte)(b >> 8));
    145d:	8b 4b 08             	mov    0x8(%ebx),%ecx
    1460:	8d 50 01             	lea    0x1(%eax),%edx
    1463:	89 53 14             	mov    %edx,0x14(%ebx)
    1466:	89 ea                	mov    %ebp,%edx
    1468:	c1 ea 08             	shr    $0x8,%edx
    146b:	88 14 01             	mov    %dl,(%ecx,%eax,1)
    put_byte(s, (Byte)(b & 0xff));
    146e:	8b 43 14             	mov    0x14(%ebx),%eax
    1471:	8b 53 08             	mov    0x8(%ebx),%edx
    1474:	8d 48 01             	lea    0x1(%eax),%ecx
    1477:	89 4b 14             	mov    %ecx,0x14(%ebx)
    147a:	89 e9                	mov    %ebp,%ecx
    147c:	88 0c 02             	mov    %cl,(%edx,%eax,1)
	/* Save the adler32 of the preset dictionary: */
	if (s->strstart != 0) {
	    putShortMSB(s, (uInt)(strm->adler >> 16));
	    putShortMSB(s, (uInt)(strm->adler & 0xffff));
	}
	strm->adler = 1L;
    147f:	c7 46 30 01 00 00 00 	movl   $0x1,0x30(%esi)
    1486:	e9 cd fd ff ff       	jmp    1258 <_deflate+0x78>
    148b:	90                   	nop
    148c:	8d 74 26 00          	lea    0x0(%esi,%eiz,1),%esi
	       flush != Z_FINISH) {
        ERR_RETURN(strm, Z_BUF_ERROR);
    }

    /* User must not provide more input after the first FINISH: */
    if (s->status == FINISH_STATE && strm->avail_in != 0) {
    1490:	8b 4e 04             	mov    0x4(%esi),%ecx
    1493:	85 c9                	test   %ecx,%ecx
    1495:	0f 84 ae fe ff ff    	je     1349 <_deflate+0x169>
    149b:	90                   	nop
    149c:	8d 74 26 00          	lea    0x0(%esi,%eiz,1),%esi
        ERR_RETURN(strm, Z_BUF_ERROR);
    14a0:	a1 1c 00 00 00       	mov    0x1c,%eax
    14a5:	89 46 18             	mov    %eax,0x18(%esi)
    /* If avail_out is zero, the application will call deflate again
     * to flush the rest.
     */
    s->noheader = -1; /* write the trailer only once! */
    return s->pending != 0 ? Z_OK : Z_STREAM_END;
}
    14a8:	83 c4 2c             	add    $0x2c,%esp
        ERR_RETURN(strm, Z_BUF_ERROR);
    }

    /* User must not provide more input after the first FINISH: */
    if (s->status == FINISH_STATE && strm->avail_in != 0) {
        ERR_RETURN(strm, Z_BUF_ERROR);
    14ab:	b8 fb ff ff ff       	mov    $0xfffffffb,%eax
    /* If avail_out is zero, the application will call deflate again
     * to flush the rest.
     */
    s->noheader = -1; /* write the trailer only once! */
    return s->pending != 0 ? Z_OK : Z_STREAM_END;
}
    14b0:	5b                   	pop    %ebx
    14b1:	5e                   	pop    %esi
    14b2:	5f                   	pop    %edi
    14b3:	5d                   	pop    %ebp
    14b4:	c3                   	ret    
    }

    /* Start a new block or continue the current one.
     */
    if (strm->avail_in != 0 || s->lookahead != 0 ||
        (flush != Z_NO_FLUSH && s->status != FINISH_STATE)) {
    14b5:	3d 9a 02 00 00       	cmp    $0x29a,%eax
    14ba:	0f 85 bb fd ff ff    	jne    127b <_deflate+0x9b>
    14c0:	e9 e8 fd ff ff       	jmp    12ad <_deflate+0xcd>
        block_state bstate;

	bstate = (*(configuration_table[s->level].func))(s, flush);

        if (bstate == finish_started || bstate == finish_done) {
            s->status = FINISH_STATE;
    14c5:	c7 43 04 9a 02 00 00 	movl   $0x29a,0x4(%ebx)
    14cc:	e9 ca fd ff ff       	jmp    129b <_deflate+0xbb>
        return Z_STREAM_ERROR;
    }
    s = strm->state;

    if (strm->next_out == Z_NULL ||
        (strm->next_in == Z_NULL && strm->avail_in != 0) ||
    14d1:	8b 46 04             	mov    0x4(%esi),%eax
    14d4:	85 c0                	test   %eax,%eax
    14d6:	0f 84 44 fd ff ff    	je     1220 <_deflate+0x40>
    14dc:	8d 74 26 00          	lea    0x0(%esi,%eiz,1),%esi
	(s->status == FINISH_STATE && flush != Z_FINISH)) {
        ERR_RETURN(strm, Z_STREAM_ERROR);
    14e0:	a1 10 00 00 00       	mov    0x10,%eax
    14e5:	89 46 18             	mov    %eax,0x18(%esi)
    14e8:	b8 fe ff ff ff       	mov    $0xfffffffe,%eax
    14ed:	e9 70 fe ff ff       	jmp    1362 <_deflate+0x182>
	     * ensures that for a very small output buffer, we emit at most
	     * one empty block.
	     */
	}
        if (bstate == block_done) {
            if (flush == Z_PARTIAL_FLUSH) {
    14f2:	83 ff 01             	cmp    $0x1,%edi
    14f5:	0f 84 75 fe ff ff    	je     1370 <_deflate+0x190>
                _tr_align(s);
            } else { /* FULL_FLUSH or SYNC_FLUSH */
                _tr_stored_block(s, (char*)0, 0L, 0);
    14fb:	c7 44 24 0c 00 00 00 	movl   $0x0,0xc(%esp)
    1502:	00 
    1503:	c7 44 24 08 00 00 00 	movl   $0x0,0x8(%esp)
    150a:	00 
    150b:	c7 44 24 04 00 00 00 	movl   $0x0,0x4(%esp)
    1512:	00 
    1513:	89 1c 24             	mov    %ebx,(%esp)
    1516:	e8 00 00 00 00       	call   151b <_deflate+0x33b>
                /* For a full flush, this empty block will be recognized
                 * as a special marker by inflate_sync().
                 */
                if (flush == Z_FULL_FLUSH) {
    151b:	83 ff 03             	cmp    $0x3,%edi
    151e:	74 21                	je     1541 <_deflate+0x361>
                    CLEAR_HASH(s);             /* forget history */
                }
            }
            flush_pending(strm);
    1520:	89 f0                	mov    %esi,%eax
    1522:	e8 39 ef ff ff       	call   460 <_flush_pending>
	    if (strm->avail_out == 0) {
    1527:	8b 7e 10             	mov    0x10(%esi),%edi
    152a:	85 ff                	test   %edi,%edi
    152c:	0f 85 7b fd ff ff    	jne    12ad <_deflate+0xcd>
    1532:	e9 50 fe ff ff       	jmp    1387 <_deflate+0x1a7>
    int old_flush; /* value of flush param for previous deflate call */
    deflate_state *s;

    if (strm == Z_NULL || strm->state == Z_NULL ||
	flush > Z_FINISH || flush < 0) {
        return Z_STREAM_ERROR;
    1537:	b8 fe ff ff ff       	mov    $0xfffffffe,%eax
    153c:	e9 21 fe ff ff       	jmp    1362 <_deflate+0x182>
                _tr_stored_block(s, (char*)0, 0L, 0);
                /* For a full flush, this empty block will be recognized
                 * as a special marker by inflate_sync().
                 */
                if (flush == Z_FULL_FLUSH) {
                    CLEAR_HASH(s);             /* forget history */
    1541:	8b 43 44             	mov    0x44(%ebx),%eax
    1544:	8b 7b 3c             	mov    0x3c(%ebx),%edi
    1547:	8d 54 00 fe          	lea    -0x2(%eax,%eax,1),%edx
    154b:	83 fa 04             	cmp    $0x4,%edx
    154e:	66 c7 04 17 00 00    	movw   $0x0,(%edi,%edx,1)
    1554:	73 1e                	jae    1574 <_deflate+0x394>
    1556:	f6 c2 02             	test   $0x2,%dl
    1559:	74 08                	je     1563 <_deflate+0x383>
    155b:	66 c7 07 00 00       	movw   $0x0,(%edi)
    1560:	83 c7 02             	add    $0x2,%edi
    1563:	83 e2 01             	and    $0x1,%edx
    1566:	0f 84 0c fe ff ff    	je     1378 <_deflate+0x198>
    156c:	c6 07 00             	movb   $0x0,(%edi)
    156f:	e9 04 fe ff ff       	jmp    1378 <_deflate+0x198>
    1574:	f7 c7 01 00 00 00    	test   $0x1,%edi
    157a:	75 13                	jne    158f <_deflate+0x3af>
    157c:	f7 c7 02 00 00 00    	test   $0x2,%edi
    1582:	75 12                	jne    1596 <_deflate+0x3b6>
    1584:	89 d1                	mov    %edx,%ecx
    1586:	31 c0                	xor    %eax,%eax
    1588:	c1 e9 02             	shr    $0x2,%ecx
    158b:	f3 ab                	rep stos %eax,%es:(%edi)
    158d:	eb c7                	jmp    1556 <_deflate+0x376>
    158f:	c6 07 00             	movb   $0x0,(%edi)
    1592:	4a                   	dec    %edx
    1593:	47                   	inc    %edi
    1594:	eb e6                	jmp    157c <_deflate+0x39c>
    1596:	66 c7 07 00 00       	movw   $0x0,(%edi)
    159b:	83 ea 02             	sub    $0x2,%edx
    159e:	83 c7 02             	add    $0x2,%edi
    15a1:	eb e1                	jmp    1584 <_deflate+0x3a4>
    15a3:	8d b6 00 00 00 00    	lea    0x0(%esi),%esi
    15a9:	8d bc 27 00 00 00 00 	lea    0x0(%edi,%eiz,1),%edi

000015b0 <_deflateParams>:
/* ========================================================================= */
int ZEXPORT deflateParams(strm, level, strategy)
    z_streamp strm;
    int level;
    int strategy;
{
    15b0:	55                   	push   %ebp
    15b1:	57                   	push   %edi
    15b2:	56                   	push   %esi
    15b3:	53                   	push   %ebx
    15b4:	83 ec 1c             	sub    $0x1c,%esp
    15b7:	8b 54 24 30          	mov    0x30(%esp),%edx
    15bb:	8b 5c 24 34          	mov    0x34(%esp),%ebx
    15bf:	8b 7c 24 38          	mov    0x38(%esp),%edi
    deflate_state *s;
    compress_func func;
    int err = Z_OK;

    if (strm == Z_NULL || strm->state == Z_NULL) return Z_STREAM_ERROR;
    15c3:	85 d2                	test   %edx,%edx
    15c5:	0f 84 ca 00 00 00    	je     1695 <_deflateParams+0xe5>
    15cb:	8b 72 1c             	mov    0x1c(%edx),%esi
    15ce:	85 f6                	test   %esi,%esi
    15d0:	0f 84 bf 00 00 00    	je     1695 <_deflateParams+0xe5>
    s = strm->state;

    if (level == Z_DEFAULT_COMPRESSION) {
    15d6:	83 fb ff             	cmp    $0xffffffff,%ebx
    15d9:	0f 84 91 00 00 00    	je     1670 <_deflateParams+0xc0>
	level = 6;
    }
    if (level < 0 || level > 9 || strategy < 0 || strategy > Z_HUFFMAN_ONLY) {
    15df:	83 fb 09             	cmp    $0x9,%ebx
    15e2:	0f 87 ad 00 00 00    	ja     1695 <_deflateParams+0xe5>
    15e8:	83 ff 02             	cmp    $0x2,%edi
    15eb:	0f 87 a4 00 00 00    	ja     1695 <_deflateParams+0xe5>
	return Z_STREAM_ERROR;
    }
    func = configuration_table[s->level].func;
    15f1:	8b 4e 7c             	mov    0x7c(%esi),%ecx

    if (func != configuration_table[level].func && strm->total_in != 0) {
    15f4:	8d 04 5b             	lea    (%ebx,%ebx,2),%eax
	level = 6;
    }
    if (level < 0 || level > 9 || strategy < 0 || strategy > Z_HUFFMAN_ONLY) {
	return Z_STREAM_ERROR;
    }
    func = configuration_table[s->level].func;
    15f7:	8d 2c 49             	lea    (%ecx,%ecx,2),%ebp

    if (func != configuration_table[level].func && strm->total_in != 0) {
    15fa:	8b 2c ad 08 00 00 00 	mov    0x8(,%ebp,4),%ebp
    1601:	39 2c 85 08 00 00 00 	cmp    %ebp,0x8(,%eax,4)
    int level;
    int strategy;
{
    deflate_state *s;
    compress_func func;
    int err = Z_OK;
    1608:	b8 00 00 00 00       	mov    $0x0,%eax
    if (level < 0 || level > 9 || strategy < 0 || strategy > Z_HUFFMAN_ONLY) {
	return Z_STREAM_ERROR;
    }
    func = configuration_table[s->level].func;

    if (func != configuration_table[level].func && strm->total_in != 0) {
    160d:	74 07                	je     1616 <_deflateParams+0x66>
    160f:	8b 6a 08             	mov    0x8(%edx),%ebp
    1612:	85 ed                	test   %ebp,%ebp
    1614:	75 6a                	jne    1680 <_deflateParams+0xd0>
	/* Flush the last buffer: */
	err = deflate(strm, Z_PARTIAL_FLUSH);
    }
    if (s->level != level) {
    1616:	39 cb                	cmp    %ecx,%ebx
    1618:	74 42                	je     165c <_deflateParams+0xac>
	s->level = level;
	s->max_lazy_match   = configuration_table[level].max_lazy;
    161a:	8d 14 5b             	lea    (%ebx,%ebx,2),%edx
    if (func != configuration_table[level].func && strm->total_in != 0) {
	/* Flush the last buffer: */
	err = deflate(strm, Z_PARTIAL_FLUSH);
    }
    if (s->level != level) {
	s->level = level;
    161d:	89 5e 7c             	mov    %ebx,0x7c(%esi)
	s->max_lazy_match   = configuration_table[level].max_lazy;
    1620:	c1 e2 02             	shl    $0x2,%edx
    1623:	31 db                	xor    %ebx,%ebx
    1625:	8d 8a 00 00 00 00    	lea    0x0(%edx),%ecx
    162b:	66 8b 9a 02 00 00 00 	mov    0x2(%edx),%bx
    1632:	89 5e 78             	mov    %ebx,0x78(%esi)
	s->good_match       = configuration_table[level].good_length;
    1635:	8b 9a 00 00 00 00    	mov    0x0(%edx),%ebx
	s->nice_match       = configuration_table[level].nice_length;
    163b:	31 d2                	xor    %edx,%edx
	err = deflate(strm, Z_PARTIAL_FLUSH);
    }
    if (s->level != level) {
	s->level = level;
	s->max_lazy_match   = configuration_table[level].max_lazy;
	s->good_match       = configuration_table[level].good_length;
    163d:	81 e3 ff ff 00 00    	and    $0xffff,%ebx
	s->nice_match       = configuration_table[level].nice_length;
    1643:	66 8b 51 04          	mov    0x4(%ecx),%dx
	err = deflate(strm, Z_PARTIAL_FLUSH);
    }
    if (s->level != level) {
	s->level = level;
	s->max_lazy_match   = configuration_table[level].max_lazy;
	s->good_match       = configuration_table[level].good_length;
    1647:	89 9e 84 00 00 00    	mov    %ebx,0x84(%esi)
	s->nice_match       = configuration_table[level].nice_length;
    164d:	89 96 88 00 00 00    	mov    %edx,0x88(%esi)
	s->max_chain_length = configuration_table[level].max_chain;
    1653:	31 d2                	xor    %edx,%edx
    1655:	66 8b 51 06          	mov    0x6(%ecx),%dx
    1659:	89 56 74             	mov    %edx,0x74(%esi)
    }
    s->strategy = strategy;
    165c:	89 be 80 00 00 00    	mov    %edi,0x80(%esi)
    return err;
}
    1662:	83 c4 1c             	add    $0x1c,%esp
    1665:	5b                   	pop    %ebx
    1666:	5e                   	pop    %esi
    1667:	5f                   	pop    %edi
    1668:	5d                   	pop    %ebp
    1669:	c3                   	ret    
    166a:	8d b6 00 00 00 00    	lea    0x0(%esi),%esi

    if (strm == Z_NULL || strm->state == Z_NULL) return Z_STREAM_ERROR;
    s = strm->state;

    if (level == Z_DEFAULT_COMPRESSION) {
	level = 6;
    1670:	bb 06 00 00 00       	mov    $0x6,%ebx
    1675:	e9 6e ff ff ff       	jmp    15e8 <_deflateParams+0x38>
    167a:	8d b6 00 00 00 00    	lea    0x0(%esi),%esi
    }
    func = configuration_table[s->level].func;

    if (func != configuration_table[level].func && strm->total_in != 0) {
	/* Flush the last buffer: */
	err = deflate(strm, Z_PARTIAL_FLUSH);
    1680:	c7 44 24 04 01 00 00 	movl   $0x1,0x4(%esp)
    1687:	00 
    1688:	89 14 24             	mov    %edx,(%esp)
    168b:	e8 50 fb ff ff       	call   11e0 <_deflate>
    1690:	8b 4e 7c             	mov    0x7c(%esi),%ecx
    1693:	eb 81                	jmp    1616 <_deflateParams+0x66>
{
    deflate_state *s;
    compress_func func;
    int err = Z_OK;

    if (strm == Z_NULL || strm->state == Z_NULL) return Z_STREAM_ERROR;
    1695:	b8 fe ff ff ff       	mov    $0xfffffffe,%eax
    169a:	eb c6                	jmp    1662 <_deflateParams+0xb2>
    169c:	8d 74 26 00          	lea    0x0(%esi,%eiz,1),%esi

000016a0 <_deflateEnd>:
}

/* ========================================================================= */
int ZEXPORT deflateEnd (strm)
    z_streamp strm;
{
    16a0:	56                   	push   %esi
    16a1:	53                   	push   %ebx
    16a2:	83 ec 14             	sub    $0x14,%esp
    16a5:	8b 5c 24 20          	mov    0x20(%esp),%ebx
    int status;

    if (strm == Z_NULL || strm->state == Z_NULL) return Z_STREAM_ERROR;
    16a9:	85 db                	test   %ebx,%ebx
    16ab:	0f 84 af 00 00 00    	je     1760 <_deflateEnd+0xc0>
    16b1:	8b 4b 1c             	mov    0x1c(%ebx),%ecx
    16b4:	85 c9                	test   %ecx,%ecx
    16b6:	0f 84 a4 00 00 00    	je     1760 <_deflateEnd+0xc0>

    status = strm->state->status;
    16bc:	8b 71 04             	mov    0x4(%ecx),%esi
    if (status != INIT_STATE && status != BUSY_STATE &&
    16bf:	83 fe 71             	cmp    $0x71,%esi
    16c2:	0f 95 c2             	setne  %dl
    16c5:	83 fe 2a             	cmp    $0x2a,%esi
    16c8:	0f 95 c0             	setne  %al
    16cb:	84 c2                	test   %al,%dl
    16cd:	74 0c                	je     16db <_deflateEnd+0x3b>
    16cf:	81 fe 9a 02 00 00    	cmp    $0x29a,%esi
    16d5:	0f 85 85 00 00 00    	jne    1760 <_deflateEnd+0xc0>
	status != FINISH_STATE) {
      return Z_STREAM_ERROR;
    }

    /* Deallocate in reverse order of allocations: */
    TRY_FREE(strm, strm->state->pending_buf);
    16db:	8b 41 08             	mov    0x8(%ecx),%eax
    16de:	85 c0                	test   %eax,%eax
    16e0:	74 10                	je     16f2 <_deflateEnd+0x52>
    16e2:	89 44 24 04          	mov    %eax,0x4(%esp)
    16e6:	8b 43 28             	mov    0x28(%ebx),%eax
    16e9:	89 04 24             	mov    %eax,(%esp)
    16ec:	ff 53 24             	call   *0x24(%ebx)
    16ef:	8b 4b 1c             	mov    0x1c(%ebx),%ecx
    TRY_FREE(strm, strm->state->head);
    16f2:	8b 41 3c             	mov    0x3c(%ecx),%eax
    16f5:	85 c0                	test   %eax,%eax
    16f7:	74 10                	je     1709 <_deflateEnd+0x69>
    16f9:	89 44 24 04          	mov    %eax,0x4(%esp)
    16fd:	8b 43 28             	mov    0x28(%ebx),%eax
    1700:	89 04 24             	mov    %eax,(%esp)
    1703:	ff 53 24             	call   *0x24(%ebx)
    1706:	8b 4b 1c             	mov    0x1c(%ebx),%ecx
    TRY_FREE(strm, strm->state->prev);
    1709:	8b 41 38             	mov    0x38(%ecx),%eax
    170c:	85 c0                	test   %eax,%eax
    170e:	74 10                	je     1720 <_deflateEnd+0x80>
    1710:	89 44 24 04          	mov    %eax,0x4(%esp)
    1714:	8b 43 28             	mov    0x28(%ebx),%eax
    1717:	89 04 24             	mov    %eax,(%esp)
    171a:	ff 53 24             	call   *0x24(%ebx)
    171d:	8b 4b 1c             	mov    0x1c(%ebx),%ecx
    TRY_FREE(strm, strm->state->window);
    1720:	8b 41 30             	mov    0x30(%ecx),%eax
    1723:	85 c0                	test   %eax,%eax
    1725:	74 10                	je     1737 <_deflateEnd+0x97>
    1727:	89 44 24 04          	mov    %eax,0x4(%esp)
    172b:	8b 43 28             	mov    0x28(%ebx),%eax
    172e:	89 04 24             	mov    %eax,(%esp)
    1731:	ff 53 24             	call   *0x24(%ebx)
    1734:	8b 4b 1c             	mov    0x1c(%ebx),%ecx

    ZFREE(strm, strm->state);
    1737:	89 4c 24 04          	mov    %ecx,0x4(%esp)
    173b:	8b 43 28             	mov    0x28(%ebx),%eax
    173e:	89 04 24             	mov    %eax,(%esp)
    1741:	ff 53 24             	call   *0x24(%ebx)
    strm->state = Z_NULL;

    return status == BUSY_STATE ? Z_DATA_ERROR : Z_OK;
    1744:	31 c0                	xor    %eax,%eax
    TRY_FREE(strm, strm->state->head);
    TRY_FREE(strm, strm->state->prev);
    TRY_FREE(strm, strm->state->window);

    ZFREE(strm, strm->state);
    strm->state = Z_NULL;
    1746:	c7 43 1c 00 00 00 00 	movl   $0x0,0x1c(%ebx)

    return status == BUSY_STATE ? Z_DATA_ERROR : Z_OK;
    174d:	83 fe 71             	cmp    $0x71,%esi
    1750:	0f 95 c0             	setne  %al
}
    1753:	83 c4 14             	add    $0x14,%esp
    TRY_FREE(strm, strm->state->window);

    ZFREE(strm, strm->state);
    strm->state = Z_NULL;

    return status == BUSY_STATE ? Z_DATA_ERROR : Z_OK;
    1756:	8d 44 40 fd          	lea    -0x3(%eax,%eax,2),%eax
}
    175a:	5b                   	pop    %ebx
    175b:	5e                   	pop    %esi
    175c:	c3                   	ret    
    175d:	8d 76 00             	lea    0x0(%esi),%esi
    1760:	83 c4 14             	add    $0x14,%esp
int ZEXPORT deflateEnd (strm)
    z_streamp strm;
{
    int status;

    if (strm == Z_NULL || strm->state == Z_NULL) return Z_STREAM_ERROR;
    1763:	b8 fe ff ff ff       	mov    $0xfffffffe,%eax

    ZFREE(strm, strm->state);
    strm->state = Z_NULL;

    return status == BUSY_STATE ? Z_DATA_ERROR : Z_OK;
}
    1768:	5b                   	pop    %ebx
    1769:	5e                   	pop    %esi
    176a:	c3                   	ret    
    176b:	90                   	nop
    176c:	8d 74 26 00          	lea    0x0(%esi,%eiz,1),%esi

00001770 <_deflateInit2_>:
    int  windowBits;
    int  memLevel;
    int  strategy;
    const char *version;
    int stream_size;
{
    1770:	55                   	push   %ebp
    1771:	57                   	push   %edi
    1772:	56                   	push   %esi
    1773:	53                   	push   %ebx
    1774:	83 ec 2c             	sub    $0x2c,%esp
    1777:	8b 44 24 54          	mov    0x54(%esp),%eax
    177b:	8b 74 24 40          	mov    0x40(%esp),%esi
    177f:	89 44 24 14          	mov    %eax,0x14(%esp)
    1783:	8b 44 24 58          	mov    0x58(%esp),%eax
    1787:	8b 6c 24 44          	mov    0x44(%esp),%ebp
    178b:	8b 5c 24 48          	mov    0x48(%esp),%ebx
    178f:	8b 4c 24 4c          	mov    0x4c(%esp),%ecx
    1793:	8b 7c 24 50          	mov    0x50(%esp),%edi
    1797:	8b 54 24 5c          	mov    0x5c(%esp),%edx
    ushf *overlay;
    /* We overlay pending_buf and d_buf+l_buf. This works since the average
     * output size for (length,distance) codes is <= 24 bits.
     */

    if (version == Z_NULL || version[0] != my_version[0] ||
    179b:	85 c0                	test   %eax,%eax
    179d:	0f 84 2d 02 00 00    	je     19d0 <_deflateInit2_+0x260>
    17a3:	80 38 31             	cmpb   $0x31,(%eax)
    17a6:	0f 85 24 02 00 00    	jne    19d0 <_deflateInit2_+0x260>
    17ac:	83 fa 38             	cmp    $0x38,%edx
    17af:	0f 85 1b 02 00 00    	jne    19d0 <_deflateInit2_+0x260>
        stream_size != sizeof(z_stream)) {
	return Z_VERSION_ERROR;
    }
    if (strm == Z_NULL) return Z_STREAM_ERROR;
    17b5:	85 f6                	test   %esi,%esi
    17b7:	0f 84 d3 01 00 00    	je     1990 <_deflateInit2_+0x220>

    strm->msg = Z_NULL;
    if (strm->zalloc == Z_NULL) {
    17bd:	8b 46 20             	mov    0x20(%esi),%eax
        stream_size != sizeof(z_stream)) {
	return Z_VERSION_ERROR;
    }
    if (strm == Z_NULL) return Z_STREAM_ERROR;

    strm->msg = Z_NULL;
    17c0:	c7 46 18 00 00 00 00 	movl   $0x0,0x18(%esi)
    if (strm->zalloc == Z_NULL) {
    17c7:	85 c0                	test   %eax,%eax
    17c9:	0f 84 d1 01 00 00    	je     19a0 <_deflateInit2_+0x230>
	strm->zalloc = zcalloc;
	strm->opaque = (voidpf)0;
    }
    if (strm->zfree == Z_NULL) strm->zfree = zcfree;
    17cf:	8b 46 24             	mov    0x24(%esi),%eax
    17d2:	85 c0                	test   %eax,%eax
    17d4:	0f 84 e6 01 00 00    	je     19c0 <_deflateInit2_+0x250>

    if (level == Z_DEFAULT_COMPRESSION) level = 6;
    17da:	b8 06 00 00 00       	mov    $0x6,%eax
    17df:	83 fd ff             	cmp    $0xffffffff,%ebp
    17e2:	0f 44 e8             	cmove  %eax,%ebp
    int  strategy;
    const char *version;
    int stream_size;
{
    deflate_state *s;
    int noheader = 0;
    17e5:	31 d2                	xor    %edx,%edx
    if (level == Z_DEFAULT_COMPRESSION) level = 6;
#ifdef FASTEST
    level = 1;
#endif

    if (windowBits < 0) { /* undocumented feature: suppress zlib header */
    17e7:	85 c9                	test   %ecx,%ecx
    17e9:	0f 88 96 01 00 00    	js     1985 <_deflateInit2_+0x215>
        noheader = 1;
        windowBits = -windowBits;
    }
    if (memLevel < 1 || memLevel > MAX_MEM_LEVEL || method != Z_DEFLATED ||
    17ef:	8d 47 ff             	lea    -0x1(%edi),%eax
    17f2:	89 54 24 18          	mov    %edx,0x18(%esp)
    17f6:	83 f8 08             	cmp    $0x8,%eax
    17f9:	0f 87 91 01 00 00    	ja     1990 <_deflateInit2_+0x220>
    17ff:	83 fb 08             	cmp    $0x8,%ebx
    1802:	0f 85 88 01 00 00    	jne    1990 <_deflateInit2_+0x220>
        windowBits < 8 || windowBits > 15 || level < 0 || level > 9 ||
    1808:	8d 41 f8             	lea    -0x8(%ecx),%eax
    180b:	89 4c 24 1c          	mov    %ecx,0x1c(%esp)

    if (windowBits < 0) { /* undocumented feature: suppress zlib header */
        noheader = 1;
        windowBits = -windowBits;
    }
    if (memLevel < 1 || memLevel > MAX_MEM_LEVEL || method != Z_DEFLATED ||
    180f:	83 f8 07             	cmp    $0x7,%eax
    1812:	0f 87 78 01 00 00    	ja     1990 <_deflateInit2_+0x220>
        windowBits < 8 || windowBits > 15 || level < 0 || level > 9 ||
	strategy < 0 || strategy > Z_HUFFMAN_ONLY) {
    1818:	83 fd 09             	cmp    $0x9,%ebp
    181b:	0f 87 6f 01 00 00    	ja     1990 <_deflateInit2_+0x220>
    1821:	83 7c 24 14 02       	cmpl   $0x2,0x14(%esp)
    1826:	0f 87 64 01 00 00    	ja     1990 <_deflateInit2_+0x220>
        return Z_STREAM_ERROR;
    }
    s = (deflate_state *) ZALLOC(strm, 1, sizeof(deflate_state));
    182c:	c7 44 24 08 b8 16 00 	movl   $0x16b8,0x8(%esp)
    1833:	00 
    1834:	c7 44 24 04 01 00 00 	movl   $0x1,0x4(%esp)
    183b:	00 
    183c:	8b 46 28             	mov    0x28(%esi),%eax
    183f:	89 04 24             	mov    %eax,(%esp)
    1842:	ff 56 20             	call   *0x20(%esi)
    1845:	89 c3                	mov    %eax,%ebx
    if (s == Z_NULL) return Z_MEM_ERROR;
    1847:	85 c0                	test   %eax,%eax
    1849:	0f 84 a8 01 00 00    	je     19f7 <_deflateInit2_+0x287>
    strm->state = (struct internal_state FAR *)s;
    s->strm = strm;

    s->noheader = noheader;
    184f:	8b 54 24 18          	mov    0x18(%esp),%edx
    s->w_bits = windowBits;
    1853:	8b 4c 24 1c          	mov    0x1c(%esp),%ecx
	strategy < 0 || strategy > Z_HUFFMAN_ONLY) {
        return Z_STREAM_ERROR;
    }
    s = (deflate_state *) ZALLOC(strm, 1, sizeof(deflate_state));
    if (s == Z_NULL) return Z_MEM_ERROR;
    strm->state = (struct internal_state FAR *)s;
    1857:	89 46 1c             	mov    %eax,0x1c(%esi)
    s->strm = strm;

    s->noheader = noheader;
    185a:	89 50 18             	mov    %edx,0x18(%eax)
    s->w_bits = windowBits;
    185d:	89 48 28             	mov    %ecx,0x28(%eax)
        return Z_STREAM_ERROR;
    }
    s = (deflate_state *) ZALLOC(strm, 1, sizeof(deflate_state));
    if (s == Z_NULL) return Z_MEM_ERROR;
    strm->state = (struct internal_state FAR *)s;
    s->strm = strm;
    1860:	89 30                	mov    %esi,(%eax)

    s->noheader = noheader;
    s->w_bits = windowBits;
    s->w_size = 1 << s->w_bits;
    1862:	b8 01 00 00 00       	mov    $0x1,%eax
    s->w_mask = s->w_size - 1;

    s->hash_bits = memLevel + 7;
    s->hash_size = 1 << s->hash_bits;
    1867:	ba 01 00 00 00       	mov    $0x1,%edx
    strm->state = (struct internal_state FAR *)s;
    s->strm = strm;

    s->noheader = noheader;
    s->w_bits = windowBits;
    s->w_size = 1 << s->w_bits;
    186c:	d3 e0                	shl    %cl,%eax
    s->w_mask = s->w_size - 1;

    s->hash_bits = memLevel + 7;
    186e:	8d 4f 07             	lea    0x7(%edi),%ecx
    strm->state = (struct internal_state FAR *)s;
    s->strm = strm;

    s->noheader = noheader;
    s->w_bits = windowBits;
    s->w_size = 1 << s->w_bits;
    1871:	89 43 24             	mov    %eax,0x24(%ebx)
    s->w_mask = s->w_size - 1;

    s->hash_bits = memLevel + 7;
    s->hash_size = 1 << s->hash_bits;
    1874:	d3 e2                	shl    %cl,%edx
    s->strm = strm;

    s->noheader = noheader;
    s->w_bits = windowBits;
    s->w_size = 1 << s->w_bits;
    s->w_mask = s->w_size - 1;
    1876:	89 44 24 18          	mov    %eax,0x18(%esp)
    187a:	48                   	dec    %eax
    187b:	89 43 2c             	mov    %eax,0x2c(%ebx)

    s->hash_bits = memLevel + 7;
    s->hash_size = 1 << s->hash_bits;
    187e:	89 d0                	mov    %edx,%eax
    s->hash_mask = s->hash_size - 1;
    1880:	48                   	dec    %eax
    s->w_bits = windowBits;
    s->w_size = 1 << s->w_bits;
    s->w_mask = s->w_size - 1;

    s->hash_bits = memLevel + 7;
    s->hash_size = 1 << s->hash_bits;
    1881:	89 53 44             	mov    %edx,0x44(%ebx)
    s->hash_mask = s->hash_size - 1;
    1884:	89 43 4c             	mov    %eax,0x4c(%ebx)
    s->hash_shift =  ((s->hash_bits+MIN_MATCH-1)/MIN_MATCH);
    1887:	ba ab aa aa aa       	mov    $0xaaaaaaab,%edx
    188c:	8d 47 09             	lea    0x9(%edi),%eax
    s->noheader = noheader;
    s->w_bits = windowBits;
    s->w_size = 1 << s->w_bits;
    s->w_mask = s->w_size - 1;

    s->hash_bits = memLevel + 7;
    188f:	89 4b 48             	mov    %ecx,0x48(%ebx)
    s->hash_size = 1 << s->hash_bits;
    s->hash_mask = s->hash_size - 1;
    s->hash_shift =  ((s->hash_bits+MIN_MATCH-1)/MIN_MATCH);
    1892:	f7 e2                	mul    %edx
    1894:	d1 ea                	shr    %edx

    s->window = (Bytef *) ZALLOC(strm, s->w_size, 2*sizeof(Byte));
    1896:	8b 44 24 18          	mov    0x18(%esp),%eax
    s->w_mask = s->w_size - 1;

    s->hash_bits = memLevel + 7;
    s->hash_size = 1 << s->hash_bits;
    s->hash_mask = s->hash_size - 1;
    s->hash_shift =  ((s->hash_bits+MIN_MATCH-1)/MIN_MATCH);
    189a:	89 53 50             	mov    %edx,0x50(%ebx)

    s->window = (Bytef *) ZALLOC(strm, s->w_size, 2*sizeof(Byte));
    189d:	c7 44 24 08 02 00 00 	movl   $0x2,0x8(%esp)
    18a4:	00 
    18a5:	89 44 24 04          	mov    %eax,0x4(%esp)
    18a9:	8b 46 28             	mov    0x28(%esi),%eax
    18ac:	89 04 24             	mov    %eax,(%esp)
    18af:	ff 56 20             	call   *0x20(%esi)
    18b2:	89 43 30             	mov    %eax,0x30(%ebx)
    s->prev   = (Posf *)  ZALLOC(strm, s->w_size, sizeof(Pos));
    18b5:	c7 44 24 08 02 00 00 	movl   $0x2,0x8(%esp)
    18bc:	00 
    18bd:	8b 43 24             	mov    0x24(%ebx),%eax
    18c0:	89 44 24 04          	mov    %eax,0x4(%esp)
    18c4:	8b 46 28             	mov    0x28(%esi),%eax
    18c7:	89 04 24             	mov    %eax,(%esp)
    18ca:	ff 56 20             	call   *0x20(%esi)
    18cd:	89 43 38             	mov    %eax,0x38(%ebx)
    s->head   = (Posf *)  ZALLOC(strm, s->hash_size, sizeof(Pos));
    18d0:	c7 44 24 08 02 00 00 	movl   $0x2,0x8(%esp)
    18d7:	00 
    18d8:	8b 43 44             	mov    0x44(%ebx),%eax
    18db:	89 44 24 04          	mov    %eax,0x4(%esp)
    18df:	8b 46 28             	mov    0x28(%esi),%eax
    18e2:	89 04 24             	mov    %eax,(%esp)
    18e5:	ff 56 20             	call   *0x20(%esi)

    s->lit_bufsize = 1 << (memLevel + 6); /* 16K elements by default */
    18e8:	8d 4f 06             	lea    0x6(%edi),%ecx
    s->hash_mask = s->hash_size - 1;
    s->hash_shift =  ((s->hash_bits+MIN_MATCH-1)/MIN_MATCH);

    s->window = (Bytef *) ZALLOC(strm, s->w_size, 2*sizeof(Byte));
    s->prev   = (Posf *)  ZALLOC(strm, s->w_size, sizeof(Pos));
    s->head   = (Posf *)  ZALLOC(strm, s->hash_size, sizeof(Pos));
    18eb:	89 43 3c             	mov    %eax,0x3c(%ebx)

    s->lit_bufsize = 1 << (memLevel + 6); /* 16K elements by default */
    18ee:	b8 01 00 00 00       	mov    $0x1,%eax
    18f3:	d3 e0                	shl    %cl,%eax
    18f5:	89 83 94 16 00 00    	mov    %eax,0x1694(%ebx)

    overlay = (ushf *) ZALLOC(strm, s->lit_bufsize, sizeof(ush)+2);
    18fb:	c7 44 24 08 04 00 00 	movl   $0x4,0x8(%esp)
    1902:	00 
    1903:	89 44 24 04          	mov    %eax,0x4(%esp)
    1907:	8b 46 28             	mov    0x28(%esi),%eax
    190a:	89 04 24             	mov    %eax,(%esp)
    190d:	ff 56 20             	call   *0x20(%esi)
    s->pending_buf = (uchf *) overlay;
    s->pending_buf_size = (ulg)s->lit_bufsize * (sizeof(ush)+2L);
    1910:	8b 93 94 16 00 00    	mov    0x1694(%ebx),%edx
    1916:	8d 0c 95 00 00 00 00 	lea    0x0(,%edx,4),%ecx
    s->head   = (Posf *)  ZALLOC(strm, s->hash_size, sizeof(Pos));

    s->lit_bufsize = 1 << (memLevel + 6); /* 16K elements by default */

    overlay = (ushf *) ZALLOC(strm, s->lit_bufsize, sizeof(ush)+2);
    s->pending_buf = (uchf *) overlay;
    191d:	89 43 08             	mov    %eax,0x8(%ebx)
    s->pending_buf_size = (ulg)s->lit_bufsize * (sizeof(ush)+2L);
    1920:	89 4b 0c             	mov    %ecx,0xc(%ebx)

    if (s->window == Z_NULL || s->prev == Z_NULL || s->head == Z_NULL ||
    1923:	8b 4b 30             	mov    0x30(%ebx),%ecx
    1926:	85 c9                	test   %ecx,%ecx
    1928:	0f 84 b2 00 00 00    	je     19e0 <_deflateInit2_+0x270>
    192e:	8b 7b 38             	mov    0x38(%ebx),%edi
    1931:	85 ff                	test   %edi,%edi
    1933:	0f 84 a7 00 00 00    	je     19e0 <_deflateInit2_+0x270>
    1939:	85 c0                	test   %eax,%eax
    193b:	0f 84 9f 00 00 00    	je     19e0 <_deflateInit2_+0x270>
    1941:	8b 4b 3c             	mov    0x3c(%ebx),%ecx
    1944:	85 c9                	test   %ecx,%ecx
    1946:	0f 84 94 00 00 00    	je     19e0 <_deflateInit2_+0x270>
        s->pending_buf == Z_NULL) {
        strm->msg = (char*)ERR_MSG(Z_MEM_ERROR);
        deflateEnd (strm);
        return Z_MEM_ERROR;
    }
    s->d_buf = overlay + s->lit_bufsize/sizeof(ush);
    194c:	89 d1                	mov    %edx,%ecx
    s->l_buf = s->pending_buf + (1+sizeof(ush))*s->lit_bufsize;
    194e:	8d 14 52             	lea    (%edx,%edx,2),%edx
        s->pending_buf == Z_NULL) {
        strm->msg = (char*)ERR_MSG(Z_MEM_ERROR);
        deflateEnd (strm);
        return Z_MEM_ERROR;
    }
    s->d_buf = overlay + s->lit_bufsize/sizeof(ush);
    1951:	83 e1 fe             	and    $0xfffffffe,%ecx
    s->l_buf = s->pending_buf + (1+sizeof(ush))*s->lit_bufsize;

    s->level = level;
    1954:	89 6b 7c             	mov    %ebp,0x7c(%ebx)
        s->pending_buf == Z_NULL) {
        strm->msg = (char*)ERR_MSG(Z_MEM_ERROR);
        deflateEnd (strm);
        return Z_MEM_ERROR;
    }
    s->d_buf = overlay + s->lit_bufsize/sizeof(ush);
    1957:	01 c1                	add    %eax,%ecx
    s->l_buf = s->pending_buf + (1+sizeof(ush))*s->lit_bufsize;
    1959:	01 d0                	add    %edx,%eax
    195b:	89 83 90 16 00 00    	mov    %eax,0x1690(%ebx)

    s->level = level;
    s->strategy = strategy;
    1961:	8b 44 24 14          	mov    0x14(%esp),%eax
        s->pending_buf == Z_NULL) {
        strm->msg = (char*)ERR_MSG(Z_MEM_ERROR);
        deflateEnd (strm);
        return Z_MEM_ERROR;
    }
    s->d_buf = overlay + s->lit_bufsize/sizeof(ush);
    1965:	89 8b 9c 16 00 00    	mov    %ecx,0x169c(%ebx)
    s->l_buf = s->pending_buf + (1+sizeof(ush))*s->lit_bufsize;

    s->level = level;
    s->strategy = strategy;
    196b:	89 83 80 00 00 00    	mov    %eax,0x80(%ebx)
    s->method = (Byte)method;
    1971:	c6 43 1d 08          	movb   $0x8,0x1d(%ebx)

    return deflateReset(strm);
    1975:	89 74 24 40          	mov    %esi,0x40(%esp)
}
    1979:	83 c4 2c             	add    $0x2c,%esp
    197c:	5b                   	pop    %ebx
    197d:	5e                   	pop    %esi
    197e:	5f                   	pop    %edi
    197f:	5d                   	pop    %ebp

    s->level = level;
    s->strategy = strategy;
    s->method = (Byte)method;

    return deflateReset(strm);
    1980:	e9 ab f6 ff ff       	jmp    1030 <_deflateReset>
    level = 1;
#endif

    if (windowBits < 0) { /* undocumented feature: suppress zlib header */
        noheader = 1;
        windowBits = -windowBits;
    1985:	f7 d9                	neg    %ecx
#ifdef FASTEST
    level = 1;
#endif

    if (windowBits < 0) { /* undocumented feature: suppress zlib header */
        noheader = 1;
    1987:	b2 01                	mov    $0x1,%dl
    1989:	e9 61 fe ff ff       	jmp    17ef <_deflateInit2_+0x7f>
    198e:	66 90                	xchg   %ax,%ax

    if (version == Z_NULL || version[0] != my_version[0] ||
        stream_size != sizeof(z_stream)) {
	return Z_VERSION_ERROR;
    }
    if (strm == Z_NULL) return Z_STREAM_ERROR;
    1990:	b8 fe ff ff ff       	mov    $0xfffffffe,%eax
    s->level = level;
    s->strategy = strategy;
    s->method = (Byte)method;

    return deflateReset(strm);
}
    1995:	83 c4 2c             	add    $0x2c,%esp
    1998:	5b                   	pop    %ebx
    1999:	5e                   	pop    %esi
    199a:	5f                   	pop    %edi
    199b:	5d                   	pop    %ebp
    199c:	c3                   	ret    
    199d:	8d 76 00             	lea    0x0(%esi),%esi
    strm->msg = Z_NULL;
    if (strm->zalloc == Z_NULL) {
	strm->zalloc = zcalloc;
	strm->opaque = (voidpf)0;
    }
    if (strm->zfree == Z_NULL) strm->zfree = zcfree;
    19a0:	8b 46 24             	mov    0x24(%esi),%eax
    }
    if (strm == Z_NULL) return Z_STREAM_ERROR;

    strm->msg = Z_NULL;
    if (strm->zalloc == Z_NULL) {
	strm->zalloc = zcalloc;
    19a3:	c7 46 20 00 00 00 00 	movl   $0x0,0x20(%esi)
	strm->opaque = (voidpf)0;
    19aa:	c7 46 28 00 00 00 00 	movl   $0x0,0x28(%esi)
    }
    if (strm->zfree == Z_NULL) strm->zfree = zcfree;
    19b1:	85 c0                	test   %eax,%eax
    19b3:	0f 85 21 fe ff ff    	jne    17da <_deflateInit2_+0x6a>
    19b9:	8d b4 26 00 00 00 00 	lea    0x0(%esi,%eiz,1),%esi
    19c0:	c7 46 24 00 00 00 00 	movl   $0x0,0x24(%esi)
    19c7:	e9 0e fe ff ff       	jmp    17da <_deflateInit2_+0x6a>
    19cc:	8d 74 26 00          	lea    0x0(%esi,%eiz,1),%esi
    s->level = level;
    s->strategy = strategy;
    s->method = (Byte)method;

    return deflateReset(strm);
}
    19d0:	83 c4 2c             	add    $0x2c,%esp
     * output size for (length,distance) codes is <= 24 bits.
     */

    if (version == Z_NULL || version[0] != my_version[0] ||
        stream_size != sizeof(z_stream)) {
	return Z_VERSION_ERROR;
    19d3:	b8 fa ff ff ff       	mov    $0xfffffffa,%eax
    s->level = level;
    s->strategy = strategy;
    s->method = (Byte)method;

    return deflateReset(strm);
}
    19d8:	5b                   	pop    %ebx
    19d9:	5e                   	pop    %esi
    19da:	5f                   	pop    %edi
    19db:	5d                   	pop    %ebp
    19dc:	c3                   	ret    
    19dd:	8d 76 00             	lea    0x0(%esi),%esi
    s->pending_buf = (uchf *) overlay;
    s->pending_buf_size = (ulg)s->lit_bufsize * (sizeof(ush)+2L);

    if (s->window == Z_NULL || s->prev == Z_NULL || s->head == Z_NULL ||
        s->pending_buf == Z_NULL) {
        strm->msg = (char*)ERR_MSG(Z_MEM_ERROR);
    19e0:	a1 18 00 00 00       	mov    0x18,%eax
    19e5:	89 46 18             	mov    %eax,0x18(%esi)
        deflateEnd (strm);
    19e8:	89 34 24             	mov    %esi,(%esp)
    19eb:	e8 b0 fc ff ff       	call   16a0 <_deflateEnd>
        return Z_MEM_ERROR;
    19f0:	b8 fc ff ff ff       	mov    $0xfffffffc,%eax
    19f5:	eb 9e                	jmp    1995 <_deflateInit2_+0x225>
        windowBits < 8 || windowBits > 15 || level < 0 || level > 9 ||
	strategy < 0 || strategy > Z_HUFFMAN_ONLY) {
        return Z_STREAM_ERROR;
    }
    s = (deflate_state *) ZALLOC(strm, 1, sizeof(deflate_state));
    if (s == Z_NULL) return Z_MEM_ERROR;
    19f7:	b8 fc ff ff ff       	mov    $0xfffffffc,%eax
    19fc:	eb 97                	jmp    1995 <_deflateInit2_+0x225>
    19fe:	66 90                	xchg   %ax,%ax

00001a00 <_deflateInit_>:
int ZEXPORT deflateInit_(strm, level, version, stream_size)
    z_streamp strm;
    int level;
    const char *version;
    int stream_size;
{
    1a00:	83 ec 2c             	sub    $0x2c,%esp
    return deflateInit2_(strm, level, Z_DEFLATED, MAX_WBITS, DEF_MEM_LEVEL,
    1a03:	8b 44 24 3c          	mov    0x3c(%esp),%eax
    1a07:	c7 44 24 14 00 00 00 	movl   $0x0,0x14(%esp)
    1a0e:	00 
    1a0f:	89 44 24 1c          	mov    %eax,0x1c(%esp)
    1a13:	8b 44 24 38          	mov    0x38(%esp),%eax
    1a17:	89 44 24 18          	mov    %eax,0x18(%esp)
    1a1b:	8b 44 24 34          	mov    0x34(%esp),%eax
    1a1f:	89 44 24 04          	mov    %eax,0x4(%esp)
    1a23:	8b 44 24 30          	mov    0x30(%esp),%eax
    1a27:	c7 44 24 10 08 00 00 	movl   $0x8,0x10(%esp)
    1a2e:	00 
    1a2f:	c7 44 24 0c 0f 00 00 	movl   $0xf,0xc(%esp)
    1a36:	00 
    1a37:	c7 44 24 08 08 00 00 	movl   $0x8,0x8(%esp)
    1a3e:	00 
    1a3f:	89 04 24             	mov    %eax,(%esp)
    1a42:	e8 29 fd ff ff       	call   1770 <_deflateInit2_>
			 Z_DEFAULT_STRATEGY, version, stream_size);
    /* To do: ignore strm->next_in if we use it as window */
}
    1a47:	83 c4 2c             	add    $0x2c,%esp
    1a4a:	c3                   	ret    
    1a4b:	90                   	nop
    1a4c:	8d 74 26 00          	lea    0x0(%esi,%eiz,1),%esi

00001a50 <_deflateCopy>:
 * doesn't have enough memory anyway to duplicate compression states).
 */
int ZEXPORT deflateCopy (dest, source)
    z_streamp dest;
    z_streamp source;
{
    1a50:	55                   	push   %ebp
    1a51:	57                   	push   %edi
    1a52:	56                   	push   %esi
    1a53:	53                   	push   %ebx
    1a54:	83 ec 2c             	sub    $0x2c,%esp
    1a57:	8b 74 24 44          	mov    0x44(%esp),%esi
    1a5b:	8b 6c 24 40          	mov    0x40(%esp),%ebp
    deflate_state *ds;
    deflate_state *ss;
    ushf *overlay;


    if (source == Z_NULL || dest == Z_NULL || source->state == Z_NULL) {
    1a5f:	85 f6                	test   %esi,%esi
    1a61:	0f 84 d9 01 00 00    	je     1c40 <_deflateCopy+0x1f0>
    1a67:	85 ed                	test   %ebp,%ebp
    1a69:	0f 84 d1 01 00 00    	je     1c40 <_deflateCopy+0x1f0>
    1a6f:	8b 56 1c             	mov    0x1c(%esi),%edx
    1a72:	85 d2                	test   %edx,%edx
    1a74:	89 54 24 1c          	mov    %edx,0x1c(%esp)
    1a78:	0f 84 c2 01 00 00    	je     1c40 <_deflateCopy+0x1f0>
        return Z_STREAM_ERROR;
    }

    ss = source->state;

    *dest = *source;
    1a7e:	b9 0e 00 00 00       	mov    $0xe,%ecx
    1a83:	89 ef                	mov    %ebp,%edi
    1a85:	f3 a5                	rep movsl %ds:(%esi),%es:(%edi)

    ds = (deflate_state *) ZALLOC(dest, 1, sizeof(deflate_state));
    1a87:	c7 44 24 08 b8 16 00 	movl   $0x16b8,0x8(%esp)
    1a8e:	00 
    1a8f:	c7 44 24 04 01 00 00 	movl   $0x1,0x4(%esp)
    1a96:	00 
    1a97:	8b 45 28             	mov    0x28(%ebp),%eax
    1a9a:	89 04 24             	mov    %eax,(%esp)
    1a9d:	ff 55 20             	call   *0x20(%ebp)
    1aa0:	89 c3                	mov    %eax,%ebx
    if (ds == Z_NULL) return Z_MEM_ERROR;
    1aa2:	85 c0                	test   %eax,%eax
    1aa4:	0f 84 ac 01 00 00    	je     1c56 <_deflateCopy+0x206>
    dest->state = (struct internal_state FAR *) ds;
    *ds = *ss;
    1aaa:	8b 54 24 1c          	mov    0x1c(%esp),%edx

    *dest = *source;

    ds = (deflate_state *) ZALLOC(dest, 1, sizeof(deflate_state));
    if (ds == Z_NULL) return Z_MEM_ERROR;
    dest->state = (struct internal_state FAR *) ds;
    1aae:	89 45 1c             	mov    %eax,0x1c(%ebp)
    *ds = *ss;
    1ab1:	89 54 24 04          	mov    %edx,0x4(%esp)
    1ab5:	c7 44 24 08 b8 16 00 	movl   $0x16b8,0x8(%esp)
    1abc:	00 
    1abd:	89 04 24             	mov    %eax,(%esp)
    1ac0:	e8 00 00 00 00       	call   1ac5 <_deflateCopy+0x75>
    ds->strm = dest;
    1ac5:	89 2b                	mov    %ebp,(%ebx)

    ds->window = (Bytef *) ZALLOC(dest, ds->w_size, 2*sizeof(Byte));
    1ac7:	c7 44 24 08 02 00 00 	movl   $0x2,0x8(%esp)
    1ace:	00 
    1acf:	8b 43 24             	mov    0x24(%ebx),%eax
    1ad2:	89 44 24 04          	mov    %eax,0x4(%esp)
    1ad6:	8b 45 28             	mov    0x28(%ebp),%eax
    1ad9:	89 04 24             	mov    %eax,(%esp)
    1adc:	ff 55 20             	call   *0x20(%ebp)
    1adf:	89 43 30             	mov    %eax,0x30(%ebx)
    ds->prev   = (Posf *)  ZALLOC(dest, ds->w_size, sizeof(Pos));
    1ae2:	c7 44 24 08 02 00 00 	movl   $0x2,0x8(%esp)
    1ae9:	00 
    1aea:	8b 43 24             	mov    0x24(%ebx),%eax
    1aed:	89 44 24 04          	mov    %eax,0x4(%esp)
    1af1:	8b 45 28             	mov    0x28(%ebp),%eax
    1af4:	89 04 24             	mov    %eax,(%esp)
    1af7:	ff 55 20             	call   *0x20(%ebp)
    1afa:	89 43 38             	mov    %eax,0x38(%ebx)
    ds->head   = (Posf *)  ZALLOC(dest, ds->hash_size, sizeof(Pos));
    1afd:	c7 44 24 08 02 00 00 	movl   $0x2,0x8(%esp)
    1b04:	00 
    1b05:	8b 43 44             	mov    0x44(%ebx),%eax
    1b08:	89 44 24 04          	mov    %eax,0x4(%esp)
    1b0c:	8b 45 28             	mov    0x28(%ebp),%eax
    1b0f:	89 04 24             	mov    %eax,(%esp)
    1b12:	ff 55 20             	call   *0x20(%ebp)
    1b15:	89 43 3c             	mov    %eax,0x3c(%ebx)
    overlay = (ushf *) ZALLOC(dest, ds->lit_bufsize, sizeof(ush)+2);
    1b18:	c7 44 24 08 04 00 00 	movl   $0x4,0x8(%esp)
    1b1f:	00 
    1b20:	8b 83 94 16 00 00    	mov    0x1694(%ebx),%eax
    1b26:	89 44 24 04          	mov    %eax,0x4(%esp)
    1b2a:	8b 45 28             	mov    0x28(%ebp),%eax
    1b2d:	89 04 24             	mov    %eax,(%esp)
    1b30:	ff 55 20             	call   *0x20(%ebp)
    ds->pending_buf = (uchf *) overlay;

    if (ds->window == Z_NULL || ds->prev == Z_NULL || ds->head == Z_NULL ||
    1b33:	8b 4b 30             	mov    0x30(%ebx),%ecx
    ds->strm = dest;

    ds->window = (Bytef *) ZALLOC(dest, ds->w_size, 2*sizeof(Byte));
    ds->prev   = (Posf *)  ZALLOC(dest, ds->w_size, sizeof(Pos));
    ds->head   = (Posf *)  ZALLOC(dest, ds->hash_size, sizeof(Pos));
    overlay = (ushf *) ZALLOC(dest, ds->lit_bufsize, sizeof(ush)+2);
    1b36:	89 c6                	mov    %eax,%esi
    ds->pending_buf = (uchf *) overlay;
    1b38:	89 43 08             	mov    %eax,0x8(%ebx)

    if (ds->window == Z_NULL || ds->prev == Z_NULL || ds->head == Z_NULL ||
    1b3b:	85 c9                	test   %ecx,%ecx
    1b3d:	0f 84 04 01 00 00    	je     1c47 <_deflateCopy+0x1f7>
    1b43:	8b 43 38             	mov    0x38(%ebx),%eax
    1b46:	85 c0                	test   %eax,%eax
    1b48:	0f 84 f9 00 00 00    	je     1c47 <_deflateCopy+0x1f7>
    1b4e:	85 f6                	test   %esi,%esi
    1b50:	0f 84 f1 00 00 00    	je     1c47 <_deflateCopy+0x1f7>
    1b56:	8b 43 3c             	mov    0x3c(%ebx),%eax
    1b59:	8b 54 24 1c          	mov    0x1c(%esp),%edx
    1b5d:	85 c0                	test   %eax,%eax
    1b5f:	0f 84 e2 00 00 00    	je     1c47 <_deflateCopy+0x1f7>
        ds->pending_buf == Z_NULL) {
        deflateEnd (dest);
        return Z_MEM_ERROR;
    }
    /* following zmemcpy do not work for 16-bit MSDOS */
    zmemcpy(ds->window, ss->window, ds->w_size * 2 * sizeof(Byte));
    1b65:	8b 43 24             	mov    0x24(%ebx),%eax
    1b68:	8b 6a 30             	mov    0x30(%edx),%ebp
    1b6b:	01 c0                	add    %eax,%eax
    1b6d:	89 6c 24 04          	mov    %ebp,0x4(%esp)
    1b71:	89 0c 24             	mov    %ecx,(%esp)
    1b74:	89 44 24 08          	mov    %eax,0x8(%esp)
    1b78:	89 54 24 1c          	mov    %edx,0x1c(%esp)
    1b7c:	e8 00 00 00 00       	call   1b81 <_deflateCopy+0x131>
    zmemcpy(ds->prev, ss->prev, ds->w_size * sizeof(Pos));
    1b81:	8b 54 24 1c          	mov    0x1c(%esp),%edx
    1b85:	8b 43 24             	mov    0x24(%ebx),%eax
    1b88:	8b 4b 38             	mov    0x38(%ebx),%ecx
    1b8b:	01 c0                	add    %eax,%eax
    1b8d:	8b 6a 38             	mov    0x38(%edx),%ebp
    1b90:	89 0c 24             	mov    %ecx,(%esp)
    1b93:	89 6c 24 04          	mov    %ebp,0x4(%esp)
    1b97:	89 44 24 08          	mov    %eax,0x8(%esp)
    1b9b:	e8 00 00 00 00       	call   1ba0 <_deflateCopy+0x150>
    zmemcpy(ds->head, ss->head, ds->hash_size * sizeof(Pos));
    1ba0:	8b 54 24 1c          	mov    0x1c(%esp),%edx
    1ba4:	8b 43 44             	mov    0x44(%ebx),%eax
    1ba7:	8b 6a 3c             	mov    0x3c(%edx),%ebp
    1baa:	8b 4b 3c             	mov    0x3c(%ebx),%ecx
    1bad:	01 c0                	add    %eax,%eax
    1baf:	89 6c 24 04          	mov    %ebp,0x4(%esp)
    1bb3:	89 0c 24             	mov    %ecx,(%esp)
    1bb6:	89 44 24 08          	mov    %eax,0x8(%esp)
    1bba:	e8 00 00 00 00       	call   1bbf <_deflateCopy+0x16f>
    zmemcpy(ds->pending_buf, ss->pending_buf, (uInt)ds->pending_buf_size);
    1bbf:	8b 54 24 1c          	mov    0x1c(%esp),%edx
    1bc3:	8b 6b 0c             	mov    0xc(%ebx),%ebp
    1bc6:	8b 4a 08             	mov    0x8(%edx),%ecx
    1bc9:	8b 43 08             	mov    0x8(%ebx),%eax
    1bcc:	89 6c 24 08          	mov    %ebp,0x8(%esp)
    1bd0:	89 4c 24 04          	mov    %ecx,0x4(%esp)
    1bd4:	89 04 24             	mov    %eax,(%esp)
    1bd7:	e8 00 00 00 00       	call   1bdc <_deflateCopy+0x18c>

    ds->pending_out = ds->pending_buf + (ss->pending_out - ss->pending_buf);
    1bdc:	8b 54 24 1c          	mov    0x1c(%esp),%edx
    1be0:	8b 4b 08             	mov    0x8(%ebx),%ecx
    1be3:	8b 7a 10             	mov    0x10(%edx),%edi
    1be6:	89 c8                	mov    %ecx,%eax
    1be8:	8b 6a 08             	mov    0x8(%edx),%ebp
    1beb:	01 f8                	add    %edi,%eax
    ds->d_buf = overlay + ds->lit_bufsize/sizeof(ush);
    1bed:	8b 93 94 16 00 00    	mov    0x1694(%ebx),%edx
    zmemcpy(ds->window, ss->window, ds->w_size * 2 * sizeof(Byte));
    zmemcpy(ds->prev, ss->prev, ds->w_size * sizeof(Pos));
    zmemcpy(ds->head, ss->head, ds->hash_size * sizeof(Pos));
    zmemcpy(ds->pending_buf, ss->pending_buf, (uInt)ds->pending_buf_size);

    ds->pending_out = ds->pending_buf + (ss->pending_out - ss->pending_buf);
    1bf3:	29 e8                	sub    %ebp,%eax
    1bf5:	89 43 10             	mov    %eax,0x10(%ebx)
    ds->d_buf = overlay + ds->lit_bufsize/sizeof(ush);
    1bf8:	89 d0                	mov    %edx,%eax
    1bfa:	83 e0 fe             	and    $0xfffffffe,%eax
    1bfd:	01 c6                	add    %eax,%esi
    ds->l_buf = ds->pending_buf + (1+sizeof(ush))*ds->lit_bufsize;
    1bff:	8d 04 52             	lea    (%edx,%edx,2),%eax
    1c02:	01 c8                	add    %ecx,%eax
    zmemcpy(ds->prev, ss->prev, ds->w_size * sizeof(Pos));
    zmemcpy(ds->head, ss->head, ds->hash_size * sizeof(Pos));
    zmemcpy(ds->pending_buf, ss->pending_buf, (uInt)ds->pending_buf_size);

    ds->pending_out = ds->pending_buf + (ss->pending_out - ss->pending_buf);
    ds->d_buf = overlay + ds->lit_bufsize/sizeof(ush);
    1c04:	89 b3 9c 16 00 00    	mov    %esi,0x169c(%ebx)
    ds->l_buf = ds->pending_buf + (1+sizeof(ush))*ds->lit_bufsize;
    1c0a:	89 83 90 16 00 00    	mov    %eax,0x1690(%ebx)

    ds->l_desc.dyn_tree = ds->dyn_ltree;
    1c10:	8d 83 8c 00 00 00    	lea    0x8c(%ebx),%eax
    1c16:	89 83 10 0b 00 00    	mov    %eax,0xb10(%ebx)
    ds->d_desc.dyn_tree = ds->dyn_dtree;
    1c1c:	8d 83 80 09 00 00    	lea    0x980(%ebx),%eax
    1c22:	89 83 1c 0b 00 00    	mov    %eax,0xb1c(%ebx)
    ds->bl_desc.dyn_tree = ds->bl_tree;
    1c28:	8d 83 74 0a 00 00    	lea    0xa74(%ebx),%eax
    1c2e:	89 83 28 0b 00 00    	mov    %eax,0xb28(%ebx)

    return Z_OK;
    1c34:	31 c0                	xor    %eax,%eax
#endif
}
    1c36:	83 c4 2c             	add    $0x2c,%esp
    1c39:	5b                   	pop    %ebx
    1c3a:	5e                   	pop    %esi
    1c3b:	5f                   	pop    %edi
    1c3c:	5d                   	pop    %ebp
    1c3d:	c3                   	ret    
    1c3e:	66 90                	xchg   %ax,%ax
    deflate_state *ss;
    ushf *overlay;


    if (source == Z_NULL || dest == Z_NULL || source->state == Z_NULL) {
        return Z_STREAM_ERROR;
    1c40:	b8 fe ff ff ff       	mov    $0xfffffffe,%eax
    1c45:	eb ef                	jmp    1c36 <_deflateCopy+0x1e6>
    overlay = (ushf *) ZALLOC(dest, ds->lit_bufsize, sizeof(ush)+2);
    ds->pending_buf = (uchf *) overlay;

    if (ds->window == Z_NULL || ds->prev == Z_NULL || ds->head == Z_NULL ||
        ds->pending_buf == Z_NULL) {
        deflateEnd (dest);
    1c47:	89 2c 24             	mov    %ebp,(%esp)
    1c4a:	e8 51 fa ff ff       	call   16a0 <_deflateEnd>
        return Z_MEM_ERROR;
    1c4f:	b8 fc ff ff ff       	mov    $0xfffffffc,%eax
    1c54:	eb e0                	jmp    1c36 <_deflateCopy+0x1e6>
    ss = source->state;

    *dest = *source;

    ds = (deflate_state *) ZALLOC(dest, 1, sizeof(deflate_state));
    if (ds == Z_NULL) return Z_MEM_ERROR;
    1c56:	b8 fc ff ff ff       	mov    $0xfffffffc,%eax
    1c5b:	eb d9                	jmp    1c36 <_deflateCopy+0x1e6>
    1c5d:	90                   	nop
    1c5e:	90                   	nop
    1c5f:	90                   	nop

gzio.o:     file format pe-i386


Disassembly of section .text:

00000000 <_destroy>:
local int destroy (s)
    gz_stream *s;
{
    int err = Z_OK;

    if (!s) return Z_STREAM_ERROR;
       0:	85 c0                	test   %eax,%eax
       2:	0f 84 b9 00 00 00    	je     c1 <_destroy+0xc1>
 * Cleanup then free the given gz_stream. Return a zlib error code.
   Try freeing in the reverse order of allocations.
 */
local int destroy (s)
    gz_stream *s;
{
       8:	56                   	push   %esi
       9:	53                   	push   %ebx
       a:	83 ec 14             	sub    $0x14,%esp
       d:	89 c3                	mov    %eax,%ebx
    int err = Z_OK;

    if (!s) return Z_STREAM_ERROR;

    TRYFREE(s->msg);
       f:	8b 40 50             	mov    0x50(%eax),%eax
      12:	85 c0                	test   %eax,%eax
      14:	74 08                	je     1e <_destroy+0x1e>
      16:	89 04 24             	mov    %eax,(%esp)
      19:	e8 00 00 00 00       	call   1e <_destroy+0x1e>

    if (s->stream.state != NULL) {
      1e:	8b 43 1c             	mov    0x1c(%ebx),%eax
      21:	85 c0                	test   %eax,%eax
      23:	74 7d                	je     a2 <_destroy+0xa2>
  if (s->mode == 'w') {
      25:	8a 43 5c             	mov    0x5c(%ebx),%al
      28:	3c 77                	cmp    $0x77,%al
      2a:	74 7a                	je     a6 <_destroy+0xa6>
   Try freeing in the reverse order of allocations.
 */
local int destroy (s)
    gz_stream *s;
{
    int err = Z_OK;
      2c:	31 f6                	xor    %esi,%esi
#ifdef NO_DEFLATE
      err = Z_STREAM_ERROR;
#else
      err = deflateEnd(&(s->stream));
#endif
  } else if (s->mode == 'r') {
      2e:	3c 72                	cmp    $0x72,%al
      30:	0f 84 7c 00 00 00    	je     b2 <_destroy+0xb2>
      err = inflateEnd(&(s->stream));
  }
    }
    if (s->file != NULL && fclose(s->file)) {
      36:	8b 43 40             	mov    0x40(%ebx),%eax
      39:	85 c0                	test   %eax,%eax
      3b:	74 0c                	je     49 <_destroy+0x49>
      3d:	89 04 24             	mov    %eax,(%esp)
      40:	e8 00 00 00 00       	call   45 <_destroy+0x45>
      45:	85 c0                	test   %eax,%eax
      47:	75 47                	jne    90 <_destroy+0x90>
#ifdef ESPIPE
  if (errno != ESPIPE) /* fclose is broken for pipes in HP/UX */
#endif
      err = Z_ERRNO;
    }
    if (s->z_err < 0) {
      49:	8b 43 38             	mov    0x38(%ebx),%eax
      4c:	85 c0                	test   %eax,%eax
      4e:	0f 48 f0             	cmovs  %eax,%esi
      err = s->z_err;
    }

    TRYFREE(s->inbuf);
      51:	8b 43 44             	mov    0x44(%ebx),%eax
      54:	85 c0                	test   %eax,%eax
      56:	74 08                	je     60 <_destroy+0x60>
      58:	89 04 24             	mov    %eax,(%esp)
      5b:	e8 00 00 00 00       	call   60 <_destroy+0x60>
    TRYFREE(s->outbuf);
      60:	8b 43 48             	mov    0x48(%ebx),%eax
      63:	85 c0                	test   %eax,%eax
      65:	74 08                	je     6f <_destroy+0x6f>
      67:	89 04 24             	mov    %eax,(%esp)
      6a:	e8 00 00 00 00       	call   6f <_destroy+0x6f>
    TRYFREE(s->path);
      6f:	8b 43 54             	mov    0x54(%ebx),%eax
      72:	85 c0                	test   %eax,%eax
      74:	74 08                	je     7e <_destroy+0x7e>
      76:	89 04 24             	mov    %eax,(%esp)
      79:	e8 00 00 00 00       	call   7e <_destroy+0x7e>
    TRYFREE(s);
      7e:	89 1c 24             	mov    %ebx,(%esp)
      81:	e8 00 00 00 00       	call   86 <_destroy+0x86>
    return err;
}
      86:	83 c4 14             	add    $0x14,%esp

    TRYFREE(s->inbuf);
    TRYFREE(s->outbuf);
    TRYFREE(s->path);
    TRYFREE(s);
    return err;
      89:	89 f0                	mov    %esi,%eax
}
      8b:	5b                   	pop    %ebx
      8c:	5e                   	pop    %esi
      8d:	c3                   	ret    
      8e:	66 90                	xchg   %ax,%ax
      err = inflateEnd(&(s->stream));
  }
    }
    if (s->file != NULL && fclose(s->file)) {
#ifdef ESPIPE
  if (errno != ESPIPE) /* fclose is broken for pipes in HP/UX */
      90:	e8 00 00 00 00       	call   95 <_destroy+0x95>
#endif
      err = Z_ERRNO;
      95:	83 38 1d             	cmpl   $0x1d,(%eax)
      98:	b8 ff ff ff ff       	mov    $0xffffffff,%eax
      9d:	0f 45 f0             	cmovne %eax,%esi
      a0:	eb a7                	jmp    49 <_destroy+0x49>
   Try freeing in the reverse order of allocations.
 */
local int destroy (s)
    gz_stream *s;
{
    int err = Z_OK;
      a2:	31 f6                	xor    %esi,%esi
      a4:	eb 90                	jmp    36 <_destroy+0x36>
    if (s->stream.state != NULL) {
  if (s->mode == 'w') {
#ifdef NO_DEFLATE
      err = Z_STREAM_ERROR;
#else
      err = deflateEnd(&(s->stream));
      a6:	89 1c 24             	mov    %ebx,(%esp)
      a9:	e8 00 00 00 00       	call   ae <_destroy+0xae>
      ae:	89 c6                	mov    %eax,%esi
      b0:	eb 84                	jmp    36 <_destroy+0x36>
#endif
  } else if (s->mode == 'r') {
      err = inflateEnd(&(s->stream));
      b2:	89 1c 24             	mov    %ebx,(%esp)
      b5:	e8 00 00 00 00       	call   ba <_destroy+0xba>
      ba:	89 c6                	mov    %eax,%esi
      bc:	e9 75 ff ff ff       	jmp    36 <_destroy+0x36>
local int destroy (s)
    gz_stream *s;
{
    int err = Z_OK;

    if (!s) return Z_STREAM_ERROR;
      c1:	b8 fe ff ff ff       	mov    $0xfffffffe,%eax
    TRYFREE(s->inbuf);
    TRYFREE(s->outbuf);
    TRYFREE(s->path);
    TRYFREE(s);
    return err;
}
      c6:	c3                   	ret    
      c7:	89 f6                	mov    %esi,%esi
      c9:	8d bc 27 00 00 00 00 	lea    0x0(%edi,%eiz,1),%edi

000000d0 <_get_byte>:
   IN assertion: the stream s has been sucessfully opened for reading.
*/
local int get_byte(s)
    gz_stream *s;
{
    if (s->z_eof) return EOF;
      d0:	8b 50 3c             	mov    0x3c(%eax),%edx
      d3:	85 d2                	test   %edx,%edx
      d5:	75 7e                	jne    155 <_get_byte+0x85>
   for end of file.
   IN assertion: the stream s has been sucessfully opened for reading.
*/
local int get_byte(s)
    gz_stream *s;
{
      d7:	53                   	push   %ebx
      d8:	89 c3                	mov    %eax,%ebx
      da:	83 ec 18             	sub    $0x18,%esp
    if (s->z_eof) return EOF;
    if (s->stream.avail_in == 0) {
      dd:	8b 40 04             	mov    0x4(%eax),%eax
      e0:	85 c0                	test   %eax,%eax
      e2:	74 14                	je     f8 <_get_byte+0x28>
      e4:	8b 13                	mov    (%ebx),%edx
      if (ferror(s->file)) s->z_err = Z_ERRNO;
      return EOF;
  }
  s->stream.next_in = s->inbuf;
    }
    s->stream.avail_in--;
      e6:	48                   	dec    %eax
      e7:	89 43 04             	mov    %eax,0x4(%ebx)
    return *(s->stream.next_in)++;
      ea:	8d 42 01             	lea    0x1(%edx),%eax
      ed:	89 03                	mov    %eax,(%ebx)
      ef:	31 c0                	xor    %eax,%eax
      f1:	8a 02                	mov    (%edx),%al
}
      f3:	83 c4 18             	add    $0x18,%esp
      f6:	5b                   	pop    %ebx
      f7:	c3                   	ret    
local int get_byte(s)
    gz_stream *s;
{
    if (s->z_eof) return EOF;
    if (s->stream.avail_in == 0) {
  errno = 0;
      f8:	e8 00 00 00 00       	call   fd <_get_byte+0x2d>
      fd:	c7 00 00 00 00 00    	movl   $0x0,(%eax)
  s->stream.avail_in = fread(s->inbuf, 1, Z_BUFSIZE, s->file);
     103:	8b 43 40             	mov    0x40(%ebx),%eax
     106:	89 44 24 0c          	mov    %eax,0xc(%esp)
     10a:	c7 44 24 08 00 40 00 	movl   $0x4000,0x8(%esp)
     111:	00 
     112:	c7 44 24 04 01 00 00 	movl   $0x1,0x4(%esp)
     119:	00 
     11a:	8b 43 44             	mov    0x44(%ebx),%eax
     11d:	89 04 24             	mov    %eax,(%esp)
     120:	e8 00 00 00 00       	call   125 <_get_byte+0x55>
     125:	89 43 04             	mov    %eax,0x4(%ebx)
  if (s->stream.avail_in == 0) {
     128:	85 c0                	test   %eax,%eax
     12a:	75 24                	jne    150 <_get_byte+0x80>
      s->z_eof = 1;
      if (ferror(s->file)) s->z_err = Z_ERRNO;
     12c:	8b 43 40             	mov    0x40(%ebx),%eax
    if (s->z_eof) return EOF;
    if (s->stream.avail_in == 0) {
  errno = 0;
  s->stream.avail_in = fread(s->inbuf, 1, Z_BUFSIZE, s->file);
  if (s->stream.avail_in == 0) {
      s->z_eof = 1;
     12f:	c7 43 3c 01 00 00 00 	movl   $0x1,0x3c(%ebx)
      if (ferror(s->file)) s->z_err = Z_ERRNO;
     136:	f6 40 0c 20          	testb  $0x20,0xc(%eax)
     13a:	74 07                	je     143 <_get_byte+0x73>
     13c:	c7 43 38 ff ff ff ff 	movl   $0xffffffff,0x38(%ebx)
  }
  s->stream.next_in = s->inbuf;
    }
    s->stream.avail_in--;
    return *(s->stream.next_in)++;
}
     143:	83 c4 18             	add    $0x18,%esp
    if (s->stream.avail_in == 0) {
  errno = 0;
  s->stream.avail_in = fread(s->inbuf, 1, Z_BUFSIZE, s->file);
  if (s->stream.avail_in == 0) {
      s->z_eof = 1;
      if (ferror(s->file)) s->z_err = Z_ERRNO;
     146:	83 c8 ff             	or     $0xffffffff,%eax
  }
  s->stream.next_in = s->inbuf;
    }
    s->stream.avail_in--;
    return *(s->stream.next_in)++;
}
     149:	5b                   	pop    %ebx
     14a:	c3                   	ret    
     14b:	90                   	nop
     14c:	8d 74 26 00          	lea    0x0(%esi,%eiz,1),%esi
  if (s->stream.avail_in == 0) {
      s->z_eof = 1;
      if (ferror(s->file)) s->z_err = Z_ERRNO;
      return EOF;
  }
  s->stream.next_in = s->inbuf;
     150:	8b 53 44             	mov    0x44(%ebx),%edx
     153:	eb 91                	jmp    e6 <_get_byte+0x16>
   IN assertion: the stream s has been sucessfully opened for reading.
*/
local int get_byte(s)
    gz_stream *s;
{
    if (s->z_eof) return EOF;
     155:	83 c8 ff             	or     $0xffffffff,%eax
  }
  s->stream.next_in = s->inbuf;
    }
    s->stream.avail_in--;
    return *(s->stream.next_in)++;
}
     158:	c3                   	ret    
     159:	8d b4 26 00 00 00 00 	lea    0x0(%esi,%eiz,1),%esi

00000160 <_check_header>:
       s->stream.avail_in is zero for the first time, but may be non-zero
       for concatenated .gz files.
*/
local void check_header(s)
    gz_stream *s;
{
     160:	55                   	push   %ebp
     161:	57                   	push   %edi
     162:	56                   	push   %esi
     163:	53                   	push   %ebx
     164:	83 ec 0c             	sub    $0xc,%esp
     167:	89 c3                	mov    %eax,%ebx
    uInt len;
    int c;

    /* Check the gzip magic header */
    for (len = 0; len < 2; len++) {
  c = get_byte(s);
     169:	e8 62 ff ff ff       	call   d0 <_get_byte>
  if (c != gz_magic[len]) {
     16e:	83 f8 1f             	cmp    $0x1f,%eax
     171:	0f 85 09 01 00 00    	jne    280 <_check_header+0x120>
    uInt len;
    int c;

    /* Check the gzip magic header */
    for (len = 0; len < 2; len++) {
  c = get_byte(s);
     177:	89 d8                	mov    %ebx,%eax
     179:	e8 52 ff ff ff       	call   d0 <_get_byte>
  if (c != gz_magic[len]) {
     17e:	3d 8b 00 00 00       	cmp    $0x8b,%eax
     183:	0f 85 1c 01 00 00    	jne    2a5 <_check_header+0x145>
      }
      s->z_err = s->stream.avail_in != 0 ? Z_OK : Z_STREAM_END;
      return;
  }
    }
    method = get_byte(s);
     189:	89 d8                	mov    %ebx,%eax
     18b:	e8 40 ff ff ff       	call   d0 <_get_byte>
     190:	89 c7                	mov    %eax,%edi
    flags = get_byte(s);
     192:	89 d8                	mov    %ebx,%eax
     194:	e8 37 ff ff ff       	call   d0 <_get_byte>
    if (method != Z_DEFLATED || (flags & RESERVED) != 0) {
     199:	83 ff 08             	cmp    $0x8,%edi
      s->z_err = s->stream.avail_in != 0 ? Z_OK : Z_STREAM_END;
      return;
  }
    }
    method = get_byte(s);
    flags = get_byte(s);
     19c:	89 c6                	mov    %eax,%esi
    if (method != Z_DEFLATED || (flags & RESERVED) != 0) {
     19e:	74 10                	je     1b0 <_check_header+0x50>
  s->z_err = Z_DATA_ERROR;
     1a0:	c7 43 38 fd ff ff ff 	movl   $0xfffffffd,0x38(%ebx)
    }
    if ((flags & HEAD_CRC) != 0) {  /* skip the header crc */
  for (len = 0; len < 2; len++) (void)get_byte(s);
    }
    s->z_err = s->z_eof ? Z_DATA_ERROR : Z_OK;
}
     1a7:	83 c4 0c             	add    $0xc,%esp
     1aa:	5b                   	pop    %ebx
     1ab:	5e                   	pop    %esi
     1ac:	5f                   	pop    %edi
     1ad:	5d                   	pop    %ebp
     1ae:	c3                   	ret    
     1af:	90                   	nop
     1b0:	bf 06 00 00 00       	mov    $0x6,%edi
      return;
  }
    }
    method = get_byte(s);
    flags = get_byte(s);
    if (method != Z_DEFLATED || (flags & RESERVED) != 0) {
     1b5:	a8 e0                	test   $0xe0,%al
     1b7:	75 e7                	jne    1a0 <_check_header+0x40>
     1b9:	8d b4 26 00 00 00 00 	lea    0x0(%esi,%eiz,1),%esi
  s->z_err = Z_DATA_ERROR;
  return;
    }

    /* Discard time, xflags and OS code: */
    for (len = 0; len < 6; len++) (void)get_byte(s);
     1c0:	89 d8                	mov    %ebx,%eax
     1c2:	e8 09 ff ff ff       	call   d0 <_get_byte>
     1c7:	4f                   	dec    %edi
     1c8:	75 f6                	jne    1c0 <_check_header+0x60>

    if ((flags & EXTRA_FIELD) != 0) { /* skip the extra field */
     1ca:	f7 c6 04 00 00 00    	test   $0x4,%esi
     1d0:	75 7e                	jne    250 <_check_header+0xf0>
  len  =  (uInt)get_byte(s);
  len += ((uInt)get_byte(s))<<8;
  /* len is garbage if EOF but the loop below will quit anyway */
  while (len-- != 0 && get_byte(s) != EOF) ;
    }
    if ((flags & ORIG_NAME) != 0) { /* skip the original file name */
     1d2:	f7 c6 08 00 00 00    	test   $0x8,%esi
     1d8:	75 36                	jne    210 <_check_header+0xb0>
  while ((c = get_byte(s)) != 0 && c != EOF) ;
    }
    if ((flags & COMMENT) != 0) {   /* skip the .gz file comment */
     1da:	f7 c6 10 00 00 00    	test   $0x10,%esi
     1e0:	75 4e                	jne    230 <_check_header+0xd0>
  while ((c = get_byte(s)) != 0 && c != EOF) ;
    }
    if ((flags & HEAD_CRC) != 0) {  /* skip the header crc */
     1e2:	83 e6 02             	and    $0x2,%esi
     1e5:	74 0e                	je     1f5 <_check_header+0x95>
  for (len = 0; len < 2; len++) (void)get_byte(s);
     1e7:	89 d8                	mov    %ebx,%eax
     1e9:	e8 e2 fe ff ff       	call   d0 <_get_byte>
     1ee:	89 d8                	mov    %ebx,%eax
     1f0:	e8 db fe ff ff       	call   d0 <_get_byte>
    }
    s->z_err = s->z_eof ? Z_DATA_ERROR : Z_OK;
     1f5:	8b 43 3c             	mov    0x3c(%ebx),%eax
     1f8:	ba fd ff ff ff       	mov    $0xfffffffd,%edx
     1fd:	85 c0                	test   %eax,%eax
     1ff:	0f 45 c2             	cmovne %edx,%eax
     202:	89 43 38             	mov    %eax,0x38(%ebx)
}
     205:	83 c4 0c             	add    $0xc,%esp
     208:	5b                   	pop    %ebx
     209:	5e                   	pop    %esi
     20a:	5f                   	pop    %edi
     20b:	5d                   	pop    %ebp
     20c:	c3                   	ret    
     20d:	8d 76 00             	lea    0x0(%esi),%esi
  len += ((uInt)get_byte(s))<<8;
  /* len is garbage if EOF but the loop below will quit anyway */
  while (len-- != 0 && get_byte(s) != EOF) ;
    }
    if ((flags & ORIG_NAME) != 0) { /* skip the original file name */
  while ((c = get_byte(s)) != 0 && c != EOF) ;
     210:	89 d8                	mov    %ebx,%eax
     212:	e8 b9 fe ff ff       	call   d0 <_get_byte>
     217:	40                   	inc    %eax
     218:	83 f8 01             	cmp    $0x1,%eax
     21b:	76 bd                	jbe    1da <_check_header+0x7a>
     21d:	89 d8                	mov    %ebx,%eax
     21f:	e8 ac fe ff ff       	call   d0 <_get_byte>
     224:	40                   	inc    %eax
     225:	83 f8 01             	cmp    $0x1,%eax
     228:	77 e6                	ja     210 <_check_header+0xb0>
     22a:	eb ae                	jmp    1da <_check_header+0x7a>
     22c:	8d 74 26 00          	lea    0x0(%esi,%eiz,1),%esi
    }
    if ((flags & COMMENT) != 0) {   /* skip the .gz file comment */
  while ((c = get_byte(s)) != 0 && c != EOF) ;
     230:	89 d8                	mov    %ebx,%eax
     232:	e8 99 fe ff ff       	call   d0 <_get_byte>
     237:	8d 50 01             	lea    0x1(%eax),%edx
     23a:	83 fa 01             	cmp    $0x1,%edx
     23d:	76 a3                	jbe    1e2 <_check_header+0x82>
     23f:	89 d8                	mov    %ebx,%eax
     241:	e8 8a fe ff ff       	call   d0 <_get_byte>
     246:	8d 50 01             	lea    0x1(%eax),%edx
     249:	83 fa 01             	cmp    $0x1,%edx
     24c:	77 e2                	ja     230 <_check_header+0xd0>
     24e:	eb 92                	jmp    1e2 <_check_header+0x82>

    /* Discard time, xflags and OS code: */
    for (len = 0; len < 6; len++) (void)get_byte(s);

    if ((flags & EXTRA_FIELD) != 0) { /* skip the extra field */
  len  =  (uInt)get_byte(s);
     250:	89 d8                	mov    %ebx,%eax
     252:	e8 79 fe ff ff       	call   d0 <_get_byte>
     257:	89 c5                	mov    %eax,%ebp
  len += ((uInt)get_byte(s))<<8;
     259:	89 d8                	mov    %ebx,%eax
     25b:	e8 70 fe ff ff       	call   d0 <_get_byte>
     260:	c1 e0 08             	shl    $0x8,%eax
  /* len is garbage if EOF but the loop below will quit anyway */
  while (len-- != 0 && get_byte(s) != EOF) ;
     263:	8d 3c 28             	lea    (%eax,%ebp,1),%edi
     266:	eb 0f                	jmp    277 <_check_header+0x117>
     268:	89 d8                	mov    %ebx,%eax
     26a:	4f                   	dec    %edi
     26b:	e8 60 fe ff ff       	call   d0 <_get_byte>
     270:	40                   	inc    %eax
     271:	0f 84 5b ff ff ff    	je     1d2 <_check_header+0x72>
     277:	85 ff                	test   %edi,%edi
     279:	75 ed                	jne    268 <_check_header+0x108>
     27b:	e9 52 ff ff ff       	jmp    1d2 <_check_header+0x72>
     280:	8b 53 04             	mov    0x4(%ebx),%edx
    /* Check the gzip magic header */
    for (len = 0; len < 2; len++) {
  c = get_byte(s);
  if (c != gz_magic[len]) {
      if (len != 0) s->stream.avail_in++, s->stream.next_in--;
      if (c != EOF) {
     283:	40                   	inc    %eax
     284:	74 10                	je     296 <_check_header+0x136>
    s->stream.avail_in++, s->stream.next_in--;
     286:	8b 33                	mov    (%ebx),%esi
     288:	42                   	inc    %edx
     289:	4e                   	dec    %esi
     28a:	89 53 04             	mov    %edx,0x4(%ebx)
     28d:	89 33                	mov    %esi,(%ebx)
    s->transparent = 1;
     28f:	c7 43 58 01 00 00 00 	movl   $0x1,0x58(%ebx)
      }
      s->z_err = s->stream.avail_in != 0 ? Z_OK : Z_STREAM_END;
     296:	31 c0                	xor    %eax,%eax
     298:	85 d2                	test   %edx,%edx
     29a:	0f 94 c0             	sete   %al
     29d:	89 43 38             	mov    %eax,0x38(%ebx)
      return;
     2a0:	e9 02 ff ff ff       	jmp    1a7 <_check_header+0x47>

    /* Check the gzip magic header */
    for (len = 0; len < 2; len++) {
  c = get_byte(s);
  if (c != gz_magic[len]) {
      if (len != 0) s->stream.avail_in++, s->stream.next_in--;
     2a5:	8b 4b 04             	mov    0x4(%ebx),%ecx
     2a8:	8d 51 01             	lea    0x1(%ecx),%edx
     2ab:	8b 0b                	mov    (%ebx),%ecx
     2ad:	49                   	dec    %ecx
     2ae:	89 53 04             	mov    %edx,0x4(%ebx)
     2b1:	89 0b                	mov    %ecx,(%ebx)
     2b3:	eb ce                	jmp    283 <_check_header+0x123>
     2b5:	8d 74 26 00          	lea    0x0(%esi,%eiz,1),%esi
     2b9:	8d bc 27 00 00 00 00 	lea    0x0(%edi,%eiz,1),%edi

000002c0 <_gz_open>:
*/
local gzFile gz_open (path, mode, fd)
    const char *path;
    const char *mode;
    int  fd;
{
     2c0:	55                   	push   %ebp
     2c1:	57                   	push   %edi
     2c2:	56                   	push   %esi
     2c3:	53                   	push   %ebx
     2c4:	81 ec cc 00 00 00    	sub    $0xcc,%esp
    char *p = (char*)mode;
    gz_stream *s;
    char fmode[80]; /* copy of mode, without the compression level */
    char *m = fmode;

    if (!path || !mode) return Z_NULL;
     2ca:	85 d2                	test   %edx,%edx
     2cc:	0f 84 ae 02 00 00    	je     580 <_gz_open+0x2c0>
     2d2:	85 c0                	test   %eax,%eax
     2d4:	0f 84 a6 02 00 00    	je     580 <_gz_open+0x2c0>

    s = (gz_stream *)ALLOC(sizeof(gz_stream));
     2da:	c7 04 24 64 00 00 00 	movl   $0x64,(%esp)
     2e1:	89 4c 24 38          	mov    %ecx,0x38(%esp)
     2e5:	89 d6                	mov    %edx,%esi
     2e7:	89 c7                	mov    %eax,%edi
     2e9:	89 44 24 3c          	mov    %eax,0x3c(%esp)
     2ed:	e8 00 00 00 00       	call   2f2 <_gz_open+0x32>
     2f2:	89 c3                	mov    %eax,%ebx
    if (!s) return Z_NULL;
     2f4:	85 c0                	test   %eax,%eax
     2f6:	0f 84 84 02 00 00    	je     580 <_gz_open+0x2c0>

    s->stream.zalloc = (alloc_func)0;
     2fc:	c7 40 20 00 00 00 00 	movl   $0x0,0x20(%eax)
    s->stream.zfree = (free_func)0;
     303:	c7 40 24 00 00 00 00 	movl   $0x0,0x24(%eax)
    s->stream.opaque = (voidpf)0;
     30a:	c7 40 28 00 00 00 00 	movl   $0x0,0x28(%eax)
    s->stream.next_in = s->inbuf = Z_NULL;
     311:	c7 40 44 00 00 00 00 	movl   $0x0,0x44(%eax)
     318:	c7 00 00 00 00 00    	movl   $0x0,(%eax)
    s->stream.next_out = s->outbuf = Z_NULL;
     31e:	c7 40 48 00 00 00 00 	movl   $0x0,0x48(%eax)
     325:	c7 40 0c 00 00 00 00 	movl   $0x0,0xc(%eax)
    s->stream.avail_in = s->stream.avail_out = 0;
     32c:	c7 40 10 00 00 00 00 	movl   $0x0,0x10(%eax)
     333:	c7 40 04 00 00 00 00 	movl   $0x0,0x4(%eax)
    s->file = NULL;
     33a:	c7 40 40 00 00 00 00 	movl   $0x0,0x40(%eax)
    s->z_err = Z_OK;
     341:	c7 40 38 00 00 00 00 	movl   $0x0,0x38(%eax)
    s->z_eof = 0;
     348:	c7 40 3c 00 00 00 00 	movl   $0x0,0x3c(%eax)
    s->crc = crc32(0L, Z_NULL, 0);
     34f:	c7 44 24 08 00 00 00 	movl   $0x0,0x8(%esp)
     356:	00 
     357:	c7 44 24 04 00 00 00 	movl   $0x0,0x4(%esp)
     35e:	00 
     35f:	c7 04 24 00 00 00 00 	movl   $0x0,(%esp)
     366:	e8 00 00 00 00       	call   36b <_gz_open+0xab>
    s->msg = NULL;
    s->transparent = 0;

    s->path = (char*)ALLOC(strlen(path)+1);
     36b:	89 3c 24             	mov    %edi,(%esp)
    s->stream.next_out = s->outbuf = Z_NULL;
    s->stream.avail_in = s->stream.avail_out = 0;
    s->file = NULL;
